Component: ARM Compiler 5.06 update 5 (build 528) Tool: armlink [4d35e2]

==============================================================================

Section Cross References

    system_stm32f10x.o(.text) refers to system_stm32f10x.o(.data) for SystemCoreClock
    main.o(.text) refers to misc.o(.text) for NVIC_PriorityGroupConfig
    main.o(.text) refers to led.o(.text) for led_init
    main.o(.text) refers to button.o(.text) for button_init
    main.o(.text) refers to lcd_driver.o(.text) for TFT_Init
    main.o(.text) refers to flash.o(.text) for FLASH_Init
    main.o(.text) refers to touch.o(.text) for TOUCH_Init
    main.o(.text) refers to tim.o(.text) for TIM3_Init
    main.o(.text) refers to rtc.o(.text) for rtc_init
    main.o(.text) refers to demo_main.o(.text) for gui_app_start
    sys.o(.text) refers to misc.o(.text) for NVIC_PriorityGroupConfig
    usart.o(.text) refers (Special) to use_no_semi_2.o(.text) for __use_no_semihosting
    usart.o(.text) refers to stm32f10x_rcc.o(.text) for RCC_APB2PeriphClockCmd
    usart.o(.text) refers to stm32f10x_gpio.o(.text) for GPIO_Init
    usart.o(.text) refers to misc.o(.text) for NVIC_Init
    usart.o(.text) refers to stm32f10x_usart.o(.text) for USART_Init
    usart.o(.text) refers to usart.o(.data) for USART_RX_STA
    usart.o(.text) refers to usart.o(.bss) for USART_RX_BUF
    usart.o(.bss) refers (Special) to use_no_semi_2.o(.text) for __use_no_semihosting
    usart.o(.data) refers (Special) to use_no_semi_2.o(.text) for __use_no_semihosting
    startup_stm32f10x_hd.o(STACK) refers (Special) to heapauxi.o(.text) for __use_two_region_memory
    startup_stm32f10x_hd.o(HEAP) refers (Special) to heapauxi.o(.text) for __use_two_region_memory
    startup_stm32f10x_hd.o(RESET) refers (Special) to heapauxi.o(.text) for __use_two_region_memory
    startup_stm32f10x_hd.o(RESET) refers to startup_stm32f10x_hd.o(STACK) for __initial_sp
    startup_stm32f10x_hd.o(RESET) refers to startup_stm32f10x_hd.o(.text) for Reset_Handler
    startup_stm32f10x_hd.o(RESET) refers to stm32f10x_it.o(.text) for NMI_Handler
    startup_stm32f10x_hd.o(RESET) refers to platform.o(.text) for SysTick_Handler
    startup_stm32f10x_hd.o(RESET) refers to rtc.o(.text) for RTC_IRQHandler
    startup_stm32f10x_hd.o(RESET) refers to main_loop_stm32_raw.o(.text) for TIM3_IRQHandler
    startup_stm32f10x_hd.o(RESET) refers to usart.o(.text) for USART1_IRQHandler
    startup_stm32f10x_hd.o(RESET) refers to tim.o(.text) for TIM5_IRQHandler
    startup_stm32f10x_hd.o(.text) refers (Special) to heapauxi.o(.text) for __use_two_region_memory
    startup_stm32f10x_hd.o(.text) refers to system_stm32f10x.o(.text) for SystemInit
    startup_stm32f10x_hd.o(.text) refers to __main.o(!!!main) for __main
    startup_stm32f10x_hd.o(.text) refers to startup_stm32f10x_hd.o(HEAP) for Heap_Mem
    startup_stm32f10x_hd.o(.text) refers to startup_stm32f10x_hd.o(STACK) for Stack_Mem
    stm32f10x_gpio.o(.text) refers to stm32f10x_rcc.o(.text) for RCC_APB2PeriphResetCmd
    stm32f10x_rcc.o(.text) refers to stm32f10x_rcc.o(.data) for APBAHBPrescTable
    stm32f10x_usart.o(.text) refers to stm32f10x_rcc.o(.text) for RCC_APB2PeriphResetCmd
    stm32f10x_wwdg.o(.text) refers to stm32f10x_rcc.o(.text) for RCC_APB1PeriphResetCmd
    stm32f10x_tim.o(.text) refers to stm32f10x_rcc.o(.text) for RCC_APB2PeriphResetCmd
    stm32f10x_bkp.o(.text) refers to stm32f10x_rcc.o(.text) for RCC_BackupResetCmd
    stm32f10x_pwr.o(.text) refers to stm32f10x_rcc.o(.text) for RCC_APB1PeriphResetCmd
    stm32f10x_spi.o(.text) refers to stm32f10x_rcc.o(.text) for RCC_APB2PeriphResetCmd
    led.o(.text) refers to stm32f10x_rcc.o(.text) for RCC_APB2PeriphClockCmd
    led.o(.text) refers to stm32f10x_gpio.o(.text) for GPIO_Init
    led.o(.text) refers to platform.o(.text) for delay_ms
    led.o(.text) refers to led.o(.data) for i
    lcd_driver.o(.text) refers to stm32f10x_rcc.o(.text) for RCC_APB2PeriphClockCmd
    lcd_driver.o(.text) refers to stm32f10x_gpio.o(.text) for GPIO_Init
    lcd_driver.o(.text) refers to stm32f10x_fsmc.o(.text) for FSMC_NORSRAMInit
    button.o(.text) refers to stm32f10x_rcc.o(.text) for RCC_APB2PeriphClockCmd
    button.o(.text) refers to stm32f10x_gpio.o(.text) for GPIO_Init
    button.o(.text) refers to platform.o(.text) for delay_ms
    button.o(.text) refers to button.o(.data) for key_up
    tim.o(.text) refers to stm32f10x_rcc.o(.text) for RCC_APB1PeriphClockCmd
    tim.o(.text) refers to stm32f10x_gpio.o(.text) for GPIO_Init
    tim.o(.text) refers to stm32f10x_tim.o(.text) for TIM_TimeBaseInit
    tim.o(.text) refers to misc.o(.text) for NVIC_Init
    tim.o(.text) refers to tim.o(.data) for TIM5CH1_CAPTURE_STA
    rtc.o(.text) refers to _printf_percent.o(.ARM.Collect$$_printf_percent$$00000000) for _printf_percent
    rtc.o(.text) refers to _printf_d.o(.ARM.Collect$$_printf_percent$$00000009) for _printf_d
    rtc.o(.text) refers to _printf_dec.o(.text) for _printf_int_dec
    rtc.o(.text) refers to misc.o(.text) for NVIC_Init
    rtc.o(.text) refers to stm32f10x_rtc.o(.text) for RTC_GetCounter
    rtc.o(.text) refers to noretval__2printf.o(.text) for __2printf
    rtc.o(.text) refers to stm32f10x_rcc.o(.text) for RCC_APB1PeriphClockCmd
    rtc.o(.text) refers to stm32f10x_pwr.o(.text) for PWR_BackupAccessCmd
    rtc.o(.text) refers to stm32f10x_bkp.o(.text) for BKP_ReadBackupRegister
    rtc.o(.text) refers to rtc.o(.constdata) for table_week
    rtc.o(.text) refers to rtc.o(.data) for daycnt
    rtc.o(.text) refers to rtc.o(.bss) for calendar
    touch.o(.text) refers to spi.o(.text) for SPI2_SetSpeed
    touch.o(.text) refers to stm32f10x_gpio.o(.text) for GPIO_ResetBits
    touch.o(.text) refers to lcd_driver.o(.text) for TFT_ClearScreen
    touch.o(.text) refers to gui.o(.text) for GUI_DrowSign
    touch.o(.text) refers to platform.o(.text) for delay_ms
    touch.o(.text) refers to fflt_clz.o(x$fpl$fflt) for __aeabi_i2f
    touch.o(.text) refers to fdiv.o(x$fpl$fdiv) for __aeabi_fdiv
    touch.o(.text) refers to fflt_clz.o(x$fpl$ffltu) for __aeabi_ui2f
    touch.o(.text) refers to fmul.o(x$fpl$fmul) for __aeabi_fmul
    touch.o(.text) refers to faddsub_clz.o(x$fpl$frsb) for __aeabi_frsub
    touch.o(.text) refers to ffix.o(x$fpl$ffix) for __aeabi_f2iz
    touch.o(.text) refers to flash.o(.text) for FLASH_WriteData
    touch.o(.text) refers to stm32f10x_rcc.o(.text) for RCC_APB2PeriphClockCmd
    touch.o(.text) refers to faddsub_clz.o(x$fpl$fadd) for __aeabi_fadd
    touch.o(.text) refers to ffixu.o(x$fpl$ffixu) for __aeabi_f2uiz
    touch.o(.text) refers to touch.o(.bss) for TouchAdj
    touch.o(.text) refers to touch.o(.data) for TouchData
    spi.o(.text) refers to stm32f10x_rcc.o(.text) for RCC_APB2PeriphClockCmd
    spi.o(.text) refers to stm32f10x_gpio.o(.text) for GPIO_Init
    spi.o(.text) refers to stm32f10x_spi.o(.text) for SPI_Cmd
    gui.o(.text) refers to lcd_driver.o(.text) for TFT_SetWindow
    gui.o(.text) refers to gui.o(.constdata) for tfont16
    flash.o(.text) refers to stm32f10x_gpio.o(.text) for GPIO_ResetBits
    flash.o(.text) refers to spi.o(.text) for SPI2_WriteReadData
    flash.o(.text) refers to stm32f10x_rcc.o(.text) for RCC_APB2PeriphClockCmd
    flash.o(.text) refers to flash.o(.bss) for flashBuff
    array.o(.text) refers to mem.o(.text) for tk_calloc
    buffer.o(.text) refers to rt_memcpy_v6.o(.text) for __aeabi_memcpy
    buffer.o(.text) refers to strlen.o(.text) for strlen
    button_1.o(.text) refers to widget.o(.text) for widget_paint_helper
    button_1.o(.text) refers to rt_memcpy_w.o(.text) for __aeabi_memcpy4
    button_1.o(.text) refers to mem.o(.text) for tk_calloc
    button_1.o(.text) refers to button_1.o(.constdata) for s_button_vtable
    button_1.o(.constdata) refers to button_1.o(.text) for button_on_paint_self
    canvas.o(.text) refers to dflt_clz.o(x$fpl$dfltu) for __aeabi_ui2d
    canvas.o(.text) refers to daddsub_clz.o(x$fpl$dsub) for __aeabi_dsub
    canvas.o(.text) refers to dleqf.o(x$fpl$dleqf) for __aeabi_cdcmple
    canvas.o(.text) refers to drleqf.o(x$fpl$drleqf) for __aeabi_cdrcmple
    canvas.o(.text) refers to ddiv.o(x$fpl$ddiv) for __aeabi_ddiv
    canvas.o(.text) refers to daddsub_clz.o(x$fpl$dadd) for __aeabi_dadd
    canvas.o(.text) refers to dfix.o(x$fpl$dfix) for __aeabi_d2iz
    canvas.o(.text) refers to dflt_clz.o(x$fpl$dflt) for __aeabi_i2d
    canvas.o(.text) refers to daddsub_clz.o(x$fpl$drsb) for __aeabi_drsub
    canvas.o(.text) refers to dmul.o(x$fpl$dmul) for __aeabi_dmul
    canvas.o(.text) refers to dfixu.o(x$fpl$dfixu) for __aeabi_d2uiz
    canvas.o(.text) refers to lcd.o(.text) for lcd_draw_points
    canvas.o(.text) refers to rt_memclr_w.o(.text) for __aeabi_memclr4
    canvas.o(.text) refers to font_manager.o(.text) for font_manager_find
    canvas.o(.text) refers to wcslen.o(.text) for wcslen
    canvas.o(.text) refers to font.o(.text) for font_find_glyph
    canvas.o(.text) refers to color.o(.text) for color_init
    canvas.o(.text) refers to fflt_clz.o(x$fpl$fflt) for __aeabi_i2f
    canvas.o(.text) refers to fdiv.o(x$fpl$fdiv) for __aeabi_fdiv
    canvas.o(.text) refers to fmul.o(x$fpl$fmul) for __aeabi_fmul
    canvas.o(.text) refers to fleqf.o(x$fpl$fleqf) for __aeabi_cfcmple
    canvas.o(.text) refers to ffix.o(x$fpl$ffix) for __aeabi_f2iz
    canvas.o(.text) refers to frleqf.o(x$fpl$frleqf) for __aeabi_cfrcmple
    canvas.o(.text) refers to faddsub_clz.o(x$fpl$fsub) for __aeabi_fsub
    check_button.o(.text) refers to widget.o(.text) for widget_dispatch
    check_button.o(.text) refers to strcmpv7m.o(.text) for strcmp
    check_button.o(.text) refers to value.o(.text) for value_set_uint8
    check_button.o(.text) refers to mem.o(.text) for tk_calloc
    check_button.o(.text) refers to check_button.o(.constdata) for .constdata
    check_button.o(.constdata) refers to check_button.o(.text) for check_button_get_prop
    dialog.o(.text) refers to widget.o(.text) for widget_paint_helper
    dialog.o(.text) refers to strcmpv7m.o(.text) for strcmp
    dialog.o(.text) refers to value.o(.text) for value_set_str
    dialog.o(.text) refers to layout.o(.text) for widget_layout_children
    dialog.o(.text) refers to str.o(.text) for str_from_value
    dialog.o(.text) refers to label.o(.text) for label_create
    dialog.o(.text) refers to group_box.o(.text) for group_box_create
    dialog.o(.text) refers to mem.o(.text) for tk_calloc
    dialog.o(.text) refers to window_manager.o(.text) for window_manager
    dialog.o(.text) refers to main_loop.o(.text) for main_loop
    dialog.o(.text) refers to idle.o(.text) for idle_add
    dialog.o(.text) refers to dialog.o(.constdata) for s_dialog_vtable
    dialog.o(.constdata) refers to dialog.o(.text) for dialog_get_prop
    emitter.o(.text) refers to mem.o(.text) for tk_calloc
    enums.o(.text) refers to strcmpv7m.o(.text) for strcmp
    enums.o(.text) refers to enums.o(.constdata) for widget_type_value
    enums.o(.constdata) refers to enums.o(.conststring) for .conststring
    font_manager.o(.text) refers to array.o(.text) for array_init
    font_manager.o(.text) refers to mem.o(.text) for tk_calloc
    font_manager.o(.text) refers to font.o(.text) for font_match
    font_manager.o(.text) refers to font_manager.o(.data) for s_font_manager
    group_box.o(.text) refers to widget.o(.text) for widget_paint_helper
    group_box.o(.text) refers to mem.o(.text) for tk_calloc
    group_box.o(.text) refers to group_box.o(.constdata) for s_group_box_vtable
    group_box.o(.constdata) refers to group_box.o(.text) for group_box_on_paint_self
    image.o(.text) refers to color.o(.text) for color_init
    image.o(.text) refers to theme.o(.text) for style_get_color
    image.o(.text) refers to canvas.o(.text) for canvas_set_fill_color
    image.o(.text) refers to strcmpv7m.o(.text) for strcmp
    image.o(.text) refers to value.o(.text) for value_set_pointer
    image.o(.text) refers to rt_memcpy_w.o(.text) for __aeabi_memcpy4
    image.o(.text) refers to rt_memclr_w.o(.text) for __aeabi_memclr4
    image.o(.text) refers to image_manager.o(.text) for image_manager
    image.o(.text) refers to enums.o(.text) for image_draw_type_find
    image.o(.text) refers to mem.o(.text) for tk_calloc
    image.o(.text) refers to widget.o(.text) for widget_init
    image.o(.text) refers to image.o(.constdata) for s_image_vtable
    image.o(.constdata) refers to image.o(.text) for image_get_prop
    image_manager.o(.text) refers to array.o(.text) for array_init
    image_manager.o(.text) refers to mem.o(.text) for tk_calloc
    image_manager.o(.text) refers to rt_memcpy_w.o(.text) for __aeabi_memcpy4
    image_manager.o(.text) refers to time.o(.text) for time_now_s
    image_manager.o(.text) refers to strncpy.o(.text) for strncpy
    image_manager.o(.text) refers to strcmpv7m.o(.text) for strcmp
    image_manager.o(.text) refers to rt_memclr_w.o(.text) for __aeabi_memclr4
    image_manager.o(.text) refers to resource_manager.o(.text) for resource_manager
    image_manager.o(.text) refers to image_loader.o(.text) for image_loader_load
    image_manager.o(.text) refers to bitmap.o(.text) for bitmap_destroy
    image_manager.o(.text) refers to image_manager.o(.data) for s_image_manager
    label.o(.text) refers to widget.o(.text) for widget_paint_helper
    label.o(.text) refers to mem.o(.text) for tk_calloc
    label.o(.text) refers to label.o(.constdata) for s_label_vtable
    label.o(.constdata) refers to label.o(.text) for label_on_paint_self
    lcd.o(.text) refers to color.o(.text) for color_init
    main_loop.o(.text) refers to window_manager.o(.text) for window_manager
    main_loop.o(.text) refers to timer.o(.text) for timer_next_time
    main_loop.o(.text) refers to time.o(.text) for time_now_ms
    main_loop.o(.text) refers to platform.o(.text) for sleep_ms
    main_loop.o(.text) refers to main_loop.o(.data) for s_default_main_loop
    mem.o(.text) refers to rt_memclr_w.o(.text) for __aeabi_memclr4
    mem.o(.text) refers to rt_memcpy_w.o(.text) for __aeabi_memcpy4
    mem.o(.text) refers to rt_memclr.o(.text) for __aeabi_memclr
    mem.o(.text) refers to rt_memcpy_v6.o(.text) for __aeabi_memcpy
    mem.o(.text) refers to mem.o(.bss) for s_mem_info
    progress_bar.o(.text) refers to color.o(.text) for color_init
    progress_bar.o(.text) refers to theme.o(.text) for style_get_color
    progress_bar.o(.text) refers to canvas.o(.text) for canvas_set_fill_color
    progress_bar.o(.text) refers to image_manager.o(.text) for image_manager
    progress_bar.o(.text) refers to utils.o(.text) for tk_itoa
    progress_bar.o(.text) refers to strlen.o(.text) for strlen
    progress_bar.o(.text) refers to widget.o(.text) for widget_invalidate
    progress_bar.o(.text) refers to strcmpv7m.o(.text) for strcmp
    progress_bar.o(.text) refers to value.o(.text) for value_set_uint8
    progress_bar.o(.text) refers to mem.o(.text) for tk_calloc
    progress_bar.o(.text) refers to progress_bar.o(.constdata) for s_progress_bar_vtable
    progress_bar.o(.constdata) refers to progress_bar.o(.text) for progress_bar_get_prop
    progress_bar.o(.constdata) refers to widget_vtable.o(.text) for widget_on_paint_background_null
    theme.o(.text) refers to strlen.o(.text) for strlen
    theme.o(.text) refers to theme.o(.data) for s_theme
    utf8.o(.text) refers to wcslen.o(.text) for wcslen
    utf8.o(.text) refers to utf8.o(.constdata) for g_utf8_skip
    value.o(.text) refers to feqf.o(x$fpl$feqf) for __aeabi_cfcmpeq
    value.o(.text) refers to deqf.o(x$fpl$deqf) for __aeabi_cdcmpeq
    value.o(.text) refers to strcmpv7m.o(.text) for strcmp
    value.o(.text) refers to ffix.o(x$fpl$ffix) for __aeabi_f2iz
    value.o(.text) refers to dfix.o(x$fpl$dfix) for __aeabi_d2iz
    value.o(.text) refers to utils.o(.text) for tk_atoi
    value.o(.text) refers to fflt_clz.o(x$fpl$fflt) for __aeabi_i2f
    value.o(.text) refers to fflt_clz.o(x$fpl$ffltu) for __aeabi_ui2f
    value.o(.text) refers to ffltll_clz.o(x$fpl$ffltll) for __aeabi_l2f
    value.o(.text) refers to d2f.o(x$fpl$d2f) for __aeabi_d2f
    value.o(.text) refers to mem.o(.text) for tk_calloc
    widget.o(.text) refers to widget_vtable.o(.text) for widget_on_event_default
    widget.o(.text) refers to emitter.o(.text) for emitter_dispatch
    widget.o(.text) refers to str.o(.text) for str_set
    widget.o(.text) refers to theme.o(.text) for theme
    widget.o(.text) refers to strcmpv7m.o(.text) for strcmp
    widget.o(.text) refers to value.o(.text) for value_int
    widget.o(.text) refers to wstr.o(.text) for wstr_from_value
    widget.o(.text) refers to atoi.o(.text) for atoi
    widget.o(.text) refers to locale.o(.text) for locale
    widget.o(.text) refers to widget.o(.constdata) for .constdata
    widget.o(.text) refers to array.o(.text) for array_destroy
    widget.o(.text) refers to mem.o(.text) for tk_free
    widget.o(.text) refers to rt_memclr_w.o(.text) for __aeabi_memclr4
    widget.o(.text) refers to color.o(.text) for color_init
    widget.o(.text) refers to canvas.o(.text) for canvas_set_text_color
    widget.o(.text) refers to image_manager.o(.text) for image_manager
    widget.o(.text) refers to enums.o(.text) for widget_type_find_by_value
    widget.o(.text) refers to utf8.o(.text) for utf8_from_utf16
    widget_vtable.o(.text) refers to widget.o(.text) for widget_paint
    widget_vtable.o(.text) refers to widget_vtable.o(.constdata) for s_vtable
    widget_vtable.o(.constdata) refers to widget_vtable.o(.text) for widget_get_prop_default
    window.o(.text) refers to widget.o(.text) for widget_paint_helper
    window.o(.text) refers to strcmpv7m.o(.text) for strcmp
    window.o(.text) refers to value.o(.text) for value_set_str
    window.o(.text) refers to str.o(.text) for str_from_value
    window.o(.text) refers to mem.o(.text) for tk_calloc
    window.o(.text) refers to window_manager.o(.text) for window_manager
    window.o(.text) refers to window.o(.constdata) for s_window_vtable
    window.o(.constdata) refers to window.o(.text) for window_get_prop
    window_manager.o(.text) refers to widget.o(.text) for widget_get_prop
    window_manager.o(.text) refers to value.o(.text) for value_str
    window_manager.o(.text) refers to window_animator_null.o(.text) for window_animator_create_for_open
    window_manager.o(.text) refers to array.o(.text) for array_find
    window_manager.o(.text) refers to idle.o(.text) for idle_add
    window_manager.o(.text) refers to rect.o(.text) for rect_merge
    window_manager.o(.text) refers to canvas.o(.text) for canvas_begin_frame
    window_manager.o(.text) refers to time.o(.text) for time_now_ms
    window_manager.o(.text) refers to window_animator.o(.text) for window_animator_update
    window_manager.o(.text) refers to timer.o(.text) for timer_add
    window_manager.o(.text) refers to mem.o(.text) for tk_calloc
    window_manager.o(.text) refers to window_manager.o(.data) for s_window_manager
    window_manager.o(.text) refers to window_manager.o(.constdata) for s_wm_vtable
    window_manager.o(.constdata) refers to window_manager.o(.text) for window_manager_on_paint_children
    wstr.o(.text) refers to mem.o(.text) for tk_realloc
    wstr.o(.text) refers to wcslen.o(.text) for wcslen
    wstr.o(.text) refers to wcscpy.o(.text) for wcscpy
    wstr.o(.text) refers to strlen.o(.text) for strlen
    wstr.o(.text) refers to utf8.o(.text) for utf8_to_utf16
    wstr.o(.text) refers to rt_memmove_v6.o(.text) for __aeabi_memmove
    wstr.o(.text) refers to rt_memcpy_v6.o(.text) for __aeabi_memcpy
    wstr.o(.text) refers to utils.o(.text) for tk_itoa
    wstr.o(.text) refers to value.o(.text) for value_str
    font_bitmap.o(.text) refers to strcmpv7m.o(.text) for strcmp
    font_bitmap.o(.text) refers to mem.o(.text) for tk_free
    utils.o(.text) refers to strcmpv7m.o(.text) for strcmp
    utils.o(.text) refers to fflt_clz.o(x$fpl$ffltu) for __aeabi_ui2f
    utils.o(.text) refers to fdiv.o(x$fpl$fdiv) for __aeabi_fdiv
    utils.o(.text) refers to frleqf.o(x$fpl$frleqf) for __aeabi_cfrcmple
    utils.o(.text) refers to fflt_clz.o(x$fpl$fflt) for __aeabi_i2f
    utils.o(.text) refers to faddsub_clz.o(x$fpl$fadd) for __aeabi_fadd
    utils.o(.text) refers to rt_memclr_w.o(.text) for __aeabi_memclr4
    utils.o(.text) refers to ffix.o(x$fpl$ffix) for __aeabi_f2iz
    utils.o(.text) refers to faddsub_clz.o(x$fpl$frsb) for __aeabi_frsub
    utils.o(.text) refers to fmul.o(x$fpl$fmul) for __aeabi_fmul
    utils.o(.text) refers to strncpy.o(.text) for strncpy
    utils.o(.text) refers to strlen.o(.text) for strlen
    utils.o(.text) refers to strcpy.o(.text) for strcpy
    timer.o(.text) refers to array.o(.text) for array_init
    timer.o(.text) refers to mem.o(.text) for tk_calloc
    timer.o(.text) refers to rt_memclr_w.o(.text) for __aeabi_memclr4
    timer.o(.text) refers to main_loop.o(.text) for main_loop
    timer.o(.text) refers to timer.o(.data) for s_timer_manager
    resource_manager.o(.text) refers to rt_memclr_w.o(.text) for __aeabi_memclr4
    resource_manager.o(.text) refers to mem.o(.text) for tk_free
    resource_manager.o(.text) refers to array.o(.text) for array_init
    resource_manager.o(.text) refers to strcmpv7m.o(.text) for strcmp
    resource_manager.o(.text) refers to resource_manager.o(.data) for s_resource_manager
    layout.o(.text) refers to rt_memclr_w.o(.text) for __aeabi_memclr4
    layout.o(.text) refers to atoi.o(.text) for atoi
    layout.o(.text) refers to strstr.o(.text) for strstr
    layout.o(.text) refers to strchr.o(.text) for strchr
    layout.o(.text) refers to mem.o(.text) for tk_calloc
    layout.o(.text) refers to rt_memcpy_w.o(.text) for __aeabi_memcpy4
    layout.o(.text) refers to widget.o(.text) for widget_move_resize
    event_queue.o(.text) refers to mem.o(.text) for tk_alloc
    event_queue.o(.text) refers to rt_memclr_w.o(.text) for __aeabi_memclr4
    event_queue.o(.text) refers to rt_memcpy_w.o(.text) for __aeabi_memcpy4
    slider.o(.text) refers to fflt_clz.o(x$fpl$ffltu) for __aeabi_ui2f
    slider.o(.text) refers to fdiv.o(x$fpl$fdiv) for __aeabi_fdiv
    slider.o(.text) refers to faddsub_clz.o(x$fpl$fsub) for __aeabi_fsub
    slider.o(.text) refers to fflt_clz.o(x$fpl$fflt) for __aeabi_i2f
    slider.o(.text) refers to fmul.o(x$fpl$fmul) for __aeabi_fmul
    slider.o(.text) refers to ffix.o(x$fpl$ffix) for __aeabi_f2iz
    slider.o(.text) refers to color.o(.text) for color_init
    slider.o(.text) refers to faddsub_clz.o(x$fpl$fadd) for __aeabi_fadd
    slider.o(.text) refers to theme.o(.text) for style_get_color
    slider.o(.text) refers to canvas.o(.text) for canvas_set_fill_color
    slider.o(.text) refers to image_manager.o(.text) for image_manager
    slider.o(.text) refers to widget.o(.text) for widget_invalidate
    slider.o(.text) refers to rect.o(.text) for rect_contains
    slider.o(.text) refers to faddsub_clz.o(x$fpl$frsb) for __aeabi_frsub
    slider.o(.text) refers to fleqf.o(x$fpl$fleqf) for __aeabi_cfcmple
    slider.o(.text) refers to frleqf.o(x$fpl$frleqf) for __aeabi_cfrcmple
    slider.o(.text) refers to ffixu.o(x$fpl$ffixu) for __aeabi_f2uiz
    slider.o(.text) refers to strcmpv7m.o(.text) for strcmp
    slider.o(.text) refers to value.o(.text) for value_set_int
    slider.o(.text) refers to mem.o(.text) for tk_calloc
    slider.o(.text) refers to slider.o(.constdata) for s_slider_vtable
    slider.o(.constdata) refers to slider.o(.text) for slider_get_prop
    slider.o(.constdata) refers to widget_vtable.o(.text) for widget_on_paint_background_null
    window_animator.o(.text) refers to fflt_clz.o(x$fpl$ffltu) for __aeabi_ui2f
    window_animator.o(.text) refers to fdiv.o(x$fpl$fdiv) for __aeabi_fdiv
    window_animator.o(.text) refers to frleqf.o(x$fpl$frleqf) for __aeabi_cfrcmple
    window_animator.o(.text) refers to canvas.o(.text) for canvas_begin_frame
    idle.o(.text) refers to array.o(.text) for array_init
    idle.o(.text) refers to mem.o(.text) for tk_calloc
    idle.o(.text) refers to main_loop.o(.text) for main_loop
    idle.o(.text) refers to idle.o(.data) for s_idle_manager
    time.o(.text) refers to platform.o(.text) for get_time_ms
    system_info.o(.text) refers to system_info.o(.bss) for info
    tk.o(.text) refers to font_bitmap.o(.text) for font_bitmap_create
    tk.o(.text) refers to font_manager.o(.text) for font_manager
    tk.o(.text) refers to resource_manager.o(.text) for resource_manager
    tk.o(.text) refers to theme.o(.text) for theme_init
    tk.o(.text) refers to platform.o(.text) for platform_prepare
    tk.o(.text) refers to timer.o(.text) for timer_init
    tk.o(.text) refers to idle.o(.text) for idle_manager_create
    tk.o(.text) refers to locale.o(.text) for locale_create
    tk.o(.text) refers to image_manager.o(.text) for image_manager_create
    tk.o(.text) refers to window_manager.o(.text) for window_manager_create
    tk.o(.text) refers to main_loop_stm32_raw.o(.text) for main_loop_init
    tk.o(.text) refers to widget.o(.text) for widget_destroy
    tk.o(.text) refers to main_loop.o(.text) for main_loop
    tk.o(.text) refers to time.o(.text) for time_now_ms
    locale.o(.text) refers to _printf_percent.o(.ARM.Collect$$_printf_percent$$00000000) for _printf_percent
    locale.o(.text) refers to _printf_s.o(.ARM.Collect$$_printf_percent$$00000014) for _printf_s
    locale.o(.text) refers to _printf_str.o(.text) for _printf_str
    locale.o(.text) refers to strcmpv7m.o(.text) for strcmp
    locale.o(.text) refers to strncpy.o(.text) for strncpy
    locale.o(.text) refers to resource_manager.o(.text) for resource_manager
    locale.o(.text) refers to noretval__2snprintf.o(.text) for __2snprintf
    locale.o(.text) refers to emitter.o(.text) for emitter_dispatch
    locale.o(.text) refers to mem.o(.text) for tk_calloc
    locale.o(.text) refers to rt_memclr_w.o(.text) for __aeabi_memclr4
    locale.o(.text) refers to locale.o(.data) for s_locale
    locale.o(.text) refers to locale.o(.constdata) for .constdata
    str.o(.text) refers to mem.o(.text) for tk_realloc
    str.o(.text) refers to strlen.o(.text) for strlen
    str.o(.text) refers to strncpy.o(.text) for strncpy
    str.o(.text) refers to strcpy.o(.text) for strcpy
    str.o(.text) refers to strcmpv7m.o(.text) for strcmp
    str.o(.text) refers to utils.o(.text) for tk_itoa
    str.o(.text) refers to value.o(.text) for value_str
    str.o(.text) refers to strncmp.o(.text) for strncmp
    str.o(.text) refers to strchr.o(.text) for strchr
    str.o(.text) refers to strstr.o(.text) for strstr
    str.o(.text) refers to rt_memcpy_v6.o(.text) for __aeabi_memcpy
    str.o(.text) refers to tolower.o(.text) for tolower
    str.o(.text) refers to toupper.o(.text) for toupper
    main_loop_simple.o(.text) refers to mutex.o(.text) for tk_mutex_lock
    main_loop_simple.o(.text) refers to event_queue.o(.text) for event_queue_send
    main_loop_simple.o(.text) refers to rt_memcpy_w.o(.text) for __aeabi_memcpy4
    main_loop_simple.o(.text) refers to main_loop.o(.text) for main_loop_queue_event
    main_loop_simple.o(.text) refers to window_manager.o(.text) for window_manager_dispatch_input_event
    main_loop_simple.o(.text) refers to idle.o(.text) for idle_add
    main_loop_simple.o(.text) refers to timer.o(.text) for timer_add
    main_loop_simple.o(.text) refers to rt_memclr_w.o(.text) for __aeabi_memclr4
    main_loop_simple.o(.text) refers to main_loop_simple.o(.bss) for s_main_loop_simple
    mutex.o(.text) refers to mutex.o(.data) for s_tk_mutex_null
    lcd_stm32_raw.o(.text) refers to lcd_driver.o(.text) for TFT_SetWindow
    lcd_stm32_raw.o(.text) refers to mem.o(.text) for tk_free
    lcd_stm32_raw.o(.text) refers to system_info.o(.text) for system_info
    main_loop_stm32_raw.o(.text) refers to lcd_stm32_raw.o(.text) for lcd_reg_create
    main_loop_stm32_raw.o(.text) refers to stm32f10x_tim.o(.text) for TIM_GetITStatus
    main_loop_stm32_raw.o(.text) refers to touch.o(.text) for TOUCH_Scan
    main_loop_stm32_raw.o(.text) refers to main_loop.o(.text) for main_loop
    main_loop_stm32_raw.o(.text) refers to main_loop_simple.o(.text) for main_loop_post_pointer_event
    main_loop_stm32_raw.o(.text) refers to font_manager.o(.text) for font_manager
    main_loop_stm32_raw.o(.text) refers to canvas.o(.text) for canvas_init
    main_loop_stm32_raw.o(.text) refers to touch.o(.data) for TouchData
    platform.o(.text) refers to misc.o(.text) for SysTick_CLKSourceConfig
    platform.o(.text) refers to mem.o(.text) for tk_mem_init
    platform.o(.text) refers to system_stm32f10x.o(.data) for SystemCoreClock
    platform.o(.text) refers to platform.o(.data) for g_sys_tick
    platform.o(.text) refers to platform.o(.bss) for s_heam_mem
    demo_main.o(.text) refers to tk.o(.text) for tk_init
    demo_main.o(.text) refers to resource-mini.o(.text) for resource_init
    demo_main.o(.text) refers to demo1_app.o(.text) for application_init
    demo1_app.o(.text) refers to progress_bar.o(.text) for progress_bar_set_value
    demo1_app.o(.text) refers to dialog.o(.text) for dialog_quit
    demo1_app.o(.text) refers to mem.o(.text) for tk_mem_info_dump
    demo1_app.o(.text) refers to window.o(.text) for window_close
    demo1_app.o(.text) refers to widget.o(.text) for widget_set_text
    demo1_app.o(.text) refers to button_1.o(.text) for button_create
    demo1_app.o(.text) refers to label.o(.text) for label_create
    demo1_app.o(.text) refers to image.o(.text) for image_create
    demo1_app.o(.text) refers to timer.o(.text) for timer_add
    demo1_app.o(.text) refers to slider.o(.text) for slider_create
    demo1_app.o(.text) refers to check_button.o(.text) for check_button_create
    demo1_app.o(.text) refers to group_box.o(.text) for group_box_create
    resource-mini.o(.text) refers to resource_manager.o(.text) for resource_manager
    resource-mini.o(.text) refers to tk.o(.text) for tk_init_resources
    resource-mini.o(.text) refers to resource-mini.o(.constdata) for font_default
    use_no_semi_2.o(.text) refers (Special) to use_no_semi.o(.text) for __use_no_semihosting_swi
    tolower.o(.text) refers to rt_ctype_table.o(.text) for __rt_ctype_table
    toupper.o(.text) refers to rt_ctype_table.o(.text) for __rt_ctype_table
    __2printf.o(.text) refers to _printf_char_file.o(.text) for _printf_char_file
    __2printf.o(.text) refers to usart.o(.data) for __stdout
    __2snprintf.o(.text) refers to _printf_char_common.o(.text) for _printf_char_common
    __2snprintf.o(.text) refers to _sputc.o(.text) for _sputc
    __2snprintf.o(.text) refers to _snputc.o(.text) for _snputc
    noretval__2printf.o(.text) refers to _printf_char_file.o(.text) for _printf_char_file
    noretval__2printf.o(.text) refers to usart.o(.data) for __stdout
    noretval__2snprintf.o(.text) refers to _printf_char_common.o(.text) for _printf_char_common
    noretval__2snprintf.o(.text) refers to _sputc.o(.text) for _sputc
    noretval__2snprintf.o(.text) refers to _snputc.o(.text) for _snputc
    __printf.o(.text) refers to _printf_percent.o(.ARM.Collect$$_printf_percent$$00000000) for _printf_percent
    _printf_str.o(.text) refers (Special) to _printf_char.o(.text) for _printf_cs_common
    _printf_dec.o(.text) refers to _printf_intcommon.o(.text) for _printf_int_common
    __printf_flags.o(.text) refers to _printf_percent.o(.ARM.Collect$$_printf_percent$$00000000) for _printf_percent
    __printf_flags.o(.text) refers to __printf_flags.o(.constdata) for .constdata
    __printf_ss.o(.text) refers to _printf_percent.o(.ARM.Collect$$_printf_percent$$00000000) for _printf_percent
    __printf_flags_ss.o(.text) refers to _printf_percent.o(.ARM.Collect$$_printf_percent$$00000000) for _printf_percent
    __printf_flags_ss.o(.text) refers to __printf_flags_ss.o(.constdata) for .constdata
    __printf_wp.o(.text) refers to __printf_wp.o(i._is_digit) for _is_digit
    __printf_wp.o(.text) refers to _printf_percent.o(.ARM.Collect$$_printf_percent$$00000000) for _printf_percent
    __printf_flags_wp.o(.text) refers to __printf_wp.o(i._is_digit) for _is_digit
    __printf_flags_wp.o(.text) refers to _printf_percent.o(.ARM.Collect$$_printf_percent$$00000000) for _printf_percent
    __printf_flags_wp.o(.text) refers to __printf_flags_wp.o(.constdata) for .constdata
    __printf_ss_wp.o(.text) refers to __printf_wp.o(i._is_digit) for _is_digit
    __printf_ss_wp.o(.text) refers to _printf_percent.o(.ARM.Collect$$_printf_percent$$00000000) for _printf_percent
    __printf_flags_ss_wp.o(.text) refers to __printf_wp.o(i._is_digit) for _is_digit
    __printf_flags_ss_wp.o(.text) refers to _printf_percent.o(.ARM.Collect$$_printf_percent$$00000000) for _printf_percent
    __printf_flags_ss_wp.o(.text) refers to __printf_flags_ss_wp.o(.constdata) for .constdata
    _printf_s.o(.ARM.Collect$$_printf_percent$$00000014) refers (Weak) to _printf_char.o(.text) for _printf_string
    _printf_d.o(.ARM.Collect$$_printf_percent$$00000009) refers (Weak) to _printf_dec.o(.text) for _printf_int_dec
    _printf_percent.o(.ARM.Collect$$_printf_percent$$00000000) refers (Special) to _printf_percent_end.o(.ARM.Collect$$_printf_percent$$00000017) for _printf_percent_end
    atoi.o(.text) refers to rt_errno_addr_intlibspace.o(.text) for __aeabi_errno_addr
    atoi.o(.text) refers to strtol.o(.text) for strtol
    rt_memcpy_v6.o(.text) refers to rt_memcpy_w.o(.text) for __aeabi_memcpy4
    rt_memmove_v6.o(.text) refers to rt_memcpy_v6.o(.text) for __aeabi_memcpy
    rt_memmove_v6.o(.text) refers to rt_memmove_w.o(.text) for __memmove_aligned
    rt_memclr.o(.text) refers to rt_memclr_w.o(.text) for _memset_w
    strncpy.o(.text) refers to rt_memclr.o(.text) for __aeabi_memclr
    __main.o(!!!main) refers to __rtentry.o(.ARM.Collect$$rtentry$$00000000) for __rt_entry
    d2f.o(x$fpl$d2f) refers (Special) to usenofp.o(x$fpl$usenofp) for __I$use$fp
    d2f.o(x$fpl$d2f) refers to fretinf.o(x$fpl$fretinf) for __fpl_fretinf
    d2f.o(x$fpl$d2f) refers to dnaninf.o(x$fpl$dnaninf) for __fpl_dnaninf
    daddsub_clz.o(x$fpl$dadd) refers (Special) to usenofp.o(x$fpl$usenofp) for __I$use$fp
    daddsub_clz.o(x$fpl$dadd) refers to daddsub_clz.o(x$fpl$dsub) for _dsub1
    daddsub_clz.o(x$fpl$dadd) refers to dretinf.o(x$fpl$dretinf) for __fpl_dretinf
    daddsub_clz.o(x$fpl$dadd) refers to dnaninf.o(x$fpl$dnaninf) for __fpl_dnaninf
    daddsub_clz.o(x$fpl$drsb) refers (Special) to usenofp.o(x$fpl$usenofp) for __I$use$fp
    daddsub_clz.o(x$fpl$drsb) refers to daddsub_clz.o(x$fpl$dadd) for _dadd1
    daddsub_clz.o(x$fpl$drsb) refers to daddsub_clz.o(x$fpl$dsub) for _dsub1
    daddsub_clz.o(x$fpl$dsub) refers (Special) to usenofp.o(x$fpl$usenofp) for __I$use$fp
    daddsub_clz.o(x$fpl$dsub) refers to daddsub_clz.o(x$fpl$dadd) for _dadd1
    daddsub_clz.o(x$fpl$dsub) refers to dnaninf.o(x$fpl$dnaninf) for __fpl_dnaninf
    ddiv.o(x$fpl$drdiv) refers (Special) to usenofp.o(x$fpl$usenofp) for __I$use$fp
    ddiv.o(x$fpl$drdiv) refers to ddiv.o(x$fpl$ddiv) for ddiv_entry
    ddiv.o(x$fpl$ddiv) refers (Special) to usenofp.o(x$fpl$usenofp) for __I$use$fp
    ddiv.o(x$fpl$ddiv) refers to dretinf.o(x$fpl$dretinf) for __fpl_dretinf
    ddiv.o(x$fpl$ddiv) refers to dnaninf.o(x$fpl$dnaninf) for __fpl_dnaninf
    deqf.o(x$fpl$deqf) refers (Special) to usenofp.o(x$fpl$usenofp) for __I$use$fp
    deqf.o(x$fpl$deqf) refers to dnaninf.o(x$fpl$dnaninf) for __fpl_dnaninf
    deqf.o(x$fpl$deqf) refers to dcmpi.o(x$fpl$dcmpinf) for __fpl_dcmp_Inf
    dfix.o(x$fpl$dfix) refers (Special) to usenofp.o(x$fpl$usenofp) for __I$use$fp
    dfix.o(x$fpl$dfix) refers to dnaninf.o(x$fpl$dnaninf) for __fpl_dnaninf
    dfix.o(x$fpl$dfixr) refers (Special) to usenofp.o(x$fpl$usenofp) for __I$use$fp
    dfix.o(x$fpl$dfixr) refers to dnaninf.o(x$fpl$dnaninf) for __fpl_dnaninf
    dfixu.o(x$fpl$dfixu) refers (Special) to usenofp.o(x$fpl$usenofp) for __I$use$fp
    dfixu.o(x$fpl$dfixu) refers to dnaninf.o(x$fpl$dnaninf) for __fpl_dnaninf
    dfixu.o(x$fpl$dfixur) refers (Special) to usenofp.o(x$fpl$usenofp) for __I$use$fp
    dfixu.o(x$fpl$dfixur) refers to dnaninf.o(x$fpl$dnaninf) for __fpl_dnaninf
    dflt_clz.o(x$fpl$dfltu) refers (Special) to usenofp.o(x$fpl$usenofp) for __I$use$fp
    dflt_clz.o(x$fpl$dflt) refers (Special) to usenofp.o(x$fpl$usenofp) for __I$use$fp
    dflt_clz.o(x$fpl$dfltn) refers (Special) to usenofp.o(x$fpl$usenofp) for __I$use$fp
    dleqf.o(x$fpl$dleqf) refers (Special) to usenofp.o(x$fpl$usenofp) for __I$use$fp
    dleqf.o(x$fpl$dleqf) refers to dnaninf.o(x$fpl$dnaninf) for __fpl_dnaninf
    dleqf.o(x$fpl$dleqf) refers to dcmpi.o(x$fpl$dcmpinf) for __fpl_dcmp_Inf
    dmul.o(x$fpl$dmul) refers (Special) to usenofp.o(x$fpl$usenofp) for __I$use$fp
    dmul.o(x$fpl$dmul) refers to dretinf.o(x$fpl$dretinf) for __fpl_dretinf
    dmul.o(x$fpl$dmul) refers to dnaninf.o(x$fpl$dnaninf) for __fpl_dnaninf
    drleqf.o(x$fpl$drleqf) refers (Special) to usenofp.o(x$fpl$usenofp) for __I$use$fp
    drleqf.o(x$fpl$drleqf) refers to dleqf.o(x$fpl$dleqf) for __fpl_dcmple_InfNaN
    faddsub_clz.o(x$fpl$fadd) refers (Special) to usenofp.o(x$fpl$usenofp) for __I$use$fp
    faddsub_clz.o(x$fpl$fadd) refers to faddsub_clz.o(x$fpl$fsub) for _fsub1
    faddsub_clz.o(x$fpl$fadd) refers to fretinf.o(x$fpl$fretinf) for __fpl_fretinf
    faddsub_clz.o(x$fpl$fadd) refers to fnaninf.o(x$fpl$fnaninf) for __fpl_fnaninf
    faddsub_clz.o(x$fpl$frsb) refers (Special) to usenofp.o(x$fpl$usenofp) for __I$use$fp
    faddsub_clz.o(x$fpl$frsb) refers to faddsub_clz.o(x$fpl$fadd) for _fadd1
    faddsub_clz.o(x$fpl$frsb) refers to faddsub_clz.o(x$fpl$fsub) for _fsub1
    faddsub_clz.o(x$fpl$fsub) refers (Special) to usenofp.o(x$fpl$usenofp) for __I$use$fp
    faddsub_clz.o(x$fpl$fsub) refers to faddsub_clz.o(x$fpl$fadd) for _fadd1
    faddsub_clz.o(x$fpl$fsub) refers to fnaninf.o(x$fpl$fnaninf) for __fpl_fnaninf
    fdiv.o(x$fpl$frdiv) refers (Special) to usenofp.o(x$fpl$usenofp) for __I$use$fp
    fdiv.o(x$fpl$frdiv) refers to fdiv.o(x$fpl$fdiv) for _fdiv1
    fdiv.o(x$fpl$fdiv) refers (Special) to usenofp.o(x$fpl$usenofp) for __I$use$fp
    fdiv.o(x$fpl$fdiv) refers to fretinf.o(x$fpl$fretinf) for __fpl_fretinf
    fdiv.o(x$fpl$fdiv) refers to fnaninf.o(x$fpl$fnaninf) for __fpl_fnaninf
    feqf.o(x$fpl$feqf) refers (Special) to usenofp.o(x$fpl$usenofp) for __I$use$fp
    feqf.o(x$fpl$feqf) refers to fnaninf.o(x$fpl$fnaninf) for __fpl_fnaninf
    feqf.o(x$fpl$feqf) refers to fcmpi.o(x$fpl$fcmpinf) for __fpl_fcmp_Inf
    ffix.o(x$fpl$ffix) refers (Special) to usenofp.o(x$fpl$usenofp) for __I$use$fp
    ffix.o(x$fpl$ffix) refers to fnaninf.o(x$fpl$fnaninf) for __fpl_fnaninf
    ffix.o(x$fpl$ffixr) refers (Special) to usenofp.o(x$fpl$usenofp) for __I$use$fp
    ffix.o(x$fpl$ffixr) refers to fnaninf.o(x$fpl$fnaninf) for __fpl_fnaninf
    ffixu.o(x$fpl$ffixu) refers (Special) to usenofp.o(x$fpl$usenofp) for __I$use$fp
    ffixu.o(x$fpl$ffixu) refers to fnaninf.o(x$fpl$fnaninf) for __fpl_fnaninf
    ffixu.o(x$fpl$ffixur) refers (Special) to usenofp.o(x$fpl$usenofp) for __I$use$fp
    ffixu.o(x$fpl$ffixur) refers to fnaninf.o(x$fpl$fnaninf) for __fpl_fnaninf
    fflt_clz.o(x$fpl$ffltu) refers (Special) to usenofp.o(x$fpl$usenofp) for __I$use$fp
    fflt_clz.o(x$fpl$fflt) refers (Special) to usenofp.o(x$fpl$usenofp) for __I$use$fp
    fflt_clz.o(x$fpl$ffltn) refers (Special) to usenofp.o(x$fpl$usenofp) for __I$use$fp
    ffltll_clz.o(x$fpl$ffltll) refers (Special) to usenofp.o(x$fpl$usenofp) for __I$use$fp
    fleqf.o(x$fpl$fleqf) refers (Special) to usenofp.o(x$fpl$usenofp) for __I$use$fp
    fleqf.o(x$fpl$fleqf) refers to fnaninf.o(x$fpl$fnaninf) for __fpl_fnaninf
    fleqf.o(x$fpl$fleqf) refers to fcmpi.o(x$fpl$fcmpinf) for __fpl_fcmp_Inf
    fmul.o(x$fpl$fmul) refers (Special) to usenofp.o(x$fpl$usenofp) for __I$use$fp
    fmul.o(x$fpl$fmul) refers to fretinf.o(x$fpl$fretinf) for __fpl_fretinf
    fmul.o(x$fpl$fmul) refers to fnaninf.o(x$fpl$fnaninf) for __fpl_fnaninf
    frleqf.o(x$fpl$frleqf) refers (Special) to usenofp.o(x$fpl$usenofp) for __I$use$fp
    frleqf.o(x$fpl$frleqf) refers to fleqf.o(x$fpl$fleqf) for __fpl_fcmple_InfNaN
    __rtentry.o(.ARM.Collect$$rtentry$$00000000) refers (Special) to __rtentry2.o(.ARM.Collect$$rtentry$$0000000A) for __rt_entry_li
    __rtentry.o(.ARM.Collect$$rtentry$$00000000) refers (Special) to __rtentry2.o(.ARM.Collect$$rtentry$$0000000D) for __rt_entry_main
    __rtentry.o(.ARM.Collect$$rtentry$$00000000) refers (Special) to __rtentry2.o(.ARM.Collect$$rtentry$$0000000C) for __rt_entry_postli_1
    __rtentry.o(.ARM.Collect$$rtentry$$00000000) refers (Special) to __rtentry2.o(.ARM.Collect$$rtentry$$00000009) for __rt_entry_postsh_1
    __rtentry.o(.ARM.Collect$$rtentry$$00000000) refers (Special) to __rtentry2.o(.ARM.Collect$$rtentry$$00000002) for __rt_entry_presh_1
    __rtentry.o(.ARM.Collect$$rtentry$$00000000) refers (Special) to __rtentry4.o(.ARM.Collect$$rtentry$$00000004) for __rt_entry_sh
    rt_ctype_table.o(.text) refers to rt_locale_intlibspace.o(.text) for __rt_locale
    rt_ctype_table.o(.text) refers to lc_ctype_c.o(locale$$code) for _get_lc_ctype
    rt_errno_addr.o(.text) refers to rt_errno_addr.o(.bss) for __aeabi_errno_addr_data
    rt_errno_addr_intlibspace.o(.text) refers to libspace.o(.bss) for __libspace_start
    _printf_char_common.o(.text) refers to __printf.o(.text) for __printf
    _printf_char.o(.text) refers (Weak) to _printf_str.o(.text) for _printf_str
    _printf_char_file.o(.text) refers to _printf_char_common.o(.text) for _printf_char_common
    _printf_char_file.o(.text) refers to ferror.o(.text) for ferror
    _printf_char_file.o(.text) refers to usart.o(.text) for fputc
    strtol.o(.text) refers to rt_ctype_table.o(.text) for __rt_ctype_table
    strtol.o(.text) refers to _strtoul.o(.text) for _strtoul
    strtol.o(.text) refers to rt_errno_addr_intlibspace.o(.text) for __aeabi_errno_addr
    rt_memmove_w.o(.text) refers to rt_memcpy_w.o(.text) for __aeabi_memcpy4
    dcmpi.o(x$fpl$dcmpinf) refers (Special) to usenofp.o(x$fpl$usenofp) for __I$use$fp
    dnaninf.o(x$fpl$dnaninf) refers (Special) to usenofp.o(x$fpl$usenofp) for __I$use$fp
    dretinf.o(x$fpl$dretinf) refers (Special) to usenofp.o(x$fpl$usenofp) for __I$use$fp
    fcmpi.o(x$fpl$fcmpinf) refers (Special) to usenofp.o(x$fpl$usenofp) for __I$use$fp
    fnaninf.o(x$fpl$fnaninf) refers (Special) to usenofp.o(x$fpl$usenofp) for __I$use$fp
    fretinf.o(x$fpl$fretinf) refers (Special) to usenofp.o(x$fpl$usenofp) for __I$use$fp
    libspace.o(.text) refers to libspace.o(.bss) for __libspace_start
    __rtentry2.o(.ARM.Collect$$rtentry$$00000008) refers to boardinit2.o(.text) for _platform_post_stackheap_init
    __rtentry2.o(.ARM.Collect$$rtentry$$0000000A) refers to libinit.o(.ARM.Collect$$libinit$$00000000) for __rt_lib_init
    __rtentry2.o(.ARM.Collect$$rtentry$$0000000B) refers to boardinit3.o(.text) for _platform_post_lib_init
    __rtentry2.o(.ARM.Collect$$rtentry$$0000000D) refers to main.o(.text) for main
    __rtentry2.o(.ARM.Collect$$rtentry$$0000000D) refers to exit.o(.text) for exit
    __rtentry2.o(.ARM.exidx) refers to __rtentry2.o(.ARM.Collect$$rtentry$$00000001) for .ARM.Collect$$rtentry$$00000001
    __rtentry2.o(.ARM.exidx) refers to __rtentry2.o(.ARM.Collect$$rtentry$$00000008) for .ARM.Collect$$rtentry$$00000008
    __rtentry2.o(.ARM.exidx) refers to __rtentry2.o(.ARM.Collect$$rtentry$$0000000A) for .ARM.Collect$$rtentry$$0000000A
    __rtentry2.o(.ARM.exidx) refers to __rtentry2.o(.ARM.Collect$$rtentry$$0000000B) for .ARM.Collect$$rtentry$$0000000B
    __rtentry2.o(.ARM.exidx) refers to __rtentry2.o(.ARM.Collect$$rtentry$$0000000D) for .ARM.Collect$$rtentry$$0000000D
    __rtentry4.o(.ARM.Collect$$rtentry$$00000004) refers to sys_stackheap_outer.o(.text) for __user_setup_stackheap
    __rtentry4.o(.ARM.exidx) refers to __rtentry4.o(.ARM.Collect$$rtentry$$00000004) for .ARM.Collect$$rtentry$$00000004
    rt_locale.o(.text) refers to rt_locale.o(.bss) for __rt_locale_data
    rt_locale_intlibspace.o(.text) refers to libspace.o(.bss) for __libspace_start
    _strtoul.o(.text) refers to _chval.o(.text) for _chval
    _strtoul.o(.text) refers to rt_errno_addr_intlibspace.o(.text) for __aeabi_errno_addr
    lc_ctype_c.o(locale$$data) refers (Special) to libinit2.o(.ARM.Collect$$libinit$$00000012) for __rt_lib_init_lc_ctype_2
    lc_ctype_c.o(locale$$code) refers (Special) to libinit2.o(.ARM.Collect$$libinit$$00000012) for __rt_lib_init_lc_ctype_2
    lc_ctype_c.o(locale$$code) refers to strcmpv7m.o(.text) for strcmp
    lc_ctype_c.o(locale$$code) refers to lc_ctype_c.o(locale$$data) for __lcctype_c_name
    sys_stackheap_outer.o(.text) refers to libspace.o(.text) for __user_perproc_libspace
    sys_stackheap_outer.o(.text) refers to startup_stm32f10x_hd.o(.text) for __user_initial_stackheap
    exit.o(.text) refers to rtexit.o(.ARM.Collect$$rtexit$$00000000) for __rt_exit
    libinit.o(.ARM.Collect$$libinit$$00000000) refers (Special) to libinit2.o(.ARM.Collect$$libinit$$0000002E) for __rt_lib_init_alloca_1
    libinit.o(.ARM.Collect$$libinit$$00000000) refers (Special) to libinit2.o(.ARM.Collect$$libinit$$0000002C) for __rt_lib_init_argv_1
    libinit.o(.ARM.Collect$$libinit$$00000000) refers (Special) to libinit2.o(.ARM.Collect$$libinit$$0000001B) for __rt_lib_init_atexit_1
    libinit.o(.ARM.Collect$$libinit$$00000000) refers (Special) to libinit2.o(.ARM.Collect$$libinit$$00000021) for __rt_lib_init_clock_1
    libinit.o(.ARM.Collect$$libinit$$00000000) refers (Special) to libinit2.o(.ARM.Collect$$libinit$$00000032) for __rt_lib_init_cpp_1
    libinit.o(.ARM.Collect$$libinit$$00000000) refers (Special) to libinit2.o(.ARM.Collect$$libinit$$00000030) for __rt_lib_init_exceptions_1
    libinit.o(.ARM.Collect$$libinit$$00000000) refers (Special) to libinit2.o(.ARM.Collect$$libinit$$00000002) for __rt_lib_init_fp_1
    libinit.o(.ARM.Collect$$libinit$$00000000) refers (Special) to libinit2.o(.ARM.Collect$$libinit$$0000001F) for __rt_lib_init_fp_trap_1
    libinit.o(.ARM.Collect$$libinit$$00000000) refers (Special) to libinit2.o(.ARM.Collect$$libinit$$00000023) for __rt_lib_init_getenv_1
    libinit.o(.ARM.Collect$$libinit$$00000000) refers (Special) to libinit2.o(.ARM.Collect$$libinit$$0000000A) for __rt_lib_init_heap_1
    libinit.o(.ARM.Collect$$libinit$$00000000) refers (Special) to libinit2.o(.ARM.Collect$$libinit$$00000011) for __rt_lib_init_lc_collate_1
    libinit.o(.ARM.Collect$$libinit$$00000000) refers (Special) to libinit2.o(.ARM.Collect$$libinit$$00000013) for __rt_lib_init_lc_ctype_1
    libinit.o(.ARM.Collect$$libinit$$00000000) refers (Special) to libinit2.o(.ARM.Collect$$libinit$$00000015) for __rt_lib_init_lc_monetary_1
    libinit.o(.ARM.Collect$$libinit$$00000000) refers (Special) to libinit2.o(.ARM.Collect$$libinit$$00000017) for __rt_lib_init_lc_numeric_1
    libinit.o(.ARM.Collect$$libinit$$00000000) refers (Special) to libinit2.o(.ARM.Collect$$libinit$$00000019) for __rt_lib_init_lc_time_1
    libinit.o(.ARM.Collect$$libinit$$00000000) refers (Special) to libinit2.o(.ARM.Collect$$libinit$$00000004) for __rt_lib_init_preinit_1
    libinit.o(.ARM.Collect$$libinit$$00000000) refers (Special) to libinit2.o(.ARM.Collect$$libinit$$0000000E) for __rt_lib_init_rand_1
    libinit.o(.ARM.Collect$$libinit$$00000000) refers (Special) to libinit2.o(.ARM.Collect$$libinit$$00000033) for __rt_lib_init_return
    libinit.o(.ARM.Collect$$libinit$$00000000) refers (Special) to libinit2.o(.ARM.Collect$$libinit$$0000001D) for __rt_lib_init_signal_1
    libinit.o(.ARM.Collect$$libinit$$00000000) refers (Special) to libinit2.o(.ARM.Collect$$libinit$$00000025) for __rt_lib_init_stdio_1
    libinit.o(.ARM.Collect$$libinit$$00000000) refers (Special) to libinit2.o(.ARM.Collect$$libinit$$0000000C) for __rt_lib_init_user_alloc_1
    libinit2.o(.ARM.Collect$$libinit$$0000000F) refers (Weak) to rt_locale_intlibspace.o(.text) for __rt_locale
    libinit2.o(.ARM.Collect$$libinit$$00000010) refers to libinit2.o(.ARM.Collect$$libinit$$0000000F) for .ARM.Collect$$libinit$$0000000F
    libinit2.o(.ARM.Collect$$libinit$$00000012) refers to libinit2.o(.ARM.Collect$$libinit$$0000000F) for .ARM.Collect$$libinit$$0000000F
    libinit2.o(.ARM.Collect$$libinit$$00000012) refers (Weak) to lc_ctype_c.o(locale$$code) for _get_lc_ctype
    libinit2.o(.ARM.Collect$$libinit$$00000014) refers to libinit2.o(.ARM.Collect$$libinit$$0000000F) for .ARM.Collect$$libinit$$0000000F
    libinit2.o(.ARM.Collect$$libinit$$00000016) refers to libinit2.o(.ARM.Collect$$libinit$$0000000F) for .ARM.Collect$$libinit$$0000000F
    libinit2.o(.ARM.Collect$$libinit$$00000018) refers to libinit2.o(.ARM.Collect$$libinit$$0000000F) for .ARM.Collect$$libinit$$0000000F
    libinit2.o(.ARM.Collect$$libinit$$00000026) refers to argv_veneer.o(.emb_text) for __ARM_argv_veneer
    libinit2.o(.ARM.Collect$$libinit$$00000027) refers to argv_veneer.o(.emb_text) for __ARM_argv_veneer
    rtexit.o(.ARM.Collect$$rtexit$$00000000) refers (Special) to rtexit2.o(.ARM.Collect$$rtexit$$00000004) for __rt_exit_exit
    rtexit.o(.ARM.Collect$$rtexit$$00000000) refers (Special) to rtexit2.o(.ARM.Collect$$rtexit$$00000003) for __rt_exit_ls
    rtexit.o(.ARM.Collect$$rtexit$$00000000) refers (Special) to rtexit2.o(.ARM.Collect$$rtexit$$00000002) for __rt_exit_prels_1
    rtexit.o(.ARM.exidx) refers (Special) to rtexit2.o(.ARM.Collect$$rtexit$$00000004) for __rt_exit_exit
    rtexit.o(.ARM.exidx) refers (Special) to rtexit2.o(.ARM.Collect$$rtexit$$00000003) for __rt_exit_ls
    rtexit.o(.ARM.exidx) refers (Special) to rtexit2.o(.ARM.Collect$$rtexit$$00000002) for __rt_exit_prels_1
    rtexit.o(.ARM.exidx) refers to rtexit.o(.ARM.Collect$$rtexit$$00000000) for .ARM.Collect$$rtexit$$00000000
    argv_veneer.o(.emb_text) refers to no_argv.o(.text) for __ARM_get_argv
    rtexit2.o(.ARM.Collect$$rtexit$$00000003) refers to libshutdown.o(.ARM.Collect$$libshutdown$$00000000) for __rt_lib_shutdown
    rtexit2.o(.ARM.Collect$$rtexit$$00000004) refers to usart.o(.text) for _sys_exit
    rtexit2.o(.ARM.exidx) refers to rtexit2.o(.ARM.Collect$$rtexit$$00000001) for .ARM.Collect$$rtexit$$00000001
    rtexit2.o(.ARM.exidx) refers to rtexit2.o(.ARM.Collect$$rtexit$$00000003) for .ARM.Collect$$rtexit$$00000003
    rtexit2.o(.ARM.exidx) refers to rtexit2.o(.ARM.Collect$$rtexit$$00000004) for .ARM.Collect$$rtexit$$00000004
    _get_argv_nomalloc.o(.text) refers (Special) to hrguard.o(.text) for __heap_region$guard
    _get_argv_nomalloc.o(.text) refers to defsig_rtmem_outer.o(.text) for __rt_SIGRTMEM
    _get_argv_nomalloc.o(.text) refers to sys_command.o(.text) for _sys_command_string
    sys_command.o(.text) refers (Special) to use_no_semi.o(.text) for __I$use$semihosting
    sys_command.o(.text) refers (Special) to indicate_semi.o(.text) for __semihosting_library_function
    defsig_rtmem_outer.o(.text) refers to defsig_rtmem_inner.o(.text) for __rt_SIGRTMEM_inner
    defsig_rtmem_outer.o(.text) refers to defsig_exit.o(.text) for __sig_exit
    defsig_rtmem_formal.o(.text) refers to rt_raise.o(.text) for __rt_raise
    libshutdown.o(.ARM.Collect$$libshutdown$$00000000) refers (Special) to libshutdown2.o(.ARM.Collect$$libshutdown$$00000002) for __rt_lib_shutdown_cpp_1
    libshutdown.o(.ARM.Collect$$libshutdown$$00000000) refers (Special) to libshutdown2.o(.ARM.Collect$$libshutdown$$00000007) for __rt_lib_shutdown_fp_trap_1
    libshutdown.o(.ARM.Collect$$libshutdown$$00000000) refers (Special) to libshutdown2.o(.ARM.Collect$$libshutdown$$0000000F) for __rt_lib_shutdown_heap_1
    libshutdown.o(.ARM.Collect$$libshutdown$$00000000) refers (Special) to libshutdown2.o(.ARM.Collect$$libshutdown$$00000010) for __rt_lib_shutdown_return
    libshutdown.o(.ARM.Collect$$libshutdown$$00000000) refers (Special) to libshutdown2.o(.ARM.Collect$$libshutdown$$0000000A) for __rt_lib_shutdown_signal_1
    libshutdown.o(.ARM.Collect$$libshutdown$$00000000) refers (Special) to libshutdown2.o(.ARM.Collect$$libshutdown$$00000004) for __rt_lib_shutdown_stdio_1
    libshutdown.o(.ARM.Collect$$libshutdown$$00000000) refers (Special) to libshutdown2.o(.ARM.Collect$$libshutdown$$0000000C) for __rt_lib_shutdown_user_alloc_1
    rt_raise.o(.text) refers to __raise.o(.text) for __raise
    rt_raise.o(.text) refers to usart.o(.text) for _sys_exit
    defsig_exit.o(.text) refers to usart.o(.text) for _sys_exit
    defsig_rtmem_inner.o(.text) refers to defsig_general.o(.text) for __default_signal_display
    __raise.o(.text) refers to defsig.o(CL$$defsig) for __default_signal_handler
    defsig_general.o(.text) refers to sys_wrch.o(.text) for _ttywrch
    sys_wrch.o(.text) refers (Special) to use_no_semi.o(.text) for __I$use$semihosting
    sys_wrch.o(.text) refers (Special) to indicate_semi.o(.text) for __semihosting_library_function
    defsig.o(CL$$defsig) refers to defsig_rtmem_inner.o(.text) for __rt_SIGRTMEM_inner
    defsig_abrt_inner.o(.text) refers to defsig_general.o(.text) for __default_signal_display
    defsig_fpe_inner.o(.text) refers to defsig_general.o(.text) for __default_signal_display
    defsig_rtred_inner.o(.text) refers to defsig_general.o(.text) for __default_signal_display
    defsig_stak_inner.o(.text) refers to defsig_general.o(.text) for __default_signal_display
    defsig_pvfn_inner.o(.text) refers to defsig_general.o(.text) for __default_signal_display
    defsig_cppl_inner.o(.text) refers to defsig_general.o(.text) for __default_signal_display
    defsig_segv_inner.o(.text) refers to defsig_general.o(.text) for __default_signal_display
    defsig_other.o(.text) refers to defsig_general.o(.text) for __default_signal_display


==============================================================================

Removing Unused input sections from the image.

    Removing sys.o(.text), (12 bytes).
    Removing core_cm3.o(.emb_text), (32 bytes).
    Removing stm32f10x_exti.o(.text), (284 bytes).
    Removing stm32f10x_iwdg.o(.text), (64 bytes).
    Removing stm32f10x_wwdg.o(.text), (136 bytes).
    Removing stm32f10x_dma.o(.text), (596 bytes).
    Removing stm32f10x_flash.o(.text), (1468 bytes).
    Removing stm32f10x_sdio.o(.text), (468 bytes).
    Removing lcd_driver.o(.data), (2 bytes).
    Removing buffer.o(.text), (756 bytes).
    Removing events.o(.text), (88 bytes).

11 unused section(s) (total 3906 bytes) removed from the image.

==============================================================================

Image Symbol Table

    Local Symbols

    Symbol Name                              Value     Ov Type        Size  Object(Section)

    ../clib/angel/boardlib.s                 0x00000000   Number         0  boardinit1.o ABSOLUTE
    ../clib/angel/boardlib.s                 0x00000000   Number         0  boardinit2.o ABSOLUTE
    ../clib/angel/boardlib.s                 0x00000000   Number         0  boardinit3.o ABSOLUTE
    ../clib/angel/boardlib.s                 0x00000000   Number         0  boardshut.o ABSOLUTE
    ../clib/angel/handlers.s                 0x00000000   Number         0  __scatter_zi.o ABSOLUTE
    ../clib/angel/handlers.s                 0x00000000   Number         0  __scatter_copy.o ABSOLUTE
    ../clib/angel/kernel.s                   0x00000000   Number         0  rtexit.o ABSOLUTE
    ../clib/angel/kernel.s                   0x00000000   Number         0  __rtentry4.o ABSOLUTE
    ../clib/angel/kernel.s                   0x00000000   Number         0  __rtentry2.o ABSOLUTE
    ../clib/angel/kernel.s                   0x00000000   Number         0  __rtentry.o ABSOLUTE
    ../clib/angel/kernel.s                   0x00000000   Number         0  rtexit2.o ABSOLUTE
    ../clib/angel/rt.s                       0x00000000   Number         0  rt_ctype_table.o ABSOLUTE
    ../clib/angel/rt.s                       0x00000000   Number         0  rt_errno_addr.o ABSOLUTE
    ../clib/angel/rt.s                       0x00000000   Number         0  rt_errno_addr_intlibspace.o ABSOLUTE
    ../clib/angel/rt.s                       0x00000000   Number         0  rt_raise.o ABSOLUTE
    ../clib/angel/rt.s                       0x00000000   Number         0  rt_locale.o ABSOLUTE
    ../clib/angel/rt.s                       0x00000000   Number         0  rt_locale_intlibspace.o ABSOLUTE
    ../clib/angel/scatter.s                  0x00000000   Number         0  __scatter.o ABSOLUTE
    ../clib/angel/startup.s                  0x00000000   Number         0  __main.o ABSOLUTE
    ../clib/angel/sys.s                      0x00000000   Number         0  use_no_semi.o ABSOLUTE
    ../clib/angel/sys.s                      0x00000000   Number         0  use_no_semi_2.o ABSOLUTE
    ../clib/angel/sys.s                      0x00000000   Number         0  sys_stackheap_outer.o ABSOLUTE
    ../clib/angel/sys.s                      0x00000000   Number         0  libspace.o ABSOLUTE
    ../clib/angel/sys.s                      0x00000000   Number         0  indicate_semi.o ABSOLUTE
    ../clib/angel/sysapp.c                   0x00000000   Number         0  sys_command.o ABSOLUTE
    ../clib/angel/sysapp.c                   0x00000000   Number         0  sys_wrch.o ABSOLUTE
    ../clib/armsys.c                         0x00000000   Number         0  argv_veneer.o ABSOLUTE
    ../clib/armsys.c                         0x00000000   Number         0  _get_argv_nomalloc.o ABSOLUTE
    ../clib/armsys.c                         0x00000000   Number         0  no_argv.o ABSOLUTE
    ../clib/armsys.c                         0x00000000   Number         0  argv_veneer.o ABSOLUTE
    ../clib/ctype.c                          0x00000000   Number         0  tolower.o ABSOLUTE
    ../clib/ctype.c                          0x00000000   Number         0  toupper.o ABSOLUTE
    ../clib/heapalloc.c                      0x00000000   Number         0  hrguard.o ABSOLUTE
    ../clib/heapaux.c                        0x00000000   Number         0  heapauxi.o ABSOLUTE
    ../clib/libinit.s                        0x00000000   Number         0  libinit.o ABSOLUTE
    ../clib/libinit.s                        0x00000000   Number         0  libshutdown2.o ABSOLUTE
    ../clib/libinit.s                        0x00000000   Number         0  libinit2.o ABSOLUTE
    ../clib/libinit.s                        0x00000000   Number         0  libshutdown.o ABSOLUTE
    ../clib/locale.s                         0x00000000   Number         0  lc_ctype_c.o ABSOLUTE
    ../clib/memcpset.s                       0x00000000   Number         0  strncpy.o ABSOLUTE
    ../clib/memcpset.s                       0x00000000   Number         0  rt_memmove_v6.o ABSOLUTE
    ../clib/memcpset.s                       0x00000000   Number         0  rt_memcpy_v6.o ABSOLUTE
    ../clib/memcpset.s                       0x00000000   Number         0  rt_memclr_w.o ABSOLUTE
    ../clib/memcpset.s                       0x00000000   Number         0  rt_memcpy_w.o ABSOLUTE
    ../clib/memcpset.s                       0x00000000   Number         0  rt_memmove_w.o ABSOLUTE
    ../clib/memcpset.s                       0x00000000   Number         0  rt_memclr.o ABSOLUTE
    ../clib/memcpset.s                       0x00000000   Number         0  strcmpv7m.o ABSOLUTE
    ../clib/printf.c                         0x00000000   Number         0  _printf_intcommon.o ABSOLUTE
    ../clib/printf.c                         0x00000000   Number         0  __2printf.o ABSOLUTE
    ../clib/printf.c                         0x00000000   Number         0  _printf_char_common.o ABSOLUTE
    ../clib/printf.c                         0x00000000   Number         0  __printf_nopercent.o ABSOLUTE
    ../clib/printf.c                         0x00000000   Number         0  __printf_flags_wp.o ABSOLUTE
    ../clib/printf.c                         0x00000000   Number         0  _snputc.o ABSOLUTE
    ../clib/printf.c                         0x00000000   Number         0  __printf_flags.o ABSOLUTE
    ../clib/printf.c                         0x00000000   Number         0  __2snprintf.o ABSOLUTE
    ../clib/printf.c                         0x00000000   Number         0  __printf.o ABSOLUTE
    ../clib/printf.c                         0x00000000   Number         0  __printf_ss.o ABSOLUTE
    ../clib/printf.c                         0x00000000   Number         0  _printf_char_file.o ABSOLUTE
    ../clib/printf.c                         0x00000000   Number         0  __printf_flags_ss.o ABSOLUTE
    ../clib/printf.c                         0x00000000   Number         0  _printf_char.o ABSOLUTE
    ../clib/printf.c                         0x00000000   Number         0  __printf_wp.o ABSOLUTE
    ../clib/printf.c                         0x00000000   Number         0  noretval__2snprintf.o ABSOLUTE
    ../clib/printf.c                         0x00000000   Number         0  __printf_ss_wp.o ABSOLUTE
    ../clib/printf.c                         0x00000000   Number         0  __printf_flags_ss_wp.o ABSOLUTE
    ../clib/printf.c                         0x00000000   Number         0  _printf_dec.o ABSOLUTE
    ../clib/printf.c                         0x00000000   Number         0  _sputc.o ABSOLUTE
    ../clib/printf.c                         0x00000000   Number         0  noretval__2printf.o ABSOLUTE
    ../clib/printf.c                         0x00000000   Number         0  _printf_str.o ABSOLUTE
    ../clib/printf_percent.s                 0x00000000   Number         0  _printf_d.o ABSOLUTE
    ../clib/printf_percent.s                 0x00000000   Number         0  _printf_percent.o ABSOLUTE
    ../clib/printf_percent.s                 0x00000000   Number         0  _printf_s.o ABSOLUTE
    ../clib/printf_percent.s                 0x00000000   Number         0  _printf_percent_end.o ABSOLUTE
    ../clib/scanf.c                          0x00000000   Number         0  strtol.o ABSOLUTE
    ../clib/scanf.c                          0x00000000   Number         0  _strtoul.o ABSOLUTE
    ../clib/scanf.c                          0x00000000   Number         0  _chval.o ABSOLUTE
    ../clib/scanf.c                          0x00000000   Number         0  atoi.o ABSOLUTE
    ../clib/signal.c                         0x00000000   Number         0  defsig_other.o ABSOLUTE
    ../clib/signal.c                         0x00000000   Number         0  defsig_rtmem_outer.o ABSOLUTE
    ../clib/signal.c                         0x00000000   Number         0  defsig_rtmem_formal.o ABSOLUTE
    ../clib/signal.c                         0x00000000   Number         0  defsig_exit.o ABSOLUTE
    ../clib/signal.c                         0x00000000   Number         0  defsig_rtmem_inner.o ABSOLUTE
    ../clib/signal.c                         0x00000000   Number         0  __raise.o ABSOLUTE
    ../clib/signal.c                         0x00000000   Number         0  defsig_general.o ABSOLUTE
    ../clib/signal.c                         0x00000000   Number         0  defsig_abrt_inner.o ABSOLUTE
    ../clib/signal.c                         0x00000000   Number         0  defsig_fpe_inner.o ABSOLUTE
    ../clib/signal.c                         0x00000000   Number         0  defsig_rtred_inner.o ABSOLUTE
    ../clib/signal.c                         0x00000000   Number         0  defsig_stak_inner.o ABSOLUTE
    ../clib/signal.c                         0x00000000   Number         0  defsig_pvfn_inner.o ABSOLUTE
    ../clib/signal.c                         0x00000000   Number         0  defsig_cppl_inner.o ABSOLUTE
    ../clib/signal.c                         0x00000000   Number         0  defsig_segv_inner.o ABSOLUTE
    ../clib/signal.s                         0x00000000   Number         0  defsig.o ABSOLUTE
    ../clib/stdio.c                          0x00000000   Number         0  ferror.o ABSOLUTE
    ../clib/stdio.c                          0x00000000   Number         0  ferror_locked.o ABSOLUTE
    ../clib/stdlib.c                         0x00000000   Number         0  exit.o ABSOLUTE
    ../clib/string.c                         0x00000000   Number         0  strcpy.o ABSOLUTE
    ../clib/string.c                         0x00000000   Number         0  strstr.o ABSOLUTE
    ../clib/string.c                         0x00000000   Number         0  strchr.o ABSOLUTE
    ../clib/string.c                         0x00000000   Number         0  wcslen.o ABSOLUTE
    ../clib/string.c                         0x00000000   Number         0  strncmp.o ABSOLUTE
    ../clib/string.c                         0x00000000   Number         0  wcscpy.o ABSOLUTE
    ../clib/string.c                         0x00000000   Number         0  strlen.o ABSOLUTE
    ../fplib/d2f.s                           0x00000000   Number         0  d2f.o ABSOLUTE
    ../fplib/daddsub.s                       0x00000000   Number         0  daddsub_clz.o ABSOLUTE
    ../fplib/dcmpi.s                         0x00000000   Number         0  dcmpi.o ABSOLUTE
    ../fplib/ddiv.s                          0x00000000   Number         0  ddiv.o ABSOLUTE
    ../fplib/deqf.s                          0x00000000   Number         0  deqf.o ABSOLUTE
    ../fplib/dfix.s                          0x00000000   Number         0  dfix.o ABSOLUTE
    ../fplib/dfixu.s                         0x00000000   Number         0  dfixu.o ABSOLUTE
    ../fplib/dflt.s                          0x00000000   Number         0  dflt_clz.o ABSOLUTE
    ../fplib/dleqf.s                         0x00000000   Number         0  dleqf.o ABSOLUTE
    ../fplib/dmul.s                          0x00000000   Number         0  dmul.o ABSOLUTE
    ../fplib/dnaninf.s                       0x00000000   Number         0  dnaninf.o ABSOLUTE
    ../fplib/dretinf.s                       0x00000000   Number         0  dretinf.o ABSOLUTE
    ../fplib/drleqf.s                        0x00000000   Number         0  drleqf.o ABSOLUTE
    ../fplib/faddsub.s                       0x00000000   Number         0  faddsub_clz.o ABSOLUTE
    ../fplib/fcmpi.s                         0x00000000   Number         0  fcmpi.o ABSOLUTE
    ../fplib/fdiv.s                          0x00000000   Number         0  fdiv.o ABSOLUTE
    ../fplib/feqf.s                          0x00000000   Number         0  feqf.o ABSOLUTE
    ../fplib/ffix.s                          0x00000000   Number         0  ffix.o ABSOLUTE
    ../fplib/ffixu.s                         0x00000000   Number         0  ffixu.o ABSOLUTE
    ../fplib/fflt.s                          0x00000000   Number         0  fflt_clz.o ABSOLUTE
    ../fplib/ffltll.s                        0x00000000   Number         0  ffltll_clz.o ABSOLUTE
    ../fplib/fleqf.s                         0x00000000   Number         0  fleqf.o ABSOLUTE
    ../fplib/fmul.s                          0x00000000   Number         0  fmul.o ABSOLUTE
    ../fplib/fnaninf.s                       0x00000000   Number         0  fnaninf.o ABSOLUTE
    ../fplib/fpinit.s                        0x00000000   Number         0  fpinit.o ABSOLUTE
    ../fplib/fretinf.s                       0x00000000   Number         0  fretinf.o ABSOLUTE
    ../fplib/frleqf.s                        0x00000000   Number         0  frleqf.o ABSOLUTE
    ../fplib/usenofp.s                       0x00000000   Number         0  usenofp.o ABSOLUTE
    ..\SYSTEM\sys\sys.c                      0x00000000   Number         0  sys.o ABSOLUTE
    ..\SYSTEM\usart\usart.c                  0x00000000   Number         0  usart.o ABSOLUTE
    ..\\core\\core_cm3.c                     0x00000000   Number         0  core_cm3.o ABSOLUTE
    ..\app\button\button.c                   0x00000000   Number         0  button.o ABSOLUTE
    ..\app\gui\gui.c                         0x00000000   Number         0  gui.o ABSOLUTE
    ..\app\lcd\lcd_driver.c                  0x00000000   Number         0  lcd_driver.o ABSOLUTE
    ..\app\led\led.c                         0x00000000   Number         0  led.o ABSOLUTE
    ..\app\rtc\rtc.c                         0x00000000   Number         0  rtc.o ABSOLUTE
    ..\app\tim\tim.c                         0x00000000   Number         0  tim.o ABSOLUTE
    ..\app\touch\flash.c                     0x00000000   Number         0  flash.o ABSOLUTE
    ..\app\touch\spi.c                       0x00000000   Number         0  spi.o ABSOLUTE
    ..\app\touch\touch.c                     0x00000000   Number         0  touch.o ABSOLUTE
    ..\awtk-port\lcd_stm32_raw.c             0x00000000   Number         0  lcd_stm32_raw.o ABSOLUTE
    ..\awtk-port\main_loop_stm32_raw.c       0x00000000   Number         0  main_loop_stm32_raw.o ABSOLUTE
    ..\awtk-port\platform.c                  0x00000000   Number         0  platform.o ABSOLUTE
    ..\awtk\demos\demo1_app.c                0x00000000   Number         0  demo1_app.o ABSOLUTE
    ..\awtk\demos\demo_main.c                0x00000000   Number         0  demo_main.o ABSOLUTE
    ..\awtk\demos\resource-mini.c            0x00000000   Number         0  resource-mini.o ABSOLUTE
    ..\awtk\src\base\array.c                 0x00000000   Number         0  array.o ABSOLUTE
    ..\awtk\src\base\bitmap.c                0x00000000   Number         0  bitmap.o ABSOLUTE
    ..\awtk\src\base\buffer.c                0x00000000   Number         0  buffer.o ABSOLUTE
    ..\awtk\src\base\button.c                0x00000000   Number         0  button_1.o ABSOLUTE
    ..\awtk\src\base\canvas.c                0x00000000   Number         0  canvas.o ABSOLUTE
    ..\awtk\src\base\check_button.c          0x00000000   Number         0  check_button.o ABSOLUTE
    ..\awtk\src\base\color.c                 0x00000000   Number         0  color.o ABSOLUTE
    ..\awtk\src\base\dialog.c                0x00000000   Number         0  dialog.o ABSOLUTE
    ..\awtk\src\base\emitter.c               0x00000000   Number         0  emitter.o ABSOLUTE
    ..\awtk\src\base\enums.c                 0x00000000   Number         0  enums.o ABSOLUTE
    ..\awtk\src\base\event_queue.c           0x00000000   Number         0  event_queue.o ABSOLUTE
    ..\awtk\src\base\events.c                0x00000000   Number         0  events.o ABSOLUTE
    ..\awtk\src\base\font.c                  0x00000000   Number         0  font.o ABSOLUTE
    ..\awtk\src\base\font_manager.c          0x00000000   Number         0  font_manager.o ABSOLUTE
    ..\awtk\src\base\group_box.c             0x00000000   Number         0  group_box.o ABSOLUTE
    ..\awtk\src\base\idle.c                  0x00000000   Number         0  idle.o ABSOLUTE
    ..\awtk\src\base\image.c                 0x00000000   Number         0  image.o ABSOLUTE
    ..\awtk\src\base\image_loader.c          0x00000000   Number         0  image_loader.o ABSOLUTE
    ..\awtk\src\base\image_manager.c         0x00000000   Number         0  image_manager.o ABSOLUTE
    ..\awtk\src\base\label.c                 0x00000000   Number         0  label.o ABSOLUTE
    ..\awtk\src\base\layout.c                0x00000000   Number         0  layout.o ABSOLUTE
    ..\awtk\src\base\lcd.c                   0x00000000   Number         0  lcd.o ABSOLUTE
    ..\awtk\src\base\locale.c                0x00000000   Number         0  locale.o ABSOLUTE
    ..\awtk\src\base\main_loop.c             0x00000000   Number         0  main_loop.o ABSOLUTE
    ..\awtk\src\base\mem.c                   0x00000000   Number         0  mem.o ABSOLUTE
    ..\awtk\src\base\progress_bar.c          0x00000000   Number         0  progress_bar.o ABSOLUTE
    ..\awtk\src\base\rect.c                  0x00000000   Number         0  rect.o ABSOLUTE
    ..\awtk\src\base\resource_manager.c      0x00000000   Number         0  resource_manager.o ABSOLUTE
    ..\awtk\src\base\slider.c                0x00000000   Number         0  slider.o ABSOLUTE
    ..\awtk\src\base\str.c                   0x00000000   Number         0  str.o ABSOLUTE
    ..\awtk\src\base\system_info.c           0x00000000   Number         0  system_info.o ABSOLUTE
    ..\awtk\src\base\theme.c                 0x00000000   Number         0  theme.o ABSOLUTE
    ..\awtk\src\base\time.c                  0x00000000   Number         0  time.o ABSOLUTE
    ..\awtk\src\base\timer.c                 0x00000000   Number         0  timer.o ABSOLUTE
    ..\awtk\src\base\utf8.c                  0x00000000   Number         0  utf8.o ABSOLUTE
    ..\awtk\src\base\utils.c                 0x00000000   Number         0  utils.o ABSOLUTE
    ..\awtk\src\base\value.c                 0x00000000   Number         0  value.o ABSOLUTE
    ..\awtk\src\base\widget.c                0x00000000   Number         0  widget.o ABSOLUTE
    ..\awtk\src\base\widget_vtable.c         0x00000000   Number         0  widget_vtable.o ABSOLUTE
    ..\awtk\src\base\window.c                0x00000000   Number         0  window.o ABSOLUTE
    ..\awtk\src\base\window_animator.c       0x00000000   Number         0  window_animator.o ABSOLUTE
    ..\awtk\src\base\window_manager.c        0x00000000   Number         0  window_manager.o ABSOLUTE
    ..\awtk\src\base\wstr.c                  0x00000000   Number         0  wstr.o ABSOLUTE
    ..\awtk\src\font\font_bitmap.c           0x00000000   Number         0  font_bitmap.o ABSOLUTE
    ..\awtk\src\main_loop\main_loop_simple.c 0x00000000   Number         0  main_loop_simple.o ABSOLUTE
    ..\awtk\src\platforms\raw\mutex.c        0x00000000   Number         0  mutex.o ABSOLUTE
    ..\awtk\src\tk.c                         0x00000000   Number         0  tk.o ABSOLUTE
    ..\awtk\src\window_animators\window_animator_null.c 0x00000000   Number         0  window_animator_null.o ABSOLUTE
    ..\core\core_cm3.c                       0x00000000   Number         0  core_cm3.o ABSOLUTE
    ..\core\startup_stm32f10x_hd.s           0x00000000   Number         0  startup_stm32f10x_hd.o ABSOLUTE
    ..\stm32f10x_fwlib\src\misc.c            0x00000000   Number         0  misc.o ABSOLUTE
    ..\stm32f10x_fwlib\src\stm32f10x_bkp.c   0x00000000   Number         0  stm32f10x_bkp.o ABSOLUTE
    ..\stm32f10x_fwlib\src\stm32f10x_dma.c   0x00000000   Number         0  stm32f10x_dma.o ABSOLUTE
    ..\stm32f10x_fwlib\src\stm32f10x_exti.c  0x00000000   Number         0  stm32f10x_exti.o ABSOLUTE
    ..\stm32f10x_fwlib\src\stm32f10x_flash.c 0x00000000   Number         0  stm32f10x_flash.o ABSOLUTE
    ..\stm32f10x_fwlib\src\stm32f10x_fsmc.c  0x00000000   Number         0  stm32f10x_fsmc.o ABSOLUTE
    ..\stm32f10x_fwlib\src\stm32f10x_gpio.c  0x00000000   Number         0  stm32f10x_gpio.o ABSOLUTE
    ..\stm32f10x_fwlib\src\stm32f10x_iwdg.c  0x00000000   Number         0  stm32f10x_iwdg.o ABSOLUTE
    ..\stm32f10x_fwlib\src\stm32f10x_pwr.c   0x00000000   Number         0  stm32f10x_pwr.o ABSOLUTE
    ..\stm32f10x_fwlib\src\stm32f10x_rcc.c   0x00000000   Number         0  stm32f10x_rcc.o ABSOLUTE
    ..\stm32f10x_fwlib\src\stm32f10x_rtc.c   0x00000000   Number         0  stm32f10x_rtc.o ABSOLUTE
    ..\stm32f10x_fwlib\src\stm32f10x_sdio.c  0x00000000   Number         0  stm32f10x_sdio.o ABSOLUTE
    ..\stm32f10x_fwlib\src\stm32f10x_spi.c   0x00000000   Number         0  stm32f10x_spi.o ABSOLUTE
    ..\stm32f10x_fwlib\src\stm32f10x_tim.c   0x00000000   Number         0  stm32f10x_tim.o ABSOLUTE
    ..\stm32f10x_fwlib\src\stm32f10x_usart.c 0x00000000   Number         0  stm32f10x_usart.o ABSOLUTE
    ..\stm32f10x_fwlib\src\stm32f10x_wwdg.c  0x00000000   Number         0  stm32f10x_wwdg.o ABSOLUTE
    dc.s                                     0x00000000   Number         0  dc.o ABSOLUTE
    main.c                                   0x00000000   Number         0  main.o ABSOLUTE
    stm32f10x_it.c                           0x00000000   Number         0  stm32f10x_it.o ABSOLUTE
    system_stm32f10x.c                       0x00000000   Number         0  system_stm32f10x.o ABSOLUTE
    RESET                                    0x08000000   Section      304  startup_stm32f10x_hd.o(RESET)
    !!!main                                  0x08000130   Section        8  __main.o(!!!main)
    !!!scatter                               0x08000138   Section       52  __scatter.o(!!!scatter)
    !!handler_copy                           0x0800016c   Section       26  __scatter_copy.o(!!handler_copy)
    !!handler_zi                             0x08000188   Section       28  __scatter_zi.o(!!handler_zi)
    .ARM.Collect$$_printf_percent$$00000000  0x080001a4   Section        0  _printf_percent.o(.ARM.Collect$$_printf_percent$$00000000)
    .ARM.Collect$$_printf_percent$$00000009  0x080001a4   Section        6  _printf_d.o(.ARM.Collect$$_printf_percent$$00000009)
    .ARM.Collect$$_printf_percent$$00000014  0x080001aa   Section        6  _printf_s.o(.ARM.Collect$$_printf_percent$$00000014)
    .ARM.Collect$$_printf_percent$$00000017  0x080001b0   Section        4  _printf_percent_end.o(.ARM.Collect$$_printf_percent$$00000017)
    .ARM.Collect$$libinit$$00000000          0x080001b4   Section        2  libinit.o(.ARM.Collect$$libinit$$00000000)
    .ARM.Collect$$libinit$$00000002          0x080001b6   Section        0  libinit2.o(.ARM.Collect$$libinit$$00000002)
    .ARM.Collect$$libinit$$00000004          0x080001b6   Section        0  libinit2.o(.ARM.Collect$$libinit$$00000004)
    .ARM.Collect$$libinit$$0000000A          0x080001b6   Section        0  libinit2.o(.ARM.Collect$$libinit$$0000000A)
    .ARM.Collect$$libinit$$0000000C          0x080001b6   Section        0  libinit2.o(.ARM.Collect$$libinit$$0000000C)
    .ARM.Collect$$libinit$$0000000E          0x080001b6   Section        0  libinit2.o(.ARM.Collect$$libinit$$0000000E)
    .ARM.Collect$$libinit$$0000000F          0x080001b6   Section        6  libinit2.o(.ARM.Collect$$libinit$$0000000F)
    .ARM.Collect$$libinit$$00000011          0x080001bc   Section        0  libinit2.o(.ARM.Collect$$libinit$$00000011)
    .ARM.Collect$$libinit$$00000012          0x080001bc   Section       12  libinit2.o(.ARM.Collect$$libinit$$00000012)
    .ARM.Collect$$libinit$$00000013          0x080001c8   Section        0  libinit2.o(.ARM.Collect$$libinit$$00000013)
    .ARM.Collect$$libinit$$00000015          0x080001c8   Section        0  libinit2.o(.ARM.Collect$$libinit$$00000015)
    .ARM.Collect$$libinit$$00000017          0x080001c8   Section        0  libinit2.o(.ARM.Collect$$libinit$$00000017)
    .ARM.Collect$$libinit$$00000019          0x080001c8   Section        0  libinit2.o(.ARM.Collect$$libinit$$00000019)
    .ARM.Collect$$libinit$$0000001B          0x080001c8   Section        0  libinit2.o(.ARM.Collect$$libinit$$0000001B)
    .ARM.Collect$$libinit$$0000001D          0x080001c8   Section        0  libinit2.o(.ARM.Collect$$libinit$$0000001D)
    .ARM.Collect$$libinit$$0000001F          0x080001c8   Section        0  libinit2.o(.ARM.Collect$$libinit$$0000001F)
    .ARM.Collect$$libinit$$00000021          0x080001c8   Section        0  libinit2.o(.ARM.Collect$$libinit$$00000021)
    .ARM.Collect$$libinit$$00000023          0x080001c8   Section        0  libinit2.o(.ARM.Collect$$libinit$$00000023)
    .ARM.Collect$$libinit$$00000025          0x080001c8   Section        0  libinit2.o(.ARM.Collect$$libinit$$00000025)
    .ARM.Collect$$libinit$$0000002C          0x080001c8   Section        0  libinit2.o(.ARM.Collect$$libinit$$0000002C)
    .ARM.Collect$$libinit$$0000002E          0x080001c8   Section        0  libinit2.o(.ARM.Collect$$libinit$$0000002E)
    .ARM.Collect$$libinit$$00000030          0x080001c8   Section        0  libinit2.o(.ARM.Collect$$libinit$$00000030)
    .ARM.Collect$$libinit$$00000032          0x080001c8   Section        0  libinit2.o(.ARM.Collect$$libinit$$00000032)
    .ARM.Collect$$libinit$$00000033          0x080001c8   Section        2  libinit2.o(.ARM.Collect$$libinit$$00000033)
    .ARM.Collect$$libshutdown$$00000000      0x080001ca   Section        2  libshutdown.o(.ARM.Collect$$libshutdown$$00000000)
    .ARM.Collect$$libshutdown$$00000002      0x080001cc   Section        0  libshutdown2.o(.ARM.Collect$$libshutdown$$00000002)
    .ARM.Collect$$libshutdown$$00000004      0x080001cc   Section        0  libshutdown2.o(.ARM.Collect$$libshutdown$$00000004)
    .ARM.Collect$$libshutdown$$00000007      0x080001cc   Section        0  libshutdown2.o(.ARM.Collect$$libshutdown$$00000007)
    .ARM.Collect$$libshutdown$$0000000A      0x080001cc   Section        0  libshutdown2.o(.ARM.Collect$$libshutdown$$0000000A)
    .ARM.Collect$$libshutdown$$0000000C      0x080001cc   Section        0  libshutdown2.o(.ARM.Collect$$libshutdown$$0000000C)
    .ARM.Collect$$libshutdown$$0000000F      0x080001cc   Section        0  libshutdown2.o(.ARM.Collect$$libshutdown$$0000000F)
    .ARM.Collect$$libshutdown$$00000010      0x080001cc   Section        2  libshutdown2.o(.ARM.Collect$$libshutdown$$00000010)
    .ARM.Collect$$rtentry$$00000000          0x080001ce   Section        0  __rtentry.o(.ARM.Collect$$rtentry$$00000000)
    .ARM.Collect$$rtentry$$00000002          0x080001ce   Section        0  __rtentry2.o(.ARM.Collect$$rtentry$$00000002)
    .ARM.Collect$$rtentry$$00000004          0x080001ce   Section        6  __rtentry4.o(.ARM.Collect$$rtentry$$00000004)
    .ARM.Collect$$rtentry$$00000009          0x080001d4   Section        0  __rtentry2.o(.ARM.Collect$$rtentry$$00000009)
    .ARM.Collect$$rtentry$$0000000A          0x080001d4   Section        4  __rtentry2.o(.ARM.Collect$$rtentry$$0000000A)
    .ARM.Collect$$rtentry$$0000000C          0x080001d8   Section        0  __rtentry2.o(.ARM.Collect$$rtentry$$0000000C)
    .ARM.Collect$$rtentry$$0000000D          0x080001d8   Section        8  __rtentry2.o(.ARM.Collect$$rtentry$$0000000D)
    .ARM.Collect$$rtexit$$00000000           0x080001e0   Section        2  rtexit.o(.ARM.Collect$$rtexit$$00000000)
    .ARM.Collect$$rtexit$$00000002           0x080001e2   Section        0  rtexit2.o(.ARM.Collect$$rtexit$$00000002)
    .ARM.Collect$$rtexit$$00000003           0x080001e2   Section        4  rtexit2.o(.ARM.Collect$$rtexit$$00000003)
    .ARM.Collect$$rtexit$$00000004           0x080001e6   Section        6  rtexit2.o(.ARM.Collect$$rtexit$$00000004)
    .text                                    0x080001ec   Section        0  stm32f10x_it.o(.text)
    .text                                    0x08000204   Section        0  system_stm32f10x.o(.text)
    SetSysClockTo72                          0x08000205   Thumb Code   214  system_stm32f10x.o(.text)
    SetSysClock                              0x080002db   Thumb Code     8  system_stm32f10x.o(.text)
    .text                                    0x080003e4   Section        0  main.o(.text)
    .text                                    0x08000424   Section        0  usart.o(.text)
    .text                                    0x08000550   Section       64  startup_stm32f10x_hd.o(.text)
    .text                                    0x08000590   Section        0  misc.o(.text)
    .text                                    0x0800066c   Section        0  stm32f10x_gpio.o(.text)
    .text                                    0x080009c8   Section        0  stm32f10x_rcc.o(.text)
    .text                                    0x08000d6c   Section        0  stm32f10x_usart.o(.text)
    .text                                    0x08001174   Section        0  stm32f10x_tim.o(.text)
    TI4_Config                               0x0800161b   Thumb Code   130  stm32f10x_tim.o(.text)
    TI3_Config                               0x080016af   Thumb Code   122  stm32f10x_tim.o(.text)
    TI2_Config                               0x08001743   Thumb Code   130  stm32f10x_tim.o(.text)
    TI1_Config                               0x080017d7   Thumb Code   108  stm32f10x_tim.o(.text)
    .text                                    0x08001f90   Section        0  stm32f10x_fsmc.o(.text)
    .text                                    0x0800259c   Section        0  stm32f10x_bkp.o(.text)
    .text                                    0x08002660   Section        0  stm32f10x_rtc.o(.text)
    .text                                    0x080027a8   Section        0  stm32f10x_pwr.o(.text)
    .text                                    0x08002874   Section        0  stm32f10x_spi.o(.text)
    .text                                    0x08002b80   Section        0  led.o(.text)
    .text                                    0x08002c24   Section        0  lcd_driver.o(.text)
    .text                                    0x08002edc   Section        0  button.o(.text)
    .text                                    0x08002fdc   Section        0  tim.o(.text)
    .text                                    0x08003218   Section        0  rtc.o(.text)
    .text                                    0x08003678   Section        0  touch.o(.text)
    .text                                    0x08003ab8   Section        0  spi.o(.text)
    .text                                    0x08003c94   Section        0  gui.o(.text)
    .text                                    0x080040c4   Section        0  flash.o(.text)
    FLASH_CheckBusy                          0x0800417b   Thumb Code    84  flash.o(.text)
    FLASH_WriteEnable                        0x0800423d   Thumb Code    50  flash.o(.text)
    FLASH_SectorErase                        0x0800426f   Thumb Code    82  flash.o(.text)
    FLASH_WritePage                          0x080042fb   Thumb Code   158  flash.o(.text)
    .text                                    0x08004460   Section        0  array.o(.text)
    array_extend                             0x080044b7   Thumb Code    56  array.o(.text)
    .text                                    0x080046ca   Section        0  bitmap.o(.text)
    .text                                    0x080046ec   Section        0  button_1.o(.text)
    button_on_paint_self                     0x080046ed   Thumb Code    20  button_1.o(.text)
    button_on_event                          0x08004701   Thumb Code   104  button_1.o(.text)
    .text                                    0x080047bc   Section        0  canvas.o(.text)
    canvas_measure_text_default              0x08005361   Thumb Code    94  canvas.o(.text)
    canvas_draw_hline_impl                   0x08005419   Thumb Code    92  canvas.o(.text)
    canvas_draw_vline_impl                   0x0800549b   Thumb Code    92  canvas.o(.text)
    canvas_draw_line_impl                    0x08005525   Thumb Code   156  canvas.o(.text)
    canvas_do_draw_points                    0x080055f3   Thumb Code   114  canvas.o(.text)
    canvas_draw_points_impl                  0x08005665   Thumb Code    72  canvas.o(.text)
    canvas_fill_rect_impl                    0x08005725   Thumb Code   136  canvas.o(.text)
    canvas_stroke_rect_impl                  0x080057db   Thumb Code   114  canvas.o(.text)
    canvas_draw_glyph                        0x0800587b   Thumb Code   160  canvas.o(.text)
    canvas_draw_char_impl                    0x0800591b   Thumb Code    62  canvas.o(.text)
    canvas_draw_text_impl                    0x0800597f   Thumb Code   180  canvas.o(.text)
    canvas_do_draw_image                     0x08005a81   Thumb Code   332  canvas.o(.text)
    .text                                    0x08006948   Section        0  check_button.o(.text)
    check_button_set_value_only              0x08006949   Thumb Code    74  check_button.o(.text)
    check_button_on_event                    0x080069f5   Thumb Code    66  check_button.o(.text)
    check_button_on_paint_self               0x08006a37   Thumb Code    20  check_button.o(.text)
    check_button_get_prop                    0x08006a4b   Thumb Code    52  check_button.o(.text)
    check_button_set_prop                    0x08006a7f   Thumb Code    54  check_button.o(.text)
    .text                                    0x08006b5c   Section        0  color.o(.text)
    .text                                    0x08006b74   Section        0  dialog.o(.text)
    dialog_on_paint_self                     0x08006b75   Thumb Code    28  dialog.o(.text)
    dialog_get_prop                          0x08006b91   Thumb Code   124  dialog.o(.text)
    dialog_on_relayout_children              0x08006c0d   Thumb Code    78  dialog.o(.text)
    dialog_set_prop                          0x08006c5b   Thumb Code   176  dialog.o(.text)
    dialog_destroy                           0x08006d0b   Thumb Code    18  dialog.o(.text)
    dialog_close                             0x08006e4d   Thumb Code    20  dialog.o(.text)
    dialog_idle_close                        0x08006e61   Thumb Code    12  dialog.o(.text)
    .text                                    0x08006f04   Section        0  emitter.o(.text)
    emitter_extends                          0x08006f87   Thumb Code    92  emitter.o(.text)
    .text                                    0x08007198   Section        0  enums.o(.text)
    .text                                    0x080072e0   Section        0  font.o(.text)
    .text                                    0x08007340   Section        0  font_manager.o(.text)
    .text                                    0x0800743c   Section        0  group_box.o(.text)
    group_box_on_paint_self                  0x0800743d   Thumb Code    20  group_box.o(.text)
    .text                                    0x080074a4   Section        0  image.o(.text)
    image_on_paint_self                      0x080074a5   Thumb Code   194  image.o(.text)
    image_get_prop                           0x08007567   Thumb Code    76  image.o(.text)
    image_set_image                          0x080075c5   Thumb Code    46  image.o(.text)
    image_set_prop                           0x08007623   Thumb Code   150  image.o(.text)
    .text                                    0x08007720   Section        0  image_manager.o(.text)
    bitmap_cache_cmp_time                    0x08007919   Thumb Code    20  image_manager.o(.text)
    bitmap_cache_destroy                     0x0800792d   Thumb Code    26  image_manager.o(.text)
    .text                                    0x080079d8   Section        0  label.o(.text)
    label_on_paint_self                      0x080079d9   Thumb Code    20  label.o(.text)
    .text                                    0x08007a38   Section        0  lcd.o(.text)
    .text                                    0x08007d8c   Section        0  main_loop.o(.text)
    .text                                    0x08007e6c   Section        0  mem.o(.text)
    node_merge2                              0x08007fa3   Thumb Code    48  mem.o(.text)
    node_merge                               0x08007fd3   Thumb Code    60  mem.o(.text)
    .text                                    0x08008114   Section        0  progress_bar.o(.text)
    progress_bar_on_paint_self               0x08008115   Thumb Code   680  progress_bar.o(.text)
    progress_bar_get_prop                    0x0800840b   Thumb Code   100  progress_bar.o(.text)
    progress_bar_set_prop                    0x0800846f   Thumb Code   110  progress_bar.o(.text)
    .text                                    0x08008548   Section        0  rect.o(.text)
    .text                                    0x0800861c   Section        0  theme.o(.text)
    .text                                    0x08008858   Section        0  utf8.o(.text)
    .text                                    0x08008b5c   Section        0  value.o(.text)
    .text                                    0x08008f74   Section        0  widget.o(.text)
    widget_set_dirty                         0x08008fb9   Thumb Code    60  widget.o(.text)
    widget_lookup_child                      0x0800974d   Thumb Code    70  widget.o(.text)
    widget_lookup_all                        0x08009793   Thumb Code    86  widget.o(.text)
    widget_set_visible_self                  0x08009807   Thumb Code    48  widget.o(.text)
    widget_set_visible_recursive             0x08009837   Thumb Code    66  widget.o(.text)
    .text                                    0x0800a280   Section        0  widget_vtable.o(.text)
    .text                                    0x0800a480   Section        0  window.o(.text)
    window_on_paint_self                     0x0800a481   Thumb Code    20  window.o(.text)
    window_get_prop                          0x0800a495   Thumb Code    60  window.o(.text)
    window_set_prop                          0x0800a4d1   Thumb Code    62  window.o(.text)
    window_destroy                           0x0800a50f   Thumb Code    18  window.o(.text)
    .text                                    0x0800a5ac   Section        0  window_manager.o(.text)
    window_manager_find_prev_window          0x0800a5ad   Thumb Code    60  window_manager.o(.text)
    window_manager_check_if_need_open_animation 0x0800a5e9   Thumb Code   122  window_manager.o(.text)
    window_manager_check_if_need_close_animation 0x0800a663   Thumb Code   128  window_manager.o(.text)
    window_manager_remove_child_real         0x0800a741   Thumb Code    76  window_manager.o(.text)
    on_window_destroy                        0x0800a78d   Thumb Code    32  window_manager.o(.text)
    window_manager_idle_destroy_window       0x0800a83d   Thumb Code    16  window_manager.o(.text)
    window_manager_paint_normal              0x0800a937   Thumb Code   114  window_manager.o(.text)
    timer_enable_user_input                  0x0800a9a9   Thumb Code    12  window_manager.o(.text)
    window_manager_paint_animation           0x0800a9b5   Thumb Code   104  window_manager.o(.text)
    window_manager_grab                      0x0800aaa5   Thumb Code    28  window_manager.o(.text)
    window_manager_ungrab                    0x0800aac1   Thumb Code    32  window_manager.o(.text)
    window_manager_invalidate                0x0800aae1   Thumb Code    28  window_manager.o(.text)
    window_manager_update_key_status         0x0800aba5   Thumb Code    68  window_manager.o(.text)
    window_manager_shift_key                 0x0800abe9   Thumb Code   116  window_manager.o(.text)
    .text                                    0x0800adf0   Section        0  wstr.o(.text)
    wstr_extend                              0x0800ae5d   Thumb Code    54  wstr.o(.text)
    .text                                    0x0800b1c8   Section        0  font_bitmap.o(.text)
    find_glyph                               0x0800b1c9   Thumb Code    56  font_bitmap.o(.text)
    font_bitmap_find_glyph                   0x0800b201   Thumb Code    92  font_bitmap.o(.text)
    font_bitmap_match                        0x0800b25d   Thumb Code    50  font_bitmap.o(.text)
    font_bitmap_destroy                      0x0800b28f   Thumb Code    14  font_bitmap.o(.text)
    .text                                    0x0800b300   Section        0  utils.o(.text)
    tk_strtol_internal                       0x0800b329   Thumb Code   198  utils.o(.text)
    tk_itoa_simple                           0x0800b4f5   Thumb Code   144  utils.o(.text)
    .text                                    0x0800b7dc   Section        0  timer.o(.text)
    timer_info_compare_id                    0x0800b8f9   Thumb Code    26  timer.o(.text)
    timer_info_destroy                       0x0800b913   Thumb Code    14  timer.o(.text)
    .text                                    0x0800bb70   Section        0  resource_manager.o(.text)
    resource_info_destroy                    0x0800bb7d   Thumb Code    32  resource_manager.o(.text)
    resource_info_unref                      0x0800bb9d   Thumb Code    38  resource_manager.o(.text)
    resource_info_ref                        0x0800bbc3   Thumb Code    22  resource_manager.o(.text)
    res_cmp_type                             0x0800bcd7   Thumb Code    16  resource_manager.o(.text)
    .text                                    0x0800bd6c   Section        0  layout.o(.text)
    .text                                    0x0800c4c4   Section        0  event_queue.o(.text)
    .text                                    0x0800c60c   Section        0  slider.o(.text)
    slider_get_dragger_rect                  0x0800c60d   Thumb Code   168  slider.o(.text)
    slider_on_paint_self                     0x0800c6b5   Thumb Code   694  slider.o(.text)
    slider_set_value_internal                0x0800c96b   Thumb Code   148  slider.o(.text)
    slider_on_event                          0x0800c9ff   Thumb Code   414  slider.o(.text)
    slider_get_prop                          0x0800cbfb   Thumb Code   148  slider.o(.text)
    slider_set_prop                          0x0800cc8f   Thumb Code   166  slider.o(.text)
    .text                                    0x0800cdb8   Section        0  window_animator.o(.text)
    .text                                    0x0800ced8   Section        0  window_animator_null.o(.text)
    .text                                    0x0800cee8   Section        0  idle.o(.text)
    idle_info_compare_id                     0x0800cfe1   Thumb Code    26  idle.o(.text)
    idle_info_destroy                        0x0800cffb   Thumb Code    14  idle.o(.text)
    .text                                    0x0800d1a4   Section        0  time.o(.text)
    .text                                    0x0800d1bc   Section        0  system_info.o(.text)
    .text                                    0x0800d1c4   Section        0  image_loader.o(.text)
    .text                                    0x0800d1f0   Section        0  tk.o(.text)
    tk_add_font                              0x0800d1f1   Thumb Code    46  tk.o(.text)
    tk_exit                                  0x0800d383   Thumb Code    18  tk.o(.text)
    tk_quit_idle                             0x0800d3a7   Thumb Code    16  tk.o(.text)
    .text                                    0x0800d3d0   Section        0  locale.o(.text)
    .text                                    0x0800d624   Section        0  str.o(.text)
    str_extend                               0x0800d625   Thumb Code    50  str.o(.text)
    str_count_sub_str                        0x0800d995   Thumb Code    48  str.o(.text)
    .text                                    0x0800db14   Section        0  main_loop_simple.o(.text)
    main_loop_simple_queue_event             0x0800db15   Thumb Code    40  main_loop_simple.o(.text)
    main_loop_simple_recv_event              0x0800db3d   Thumb Code    34  main_loop_simple.o(.text)
    main_loop_dispatch_events                0x0800dc63   Thumb Code   112  main_loop_simple.o(.text)
    main_loop_dispatch_input                 0x0800dcd3   Thumb Code    18  main_loop_simple.o(.text)
    main_loop_simple_run                     0x0800dce5   Thumb Code    52  main_loop_simple.o(.text)
    .text                                    0x0800dda4   Section        0  mutex.o(.text)
    .text                                    0x0800ddc0   Section        0  lcd_stm32_raw.o(.text)
    blend_color                              0x0800ddc1   Thumb Code    76  lcd_stm32_raw.o(.text)
    lcd_reg_begin_frame                      0x0800de0d   Thumb Code    20  lcd_stm32_raw.o(.text)
    lcd_reg_draw_hline                       0x0800de21   Thumb Code    84  lcd_stm32_raw.o(.text)
    lcd_reg_draw_vline                       0x0800de75   Thumb Code    84  lcd_stm32_raw.o(.text)
    lcd_reg_draw_points                      0x0800dec9   Thumb Code   100  lcd_stm32_raw.o(.text)
    lcd_reg_fill_rect                        0x0800df2d   Thumb Code   106  lcd_stm32_raw.o(.text)
    lcd_reg_draw_glyph                       0x0800df97   Thumb Code   256  lcd_stm32_raw.o(.text)
    lcd_reg_draw_image                       0x0800e097   Thumb Code   502  lcd_stm32_raw.o(.text)
    lcd_reg_end_frame                        0x0800e28d   Thumb Code     6  lcd_stm32_raw.o(.text)
    lcd_reg_destroy                          0x0800e293   Thumb Code    14  lcd_stm32_raw.o(.text)
    .text                                    0x0800e334   Section        0  main_loop_stm32_raw.o(.text)
    platform_create_lcd                      0x0800e33b   Thumb Code    16  main_loop_stm32_raw.o(.text)
    main_loop_raw_dispatch                   0x0800e391   Thumb Code    14  main_loop_stm32_raw.o(.text)
    main_loop_raw_destroy                    0x0800e39f   Thumb Code    16  main_loop_stm32_raw.o(.text)
    main_loop_raw_init_canvas                0x0800e3af   Thumb Code    42  main_loop_stm32_raw.o(.text)
    .text                                    0x0800e40c   Section        0  platform.o(.text)
    .text                                    0x0800e4b4   Section        0  demo_main.o(.text)
    .text                                    0x0800e4d4   Section        0  demo1_app.o(.text)
    on_timer                                 0x0800e4d5   Thumb Code    36  demo1_app.o(.text)
    on_inc                                   0x0800e4f9   Thumb Code    42  demo1_app.o(.text)
    on_dec                                   0x0800e523   Thumb Code    42  demo1_app.o(.text)
    on_ok                                    0x0800e54d   Thumb Code    24  demo1_app.o(.text)
    on_close                                 0x0800e565   Thumb Code    16  demo1_app.o(.text)
    on_cancel                                0x0800e575   Thumb Code    24  demo1_app.o(.text)
    on_show_dialog                           0x0800e58d   Thumb Code   172  demo1_app.o(.text)
    .text                                    0x0800ea18   Section        0  resource-mini.o(.text)
    .text                                    0x0800ec14   Section        2  use_no_semi_2.o(.text)
    .text                                    0x0800ec16   Section        0  tolower.o(.text)
    .text                                    0x0800ec30   Section        0  toupper.o(.text)
    .text                                    0x0800ec50   Section        0  noretval__2printf.o(.text)
    .text                                    0x0800ec68   Section        0  noretval__2snprintf.o(.text)
    .text                                    0x0800ec9c   Section        0  __printf.o(.text)
    .text                                    0x0800ed04   Section        0  _printf_str.o(.text)
    .text                                    0x0800ed58   Section        0  _printf_dec.o(.text)
    .text                                    0x0800edd0   Section        0  atoi.o(.text)
    .text                                    0x0800edea   Section        0  strchr.o(.text)
    .text                                    0x0800edfe   Section        0  strstr.o(.text)
    .text                                    0x0800ee22   Section        0  strcpy.o(.text)
    .text                                    0x0800ee6a   Section        0  strlen.o(.text)
    .text                                    0x0800eea8   Section        0  wcscpy.o(.text)
    .text                                    0x0800eeba   Section        0  wcslen.o(.text)
    .text                                    0x0800eecc   Section        0  strncmp.o(.text)
    .text                                    0x0800ef62   Section      138  rt_memcpy_v6.o(.text)
    .text                                    0x0800efec   Section      132  rt_memmove_v6.o(.text)
    .text                                    0x0800f070   Section      100  rt_memcpy_w.o(.text)
    .text                                    0x0800f0d4   Section       68  rt_memclr.o(.text)
    .text                                    0x0800f118   Section       78  rt_memclr_w.o(.text)
    .text                                    0x0800f166   Section       86  strncpy.o(.text)
    .text                                    0x0800f1bc   Section      128  strcmpv7m.o(.text)
    .text                                    0x0800f23c   Section        0  heapauxi.o(.text)
    .text                                    0x0800f242   Section        2  use_no_semi.o(.text)
    .text                                    0x0800f244   Section       16  rt_ctype_table.o(.text)
    .text                                    0x0800f254   Section        8  rt_errno_addr_intlibspace.o(.text)
    .text                                    0x0800f25c   Section        0  _printf_intcommon.o(.text)
    .text                                    0x0800f310   Section        0  _printf_char_common.o(.text)
    _printf_input_char                       0x0800f311   Thumb Code    10  _printf_char_common.o(.text)
    .text                                    0x0800f340   Section        0  _sputc.o(.text)
    .text                                    0x0800f34a   Section        0  _snputc.o(.text)
    .text                                    0x0800f35a   Section        0  _printf_char.o(.text)
    .text                                    0x0800f388   Section        0  _printf_char_file.o(.text)
    .text                                    0x0800f3ac   Section        0  strtol.o(.text)
    .text                                    0x0800f41c   Section      122  rt_memmove_w.o(.text)
    .text                                    0x0800f498   Section        8  libspace.o(.text)
    .text                                    0x0800f4a0   Section        8  rt_locale_intlibspace.o(.text)
    .text                                    0x0800f4a8   Section        0  _strtoul.o(.text)
    .text                                    0x0800f546   Section        0  ferror.o(.text)
    .text                                    0x0800f54e   Section       74  sys_stackheap_outer.o(.text)
    .text                                    0x0800f598   Section        0  _chval.o(.text)
    .text                                    0x0800f5b4   Section        0  exit.o(.text)
    locale$$code                             0x0800f5c8   Section       44  lc_ctype_c.o(locale$$code)
    x$fpl$d2f                                0x0800f5f4   Section       98  d2f.o(x$fpl$d2f)
    x$fpl$dadd                               0x0800f658   Section      336  daddsub_clz.o(x$fpl$dadd)
    _dadd1                                   0x0800f669   Thumb Code     0  daddsub_clz.o(x$fpl$dadd)
    x$fpl$dcmpinf                            0x0800f7a8   Section       24  dcmpi.o(x$fpl$dcmpinf)
    x$fpl$ddiv                               0x0800f7c0   Section      688  ddiv.o(x$fpl$ddiv)
    ddiv_entry                               0x0800f7c7   Thumb Code     0  ddiv.o(x$fpl$ddiv)
    x$fpl$deqf                               0x0800fa70   Section      120  deqf.o(x$fpl$deqf)
    x$fpl$dfix                               0x0800fae8   Section       94  dfix.o(x$fpl$dfix)
    x$fpl$dfixu                              0x0800fb48   Section       90  dfixu.o(x$fpl$dfixu)
    x$fpl$dflt                               0x0800fba2   Section       46  dflt_clz.o(x$fpl$dflt)
    x$fpl$dfltu                              0x0800fbd0   Section       38  dflt_clz.o(x$fpl$dfltu)
    x$fpl$dleqf                              0x0800fbf8   Section      120  dleqf.o(x$fpl$dleqf)
    x$fpl$dmul                               0x0800fc70   Section      340  dmul.o(x$fpl$dmul)
    x$fpl$dnaninf                            0x0800fdc4   Section      156  dnaninf.o(x$fpl$dnaninf)
    x$fpl$dretinf                            0x0800fe60   Section       12  dretinf.o(x$fpl$dretinf)
    x$fpl$drleqf                             0x0800fe6c   Section      108  drleqf.o(x$fpl$drleqf)
    x$fpl$drsb                               0x0800fed8   Section       22  daddsub_clz.o(x$fpl$drsb)
    x$fpl$dsub                               0x0800fef0   Section      468  daddsub_clz.o(x$fpl$dsub)
    _dsub1                                   0x0800ff01   Thumb Code     0  daddsub_clz.o(x$fpl$dsub)
    x$fpl$fadd                               0x080100c4   Section      196  faddsub_clz.o(x$fpl$fadd)
    _fadd1                                   0x080100d3   Thumb Code     0  faddsub_clz.o(x$fpl$fadd)
    x$fpl$fcmpinf                            0x08010188   Section       24  fcmpi.o(x$fpl$fcmpinf)
    x$fpl$fdiv                               0x080101a0   Section      388  fdiv.o(x$fpl$fdiv)
    _fdiv1                                   0x080101a1   Thumb Code     0  fdiv.o(x$fpl$fdiv)
    x$fpl$feqf                               0x08010324   Section      104  feqf.o(x$fpl$feqf)
    x$fpl$ffix                               0x0801038c   Section       54  ffix.o(x$fpl$ffix)
    x$fpl$ffixu                              0x080103c4   Section       62  ffixu.o(x$fpl$ffixu)
    x$fpl$fflt                               0x08010404   Section       48  fflt_clz.o(x$fpl$fflt)
    x$fpl$ffltll                             0x08010434   Section       96  ffltll_clz.o(x$fpl$ffltll)
    x$fpl$ffltu                              0x08010494   Section       38  fflt_clz.o(x$fpl$ffltu)
    x$fpl$fleqf                              0x080104bc   Section      104  fleqf.o(x$fpl$fleqf)
    x$fpl$fmul                               0x08010524   Section      258  fmul.o(x$fpl$fmul)
    x$fpl$fnaninf                            0x08010626   Section      140  fnaninf.o(x$fpl$fnaninf)
    x$fpl$fretinf                            0x080106b2   Section       10  fretinf.o(x$fpl$fretinf)
    x$fpl$frleqf                             0x080106bc   Section       98  frleqf.o(x$fpl$frleqf)
    x$fpl$frsb                               0x0801071e   Section       20  faddsub_clz.o(x$fpl$frsb)
    x$fpl$fsub                               0x08010734   Section      234  faddsub_clz.o(x$fpl$fsub)
    _fsub1                                   0x08010743   Thumb Code     0  faddsub_clz.o(x$fpl$fsub)
    .constdata                               0x0801081e   Section       24  rtc.o(.constdata)
    x$fpl$usenofp                            0x0801081e   Section        0  usenofp.o(x$fpl$usenofp)
    .constdata                               0x08010836   Section     2376  gui.o(.constdata)
    .constdata                               0x08011180   Section       76  button_1.o(.constdata)
    s_button_vtable                          0x08011180   Data          76  button_1.o(.constdata)
    .constdata                               0x080111cc   Section       84  check_button.o(.constdata)
    s_check_button_vtable                    0x080111cc   Data          76  check_button.o(.constdata)
    .constdata                               0x08011220   Section       76  dialog.o(.constdata)
    s_dialog_vtable                          0x08011220   Data          76  dialog.o(.constdata)
    .constdata                               0x0801126c   Section      924  enums.o(.constdata)
    widget_type_value                        0x0801126c   Data         252  enums.o(.constdata)
    style_id_name_value                      0x08011368   Data         192  enums.o(.constdata)
    widget_state_name_value                  0x08011428   Data         108  enums.o(.constdata)
    align_v_name_value                       0x08011494   Data          36  enums.o(.constdata)
    input_type_name_value                    0x080114b8   Data          60  enums.o(.constdata)
    align_h_name_value                       0x080114f4   Data          36  enums.o(.constdata)
    resource_type_value                      0x08011518   Data          84  enums.o(.constdata)
    image_draw_type_name_value               0x0801156c   Data         156  enums.o(.constdata)
    .constdata                               0x08011608   Section       76  group_box.o(.constdata)
    s_group_box_vtable                       0x08011608   Data          76  group_box.o(.constdata)
    .constdata                               0x08011654   Section       76  image.o(.constdata)
    s_image_vtable                           0x08011654   Data          76  image.o(.constdata)
    .constdata                               0x080116a0   Section       76  label.o(.constdata)
    s_label_vtable                           0x080116a0   Data          76  label.o(.constdata)
    .constdata                               0x080116ec   Section       76  progress_bar.o(.constdata)
    s_progress_bar_vtable                    0x080116ec   Data          76  progress_bar.o(.constdata)
    .constdata                               0x08011738   Section      260  utf8.o(.constdata)
    utf8_skip_data                           0x08011738   Data         256  utf8.o(.constdata)
    .constdata                               0x0801183c   Section       72  widget.o(.constdata)
    .constdata                               0x08011884   Section       76  widget_vtable.o(.constdata)
    s_vtable                                 0x08011884   Data          76  widget_vtable.o(.constdata)
    .constdata                               0x080118d0   Section       76  window.o(.constdata)
    s_window_vtable                          0x080118d0   Data          76  window.o(.constdata)
    .constdata                               0x0801191c   Section      114  window_manager.o(.constdata)
    s_wm_vtable                              0x0801191c   Data          76  window_manager.o(.constdata)
    key_shift                                0x08011968   Data          38  window_manager.o(.constdata)
    .constdata                               0x08011990   Section       76  slider.o(.constdata)
    s_slider_vtable                          0x08011990   Data          76  slider.o(.constdata)
    .constdata                               0x080119dc   Section        8  locale.o(.constdata)
    .constdata                               0x080119e4   Section    110287  resource-mini.o(.constdata)
    .conststring                             0x0802c8b4   Section      782  enums.o(.conststring)
    locale$$data                             0x0802cbe4   Section      272  lc_ctype_c.o(locale$$data)
    __lcctype_c_name                         0x0802cbe8   Data           2  lc_ctype_c.o(locale$$data)
    __lcctype_c_start                        0x0802cbf0   Data           0  lc_ctype_c.o(locale$$data)
    __lcctype_c_end                          0x0802ccf4   Data           0  lc_ctype_c.o(locale$$data)
    .data                                    0x20000000   Section       20  system_stm32f10x.o(.data)
    .data                                    0x20000014   Section        6  usart.o(.data)
    .data                                    0x2000001a   Section       20  stm32f10x_rcc.o(.data)
    APBAHBPrescTable                         0x2000001a   Data          16  stm32f10x_rcc.o(.data)
    ADCPrescTable                            0x2000002a   Data           4  stm32f10x_rcc.o(.data)
    .data                                    0x2000002e   Section        1  led.o(.data)
    i                                        0x2000002e   Data           1  led.o(.data)
    .data                                    0x2000002f   Section        1  button.o(.data)
    key_up                                   0x2000002f   Data           1  button.o(.data)
    .data                                    0x20000030   Section        4  tim.o(.data)
    .data                                    0x20000034   Section       10  rtc.o(.data)
    daycnt                                   0x2000003c   Data           2  rtc.o(.data)
    .data                                    0x2000003e   Section        8  touch.o(.data)
    .data                                    0x20000048   Section        4  font_manager.o(.data)
    s_font_manager                           0x20000048   Data           4  font_manager.o(.data)
    .data                                    0x2000004c   Section        4  image_manager.o(.data)
    s_image_manager                          0x2000004c   Data           4  image_manager.o(.data)
    .data                                    0x20000050   Section        4  main_loop.o(.data)
    s_default_main_loop                      0x20000050   Data           4  main_loop.o(.data)
    .data                                    0x20000054   Section        4  theme.o(.data)
    s_theme                                  0x20000054   Data           4  theme.o(.data)
    .data                                    0x20000058   Section        4  window_manager.o(.data)
    s_window_manager                         0x20000058   Data           4  window_manager.o(.data)
    .data                                    0x2000005c   Section        4  timer.o(.data)
    s_timer_manager                          0x2000005c   Data           4  timer.o(.data)
    .data                                    0x20000060   Section        4  resource_manager.o(.data)
    s_resource_manager                       0x20000060   Data           4  resource_manager.o(.data)
    .data                                    0x20000064   Section        4  idle.o(.data)
    s_idle_manager                           0x20000064   Data           4  idle.o(.data)
    .data                                    0x20000068   Section        4  locale.o(.data)
    s_locale                                 0x20000068   Data           4  locale.o(.data)
    .data                                    0x2000006c   Section        4  mutex.o(.data)
    s_tk_mutex_null                          0x2000006c   Data           4  mutex.o(.data)
    .data                                    0x20000070   Section        4  platform.o(.data)
    g_sys_tick                               0x20000070   Data           4  platform.o(.data)
    .bss                                     0x20000074   Section      200  usart.o(.bss)
    .bss                                     0x2000013c   Section       10  rtc.o(.bss)
    .bss                                     0x20000148   Section       12  touch.o(.bss)
    TouchAdj                                 0x20000148   Data          12  touch.o(.bss)
    .bss                                     0x20000154   Section     4096  flash.o(.bss)
    flashBuff                                0x20000154   Data        4096  flash.o(.bss)
    .bss                                     0x20001154   Section       16  mem.o(.bss)
    s_mem_info                               0x20001154   Data          16  mem.o(.bss)
    .bss                                     0x20001164   Section       16  system_info.o(.bss)
    info                                     0x20001164   Data          16  system_info.o(.bss)
    .bss                                     0x20001174   Section      124  main_loop_simple.o(.bss)
    s_main_loop_simple                       0x20001174   Data         124  main_loop_simple.o(.bss)
    .bss                                     0x200011f0   Section     8192  platform.o(.bss)
    s_heam_mem                               0x200011f0   Data        8192  platform.o(.bss)
    .bss                                     0x200031f0   Section       96  libspace.o(.bss)
    HEAP                                     0x20003250   Section      512  startup_stm32f10x_hd.o(HEAP)
    Heap_Mem                                 0x20003250   Data         512  startup_stm32f10x_hd.o(HEAP)
    STACK                                    0x20003450   Section     1024  startup_stm32f10x_hd.o(STACK)
    Stack_Mem                                0x20003450   Data        1024  startup_stm32f10x_hd.o(STACK)
    __initial_sp                             0x20003850   Data           0  startup_stm32f10x_hd.o(STACK)

    Global Symbols

    Symbol Name                              Value     Ov Type        Size  Object(Section)

    BuildAttributes$$THM_ISAv4$P$D$K$B$S$PE$A:L22UL41UL21$X:L11$S22US41US21$IEEE1$IW$USESV6$~STKCKD$USESV7$~SHL$OSPACE$ROPI$EBA8$UX$STANDARDLIB$REQ8$PRES8$EABIv2 0x00000000   Number         0  anon$$obj.o ABSOLUTE
    __ARM_use_no_argv                        0x00000000   Number         0  main.o ABSOLUTE
    __ARM_exceptions_init                     - Undefined Weak Reference
    __alloca_initialize                       - Undefined Weak Reference
    __arm_preinit_                            - Undefined Weak Reference
    __cpp_initialize__aeabi_                  - Undefined Weak Reference
    __cxa_finalize                            - Undefined Weak Reference
    __sigvec_lookup                           - Undefined Weak Reference
    _atexit_init                              - Undefined Weak Reference
    _call_atexit_fns                          - Undefined Weak Reference
    _clock_init                               - Undefined Weak Reference
    _fp_trap_init                             - Undefined Weak Reference
    _fp_trap_shutdown                         - Undefined Weak Reference
    _get_lc_collate                           - Undefined Weak Reference
    _get_lc_monetary                          - Undefined Weak Reference
    _get_lc_numeric                           - Undefined Weak Reference
    _get_lc_time                              - Undefined Weak Reference
    _getenv_init                              - Undefined Weak Reference
    _handle_redirection                       - Undefined Weak Reference
    _init_alloc                               - Undefined Weak Reference
    _init_user_alloc                          - Undefined Weak Reference
    _initio                                   - Undefined Weak Reference
    _mutex_acquire                            - Undefined Weak Reference
    _mutex_release                            - Undefined Weak Reference
    _printf_mbtowc                            - Undefined Weak Reference
    _printf_post_padding                      - Undefined Weak Reference
    _printf_pre_padding                       - Undefined Weak Reference
    _printf_truncate_signed                   - Undefined Weak Reference
    _printf_truncate_unsigned                 - Undefined Weak Reference
    _rand_init                                - Undefined Weak Reference
    _signal_finish                            - Undefined Weak Reference
    _signal_init                              - Undefined Weak Reference
    _terminate_alloc                          - Undefined Weak Reference
    _terminate_user_alloc                     - Undefined Weak Reference
    _terminateio                              - Undefined Weak Reference
    __Vectors_Size                           0x00000130   Number         0  startup_stm32f10x_hd.o ABSOLUTE
    __Vectors                                0x08000000   Data           4  startup_stm32f10x_hd.o(RESET)
    __Vectors_End                            0x08000130   Data           0  startup_stm32f10x_hd.o(RESET)
    __main                                   0x08000131   Thumb Code     8  __main.o(!!!main)
    __scatterload                            0x08000139   Thumb Code     0  __scatter.o(!!!scatter)
    __scatterload_rt2                        0x08000139   Thumb Code    44  __scatter.o(!!!scatter)
    __scatterload_rt2_thumb_only             0x08000139   Thumb Code     0  __scatter.o(!!!scatter)
    __scatterload_null                       0x08000147   Thumb Code     0  __scatter.o(!!!scatter)
    __scatterload_copy                       0x0800016d   Thumb Code    26  __scatter_copy.o(!!handler_copy)
    __scatterload_zeroinit                   0x08000189   Thumb Code    28  __scatter_zi.o(!!handler_zi)
    _printf_d                                0x080001a5   Thumb Code     0  _printf_d.o(.ARM.Collect$$_printf_percent$$00000009)
    _printf_percent                          0x080001a5   Thumb Code     0  _printf_percent.o(.ARM.Collect$$_printf_percent$$00000000)
    _printf_s                                0x080001ab   Thumb Code     0  _printf_s.o(.ARM.Collect$$_printf_percent$$00000014)
    _printf_percent_end                      0x080001b1   Thumb Code     0  _printf_percent_end.o(.ARM.Collect$$_printf_percent$$00000017)
    __rt_lib_init                            0x080001b5   Thumb Code     0  libinit.o(.ARM.Collect$$libinit$$00000000)
    __rt_lib_init_fp_1                       0x080001b7   Thumb Code     0  libinit2.o(.ARM.Collect$$libinit$$00000002)
    __rt_lib_init_heap_1                     0x080001b7   Thumb Code     0  libinit2.o(.ARM.Collect$$libinit$$0000000A)
    __rt_lib_init_lc_common                  0x080001b7   Thumb Code     0  libinit2.o(.ARM.Collect$$libinit$$0000000F)
    __rt_lib_init_preinit_1                  0x080001b7   Thumb Code     0  libinit2.o(.ARM.Collect$$libinit$$00000004)
    __rt_lib_init_rand_1                     0x080001b7   Thumb Code     0  libinit2.o(.ARM.Collect$$libinit$$0000000E)
    __rt_lib_init_user_alloc_1               0x080001b7   Thumb Code     0  libinit2.o(.ARM.Collect$$libinit$$0000000C)
    __rt_lib_init_lc_collate_1               0x080001bd   Thumb Code     0  libinit2.o(.ARM.Collect$$libinit$$00000011)
    __rt_lib_init_lc_ctype_2                 0x080001bd   Thumb Code     0  libinit2.o(.ARM.Collect$$libinit$$00000012)
    __rt_lib_init_alloca_1                   0x080001c9   Thumb Code     0  libinit2.o(.ARM.Collect$$libinit$$0000002E)
    __rt_lib_init_argv_1                     0x080001c9   Thumb Code     0  libinit2.o(.ARM.Collect$$libinit$$0000002C)
    __rt_lib_init_atexit_1                   0x080001c9   Thumb Code     0  libinit2.o(.ARM.Collect$$libinit$$0000001B)
    __rt_lib_init_clock_1                    0x080001c9   Thumb Code     0  libinit2.o(.ARM.Collect$$libinit$$00000021)
    __rt_lib_init_cpp_1                      0x080001c9   Thumb Code     0  libinit2.o(.ARM.Collect$$libinit$$00000032)
    __rt_lib_init_exceptions_1               0x080001c9   Thumb Code     0  libinit2.o(.ARM.Collect$$libinit$$00000030)
    __rt_lib_init_fp_trap_1                  0x080001c9   Thumb Code     0  libinit2.o(.ARM.Collect$$libinit$$0000001F)
    __rt_lib_init_getenv_1                   0x080001c9   Thumb Code     0  libinit2.o(.ARM.Collect$$libinit$$00000023)
    __rt_lib_init_lc_ctype_1                 0x080001c9   Thumb Code     0  libinit2.o(.ARM.Collect$$libinit$$00000013)
    __rt_lib_init_lc_monetary_1              0x080001c9   Thumb Code     0  libinit2.o(.ARM.Collect$$libinit$$00000015)
    __rt_lib_init_lc_numeric_1               0x080001c9   Thumb Code     0  libinit2.o(.ARM.Collect$$libinit$$00000017)
    __rt_lib_init_lc_time_1                  0x080001c9   Thumb Code     0  libinit2.o(.ARM.Collect$$libinit$$00000019)
    __rt_lib_init_return                     0x080001c9   Thumb Code     0  libinit2.o(.ARM.Collect$$libinit$$00000033)
    __rt_lib_init_signal_1                   0x080001c9   Thumb Code     0  libinit2.o(.ARM.Collect$$libinit$$0000001D)
    __rt_lib_init_stdio_1                    0x080001c9   Thumb Code     0  libinit2.o(.ARM.Collect$$libinit$$00000025)
    __rt_lib_shutdown                        0x080001cb   Thumb Code     0  libshutdown.o(.ARM.Collect$$libshutdown$$00000000)
    __rt_lib_shutdown_cpp_1                  0x080001cd   Thumb Code     0  libshutdown2.o(.ARM.Collect$$libshutdown$$00000002)
    __rt_lib_shutdown_fp_trap_1              0x080001cd   Thumb Code     0  libshutdown2.o(.ARM.Collect$$libshutdown$$00000007)
    __rt_lib_shutdown_heap_1                 0x080001cd   Thumb Code     0  libshutdown2.o(.ARM.Collect$$libshutdown$$0000000F)
    __rt_lib_shutdown_return                 0x080001cd   Thumb Code     0  libshutdown2.o(.ARM.Collect$$libshutdown$$00000010)
    __rt_lib_shutdown_signal_1               0x080001cd   Thumb Code     0  libshutdown2.o(.ARM.Collect$$libshutdown$$0000000A)
    __rt_lib_shutdown_stdio_1                0x080001cd   Thumb Code     0  libshutdown2.o(.ARM.Collect$$libshutdown$$00000004)
    __rt_lib_shutdown_user_alloc_1           0x080001cd   Thumb Code     0  libshutdown2.o(.ARM.Collect$$libshutdown$$0000000C)
    __rt_entry                               0x080001cf   Thumb Code     0  __rtentry.o(.ARM.Collect$$rtentry$$00000000)
    __rt_entry_presh_1                       0x080001cf   Thumb Code     0  __rtentry2.o(.ARM.Collect$$rtentry$$00000002)
    __rt_entry_sh                            0x080001cf   Thumb Code     0  __rtentry4.o(.ARM.Collect$$rtentry$$00000004)
    __rt_entry_li                            0x080001d5   Thumb Code     0  __rtentry2.o(.ARM.Collect$$rtentry$$0000000A)
    __rt_entry_postsh_1                      0x080001d5   Thumb Code     0  __rtentry2.o(.ARM.Collect$$rtentry$$00000009)
    __rt_entry_main                          0x080001d9   Thumb Code     0  __rtentry2.o(.ARM.Collect$$rtentry$$0000000D)
    __rt_entry_postli_1                      0x080001d9   Thumb Code     0  __rtentry2.o(.ARM.Collect$$rtentry$$0000000C)
    __rt_exit                                0x080001e1   Thumb Code     0  rtexit.o(.ARM.Collect$$rtexit$$00000000)
    __rt_exit_ls                             0x080001e3   Thumb Code     0  rtexit2.o(.ARM.Collect$$rtexit$$00000003)
    __rt_exit_prels_1                        0x080001e3   Thumb Code     0  rtexit2.o(.ARM.Collect$$rtexit$$00000002)
    __rt_exit_exit                           0x080001e7   Thumb Code     0  rtexit2.o(.ARM.Collect$$rtexit$$00000004)
    NMI_Handler                              0x080001ed   Thumb Code     2  stm32f10x_it.o(.text)
    HardFault_Handler                        0x080001ef   Thumb Code     4  stm32f10x_it.o(.text)
    MemManage_Handler                        0x080001f3   Thumb Code     4  stm32f10x_it.o(.text)
    BusFault_Handler                         0x080001f7   Thumb Code     4  stm32f10x_it.o(.text)
    UsageFault_Handler                       0x080001fb   Thumb Code     4  stm32f10x_it.o(.text)
    SVC_Handler                              0x080001ff   Thumb Code     2  stm32f10x_it.o(.text)
    DebugMon_Handler                         0x08000201   Thumb Code     2  stm32f10x_it.o(.text)
    PendSV_Handler                           0x08000203   Thumb Code     2  stm32f10x_it.o(.text)
    SystemInit                               0x080002e3   Thumb Code    78  system_stm32f10x.o(.text)
    SystemCoreClockUpdate                    0x08000331   Thumb Code   142  system_stm32f10x.o(.text)
    main                                     0x080003e5   Thumb Code    64  main.o(.text)
    _sys_exit                                0x08000425   Thumb Code     6  usart.o(.text)
    fputc                                    0x0800042b   Thumb Code     2  usart.o(.text)
    uart_init                                0x0800042d   Thumb Code   152  usart.o(.text)
    USART1_IRQHandler                        0x080004c5   Thumb Code   122  usart.o(.text)
    Reset_Handler                            0x08000551   Thumb Code     8  startup_stm32f10x_hd.o(.text)
    ADC1_2_IRQHandler                        0x0800056b   Thumb Code     0  startup_stm32f10x_hd.o(.text)
    ADC3_IRQHandler                          0x0800056b   Thumb Code     0  startup_stm32f10x_hd.o(.text)
    CAN1_RX1_IRQHandler                      0x0800056b   Thumb Code     0  startup_stm32f10x_hd.o(.text)
    CAN1_SCE_IRQHandler                      0x0800056b   Thumb Code     0  startup_stm32f10x_hd.o(.text)
    DMA1_Channel1_IRQHandler                 0x0800056b   Thumb Code     0  startup_stm32f10x_hd.o(.text)
    DMA1_Channel2_IRQHandler                 0x0800056b   Thumb Code     0  startup_stm32f10x_hd.o(.text)
    DMA1_Channel3_IRQHandler                 0x0800056b   Thumb Code     0  startup_stm32f10x_hd.o(.text)
    DMA1_Channel4_IRQHandler                 0x0800056b   Thumb Code     0  startup_stm32f10x_hd.o(.text)
    DMA1_Channel5_IRQHandler                 0x0800056b   Thumb Code     0  startup_stm32f10x_hd.o(.text)
    DMA1_Channel6_IRQHandler                 0x0800056b   Thumb Code     0  startup_stm32f10x_hd.o(.text)
    DMA1_Channel7_IRQHandler                 0x0800056b   Thumb Code     0  startup_stm32f10x_hd.o(.text)
    DMA2_Channel1_IRQHandler                 0x0800056b   Thumb Code     0  startup_stm32f10x_hd.o(.text)
    DMA2_Channel2_IRQHandler                 0x0800056b   Thumb Code     0  startup_stm32f10x_hd.o(.text)
    DMA2_Channel3_IRQHandler                 0x0800056b   Thumb Code     0  startup_stm32f10x_hd.o(.text)
    DMA2_Channel4_5_IRQHandler               0x0800056b   Thumb Code     0  startup_stm32f10x_hd.o(.text)
    EXTI0_IRQHandler                         0x0800056b   Thumb Code     0  startup_stm32f10x_hd.o(.text)
    EXTI15_10_IRQHandler                     0x0800056b   Thumb Code     0  startup_stm32f10x_hd.o(.text)
    EXTI1_IRQHandler                         0x0800056b   Thumb Code     0  startup_stm32f10x_hd.o(.text)
    EXTI2_IRQHandler                         0x0800056b   Thumb Code     0  startup_stm32f10x_hd.o(.text)
    EXTI3_IRQHandler                         0x0800056b   Thumb Code     0  startup_stm32f10x_hd.o(.text)
    EXTI4_IRQHandler                         0x0800056b   Thumb Code     0  startup_stm32f10x_hd.o(.text)
    EXTI9_5_IRQHandler                       0x0800056b   Thumb Code     0  startup_stm32f10x_hd.o(.text)
    FLASH_IRQHandler                         0x0800056b   Thumb Code     0  startup_stm32f10x_hd.o(.text)
    FSMC_IRQHandler                          0x0800056b   Thumb Code     0  startup_stm32f10x_hd.o(.text)
    I2C1_ER_IRQHandler                       0x0800056b   Thumb Code     0  startup_stm32f10x_hd.o(.text)
    I2C1_EV_IRQHandler                       0x0800056b   Thumb Code     0  startup_stm32f10x_hd.o(.text)
    I2C2_ER_IRQHandler                       0x0800056b   Thumb Code     0  startup_stm32f10x_hd.o(.text)
    I2C2_EV_IRQHandler                       0x0800056b   Thumb Code     0  startup_stm32f10x_hd.o(.text)
    PVD_IRQHandler                           0x0800056b   Thumb Code     0  startup_stm32f10x_hd.o(.text)
    RCC_IRQHandler                           0x0800056b   Thumb Code     0  startup_stm32f10x_hd.o(.text)
    RTCAlarm_IRQHandler                      0x0800056b   Thumb Code     0  startup_stm32f10x_hd.o(.text)
    SDIO_IRQHandler                          0x0800056b   Thumb Code     0  startup_stm32f10x_hd.o(.text)
    SPI1_IRQHandler                          0x0800056b   Thumb Code     0  startup_stm32f10x_hd.o(.text)
    SPI2_IRQHandler                          0x0800056b   Thumb Code     0  startup_stm32f10x_hd.o(.text)
    SPI3_IRQHandler                          0x0800056b   Thumb Code     0  startup_stm32f10x_hd.o(.text)
    TAMPER_IRQHandler                        0x0800056b   Thumb Code     0  startup_stm32f10x_hd.o(.text)
    TIM1_BRK_IRQHandler                      0x0800056b   Thumb Code     0  startup_stm32f10x_hd.o(.text)
    TIM1_CC_IRQHandler                       0x0800056b   Thumb Code     0  startup_stm32f10x_hd.o(.text)
    TIM1_TRG_COM_IRQHandler                  0x0800056b   Thumb Code     0  startup_stm32f10x_hd.o(.text)
    TIM1_UP_IRQHandler                       0x0800056b   Thumb Code     0  startup_stm32f10x_hd.o(.text)
    TIM2_IRQHandler                          0x0800056b   Thumb Code     0  startup_stm32f10x_hd.o(.text)
    TIM4_IRQHandler                          0x0800056b   Thumb Code     0  startup_stm32f10x_hd.o(.text)
    TIM6_IRQHandler                          0x0800056b   Thumb Code     0  startup_stm32f10x_hd.o(.text)
    TIM7_IRQHandler                          0x0800056b   Thumb Code     0  startup_stm32f10x_hd.o(.text)
    TIM8_BRK_IRQHandler                      0x0800056b   Thumb Code     0  startup_stm32f10x_hd.o(.text)
    TIM8_CC_IRQHandler                       0x0800056b   Thumb Code     0  startup_stm32f10x_hd.o(.text)
    TIM8_TRG_COM_IRQHandler                  0x0800056b   Thumb Code     0  startup_stm32f10x_hd.o(.text)
    TIM8_UP_IRQHandler                       0x0800056b   Thumb Code     0  startup_stm32f10x_hd.o(.text)
    UART4_IRQHandler                         0x0800056b   Thumb Code     0  startup_stm32f10x_hd.o(.text)
    UART5_IRQHandler                         0x0800056b   Thumb Code     0  startup_stm32f10x_hd.o(.text)
    USART2_IRQHandler                        0x0800056b   Thumb Code     0  startup_stm32f10x_hd.o(.text)
    USART3_IRQHandler                        0x0800056b   Thumb Code     0  startup_stm32f10x_hd.o(.text)
    USBWakeUp_IRQHandler                     0x0800056b   Thumb Code     0  startup_stm32f10x_hd.o(.text)
    USB_HP_CAN1_TX_IRQHandler                0x0800056b   Thumb Code     0  startup_stm32f10x_hd.o(.text)
    USB_LP_CAN1_RX0_IRQHandler               0x0800056b   Thumb Code     0  startup_stm32f10x_hd.o(.text)
    WWDG_IRQHandler                          0x0800056b   Thumb Code     0  startup_stm32f10x_hd.o(.text)
    __user_initial_stackheap                 0x0800056d   Thumb Code     0  startup_stm32f10x_hd.o(.text)
    NVIC_PriorityGroupConfig                 0x08000591   Thumb Code    10  misc.o(.text)
    NVIC_Init                                0x0800059b   Thumb Code   100  misc.o(.text)
    NVIC_SetVectorTable                      0x080005ff   Thumb Code    14  misc.o(.text)
    NVIC_SystemLPConfig                      0x0800060d   Thumb Code    34  misc.o(.text)
    SysTick_CLKSourceConfig                  0x0800062f   Thumb Code    40  misc.o(.text)
    GPIO_DeInit                              0x0800066d   Thumb Code   172  stm32f10x_gpio.o(.text)
    GPIO_AFIODeInit                          0x08000719   Thumb Code    20  stm32f10x_gpio.o(.text)
    GPIO_Init                                0x0800072d   Thumb Code   278  stm32f10x_gpio.o(.text)
    GPIO_StructInit                          0x08000843   Thumb Code    16  stm32f10x_gpio.o(.text)
    GPIO_ReadInputDataBit                    0x08000853   Thumb Code    18  stm32f10x_gpio.o(.text)
    GPIO_ReadInputData                       0x08000865   Thumb Code     8  stm32f10x_gpio.o(.text)
    GPIO_ReadOutputDataBit                   0x0800086d   Thumb Code    18  stm32f10x_gpio.o(.text)
    GPIO_ReadOutputData                      0x0800087f   Thumb Code     8  stm32f10x_gpio.o(.text)
    GPIO_SetBits                             0x08000887   Thumb Code     4  stm32f10x_gpio.o(.text)
    GPIO_ResetBits                           0x0800088b   Thumb Code     4  stm32f10x_gpio.o(.text)
    GPIO_WriteBit                            0x0800088f   Thumb Code    10  stm32f10x_gpio.o(.text)
    GPIO_Write                               0x08000899   Thumb Code     4  stm32f10x_gpio.o(.text)
    GPIO_PinLockConfig                       0x0800089d   Thumb Code    18  stm32f10x_gpio.o(.text)
    GPIO_EventOutputConfig                   0x080008af   Thumb Code    26  stm32f10x_gpio.o(.text)
    GPIO_EventOutputCmd                      0x080008c9   Thumb Code     6  stm32f10x_gpio.o(.text)
    GPIO_PinRemapConfig                      0x080008cf   Thumb Code   138  stm32f10x_gpio.o(.text)
    GPIO_EXTILineConfig                      0x08000959   Thumb Code    66  stm32f10x_gpio.o(.text)
    GPIO_ETH_MediaInterfaceConfig            0x0800099b   Thumb Code     8  stm32f10x_gpio.o(.text)
    RCC_DeInit                               0x080009c9   Thumb Code    64  stm32f10x_rcc.o(.text)
    RCC_HSEConfig                            0x08000a09   Thumb Code    70  stm32f10x_rcc.o(.text)
    RCC_GetFlagStatus                        0x08000a4f   Thumb Code    56  stm32f10x_rcc.o(.text)
    RCC_WaitForHSEStartUp                    0x08000a87   Thumb Code    56  stm32f10x_rcc.o(.text)
    RCC_AdjustHSICalibrationValue            0x08000abf   Thumb Code    20  stm32f10x_rcc.o(.text)
    RCC_HSICmd                               0x08000ad3   Thumb Code     6  stm32f10x_rcc.o(.text)
    RCC_PLLConfig                            0x08000ad9   Thumb Code    24  stm32f10x_rcc.o(.text)
    RCC_PLLCmd                               0x08000af1   Thumb Code     6  stm32f10x_rcc.o(.text)
    RCC_SYSCLKConfig                         0x08000af7   Thumb Code    18  stm32f10x_rcc.o(.text)
    RCC_GetSYSCLKSource                      0x08000b09   Thumb Code    10  stm32f10x_rcc.o(.text)
    RCC_HCLKConfig                           0x08000b13   Thumb Code    18  stm32f10x_rcc.o(.text)
    RCC_PCLK1Config                          0x08000b25   Thumb Code    18  stm32f10x_rcc.o(.text)
    RCC_PCLK2Config                          0x08000b37   Thumb Code    20  stm32f10x_rcc.o(.text)
    RCC_ITConfig                             0x08000b4b   Thumb Code    26  stm32f10x_rcc.o(.text)
    RCC_USBCLKConfig                         0x08000b65   Thumb Code     8  stm32f10x_rcc.o(.text)
    RCC_ADCCLKConfig                         0x08000b6d   Thumb Code    18  stm32f10x_rcc.o(.text)
    RCC_LSEConfig                            0x08000b7f   Thumb Code    50  stm32f10x_rcc.o(.text)
    RCC_LSICmd                               0x08000bb1   Thumb Code     6  stm32f10x_rcc.o(.text)
    RCC_RTCCLKConfig                         0x08000bb7   Thumb Code    12  stm32f10x_rcc.o(.text)
    RCC_RTCCLKCmd                            0x08000bc3   Thumb Code     8  stm32f10x_rcc.o(.text)
    RCC_GetClocksFreq                        0x08000bcb   Thumb Code   192  stm32f10x_rcc.o(.text)
    RCC_AHBPeriphClockCmd                    0x08000c8b   Thumb Code    26  stm32f10x_rcc.o(.text)
    RCC_APB2PeriphClockCmd                   0x08000ca5   Thumb Code    26  stm32f10x_rcc.o(.text)
    RCC_APB1PeriphClockCmd                   0x08000cbf   Thumb Code    26  stm32f10x_rcc.o(.text)
    RCC_APB2PeriphResetCmd                   0x08000cd9   Thumb Code    26  stm32f10x_rcc.o(.text)
    RCC_APB1PeriphResetCmd                   0x08000cf3   Thumb Code    26  stm32f10x_rcc.o(.text)
    RCC_BackupResetCmd                       0x08000d0d   Thumb Code     8  stm32f10x_rcc.o(.text)
    RCC_ClockSecuritySystemCmd               0x08000d15   Thumb Code     6  stm32f10x_rcc.o(.text)
    RCC_MCOConfig                            0x08000d1b   Thumb Code     6  stm32f10x_rcc.o(.text)
    RCC_ClearFlag                            0x08000d21   Thumb Code    14  stm32f10x_rcc.o(.text)
    RCC_GetITStatus                          0x08000d2f   Thumb Code    20  stm32f10x_rcc.o(.text)
    RCC_ClearITPendingBit                    0x08000d43   Thumb Code     6  stm32f10x_rcc.o(.text)
    USART_DeInit                             0x08000d6d   Thumb Code   134  stm32f10x_usart.o(.text)
    USART_Init                               0x08000df3   Thumb Code   210  stm32f10x_usart.o(.text)
    USART_StructInit                         0x08000ec5   Thumb Code    24  stm32f10x_usart.o(.text)
    USART_ClockInit                          0x08000edd   Thumb Code    34  stm32f10x_usart.o(.text)
    USART_ClockStructInit                    0x08000eff   Thumb Code    12  stm32f10x_usart.o(.text)
    USART_Cmd                                0x08000f0b   Thumb Code    24  stm32f10x_usart.o(.text)
    USART_ITConfig                           0x08000f23   Thumb Code    74  stm32f10x_usart.o(.text)
    USART_DMACmd                             0x08000f6d   Thumb Code    18  stm32f10x_usart.o(.text)
    USART_SetAddress                         0x08000f7f   Thumb Code    18  stm32f10x_usart.o(.text)
    USART_WakeUpConfig                       0x08000f91   Thumb Code    18  stm32f10x_usart.o(.text)
    USART_ReceiverWakeUpCmd                  0x08000fa3   Thumb Code    24  stm32f10x_usart.o(.text)
    USART_LINBreakDetectLengthConfig         0x08000fbb   Thumb Code    18  stm32f10x_usart.o(.text)
    USART_LINCmd                             0x08000fcd   Thumb Code    24  stm32f10x_usart.o(.text)
    USART_SendData                           0x08000fe5   Thumb Code     8  stm32f10x_usart.o(.text)
    USART_ReceiveData                        0x08000fed   Thumb Code    10  stm32f10x_usart.o(.text)
    USART_SendBreak                          0x08000ff7   Thumb Code    10  stm32f10x_usart.o(.text)
    USART_SetGuardTime                       0x08001001   Thumb Code    16  stm32f10x_usart.o(.text)
    USART_SetPrescaler                       0x08001011   Thumb Code    16  stm32f10x_usart.o(.text)
    USART_SmartCardCmd                       0x08001021   Thumb Code    24  stm32f10x_usart.o(.text)
    USART_SmartCardNACKCmd                   0x08001039   Thumb Code    24  stm32f10x_usart.o(.text)
    USART_HalfDuplexCmd                      0x08001051   Thumb Code    24  stm32f10x_usart.o(.text)
    USART_OverSampling8Cmd                   0x08001069   Thumb Code    22  stm32f10x_usart.o(.text)
    USART_OneBitMethodCmd                    0x0800107f   Thumb Code    24  stm32f10x_usart.o(.text)
    USART_IrDAConfig                         0x08001097   Thumb Code    18  stm32f10x_usart.o(.text)
    USART_IrDACmd                            0x080010a9   Thumb Code    24  stm32f10x_usart.o(.text)
    USART_GetFlagStatus                      0x080010c1   Thumb Code    26  stm32f10x_usart.o(.text)
    USART_ClearFlag                          0x080010db   Thumb Code    18  stm32f10x_usart.o(.text)
    USART_GetITStatus                        0x080010ed   Thumb Code    84  stm32f10x_usart.o(.text)
    USART_ClearITPendingBit                  0x08001141   Thumb Code    52  stm32f10x_usart.o(.text)
    TIM_DeInit                               0x08001175   Thumb Code   424  stm32f10x_tim.o(.text)
    TIM_TimeBaseInit                         0x0800131d   Thumb Code   122  stm32f10x_tim.o(.text)
    TIM_OC1Init                              0x08001397   Thumb Code   132  stm32f10x_tim.o(.text)
    TIM_OC2Init                              0x0800141b   Thumb Code   154  stm32f10x_tim.o(.text)
    TIM_OC3Init                              0x080014b5   Thumb Code   150  stm32f10x_tim.o(.text)
    TIM_OC4Init                              0x0800154b   Thumb Code   182  stm32f10x_tim.o(.text)
    TIM_SetIC4Prescaler                      0x08001601   Thumb Code    26  stm32f10x_tim.o(.text)
    TIM_SetIC3Prescaler                      0x0800169d   Thumb Code    18  stm32f10x_tim.o(.text)
    TIM_SetIC2Prescaler                      0x08001729   Thumb Code    26  stm32f10x_tim.o(.text)
    TIM_SetIC1Prescaler                      0x080017c5   Thumb Code    18  stm32f10x_tim.o(.text)
    TIM_ICInit                               0x08001843   Thumb Code   150  stm32f10x_tim.o(.text)
    TIM_PWMIConfig                           0x080018d9   Thumb Code   124  stm32f10x_tim.o(.text)
    TIM_BDTRConfig                           0x08001955   Thumb Code    32  stm32f10x_tim.o(.text)
    TIM_TimeBaseStructInit                   0x08001975   Thumb Code    18  stm32f10x_tim.o(.text)
    TIM_OCStructInit                         0x08001987   Thumb Code    20  stm32f10x_tim.o(.text)
    TIM_ICStructInit                         0x0800199b   Thumb Code    18  stm32f10x_tim.o(.text)
    TIM_BDTRStructInit                       0x080019ad   Thumb Code    40  stm32f10x_tim.o(.text)
    TIM_Cmd                                  0x080019d5   Thumb Code    24  stm32f10x_tim.o(.text)
    TIM_CtrlPWMOutputs                       0x080019ed   Thumb Code    30  stm32f10x_tim.o(.text)
    TIM_ITConfig                             0x08001a0b   Thumb Code    18  stm32f10x_tim.o(.text)
    TIM_GenerateEvent                        0x08001a1d   Thumb Code     4  stm32f10x_tim.o(.text)
    TIM_DMAConfig                            0x08001a21   Thumb Code    10  stm32f10x_tim.o(.text)
    TIM_DMACmd                               0x08001a2b   Thumb Code    18  stm32f10x_tim.o(.text)
    TIM_InternalClockConfig                  0x08001a3d   Thumb Code    12  stm32f10x_tim.o(.text)
    TIM_SelectInputTrigger                   0x08001a49   Thumb Code    18  stm32f10x_tim.o(.text)
    TIM_ITRxExternalClockConfig              0x08001a5b   Thumb Code    24  stm32f10x_tim.o(.text)
    TIM_TIxExternalClockConfig               0x08001a73   Thumb Code    62  stm32f10x_tim.o(.text)
    TIM_ETRConfig                            0x08001ab1   Thumb Code    28  stm32f10x_tim.o(.text)
    TIM_ETRClockMode1Config                  0x08001acd   Thumb Code    54  stm32f10x_tim.o(.text)
    TIM_ETRClockMode2Config                  0x08001b03   Thumb Code    32  stm32f10x_tim.o(.text)
    TIM_PrescalerConfig                      0x08001b23   Thumb Code     6  stm32f10x_tim.o(.text)
    TIM_CounterModeConfig                    0x08001b29   Thumb Code    18  stm32f10x_tim.o(.text)
    TIM_EncoderInterfaceConfig               0x08001b3b   Thumb Code    66  stm32f10x_tim.o(.text)
    TIM_ForcedOC1Config                      0x08001b7d   Thumb Code    18  stm32f10x_tim.o(.text)
    TIM_ForcedOC2Config                      0x08001b8f   Thumb Code    26  stm32f10x_tim.o(.text)
    TIM_ForcedOC3Config                      0x08001ba9   Thumb Code    18  stm32f10x_tim.o(.text)
    TIM_ForcedOC4Config                      0x08001bbb   Thumb Code    26  stm32f10x_tim.o(.text)
    TIM_ARRPreloadConfig                     0x08001bd5   Thumb Code    24  stm32f10x_tim.o(.text)
    TIM_SelectCOM                            0x08001bed   Thumb Code    24  stm32f10x_tim.o(.text)
    TIM_SelectCCDMA                          0x08001c05   Thumb Code    24  stm32f10x_tim.o(.text)
    TIM_CCPreloadControl                     0x08001c1d   Thumb Code    24  stm32f10x_tim.o(.text)
    TIM_OC1PreloadConfig                     0x08001c35   Thumb Code    18  stm32f10x_tim.o(.text)
    TIM_OC2PreloadConfig                     0x08001c47   Thumb Code    26  stm32f10x_tim.o(.text)
    TIM_OC3PreloadConfig                     0x08001c61   Thumb Code    18  stm32f10x_tim.o(.text)
    TIM_OC4PreloadConfig                     0x08001c73   Thumb Code    26  stm32f10x_tim.o(.text)
    TIM_OC1FastConfig                        0x08001c8d   Thumb Code    18  stm32f10x_tim.o(.text)
    TIM_OC2FastConfig                        0x08001c9f   Thumb Code    26  stm32f10x_tim.o(.text)
    TIM_OC3FastConfig                        0x08001cb9   Thumb Code    18  stm32f10x_tim.o(.text)
    TIM_OC4FastConfig                        0x08001ccb   Thumb Code    26  stm32f10x_tim.o(.text)
    TIM_ClearOC1Ref                          0x08001ce5   Thumb Code    18  stm32f10x_tim.o(.text)
    TIM_ClearOC2Ref                          0x08001cf7   Thumb Code    24  stm32f10x_tim.o(.text)
    TIM_ClearOC3Ref                          0x08001d0f   Thumb Code    18  stm32f10x_tim.o(.text)
    TIM_ClearOC4Ref                          0x08001d21   Thumb Code    24  stm32f10x_tim.o(.text)
    TIM_OC1PolarityConfig                    0x08001d39   Thumb Code    18  stm32f10x_tim.o(.text)
    TIM_OC1NPolarityConfig                   0x08001d4b   Thumb Code    18  stm32f10x_tim.o(.text)
    TIM_OC2PolarityConfig                    0x08001d5d   Thumb Code    26  stm32f10x_tim.o(.text)
    TIM_OC2NPolarityConfig                   0x08001d77   Thumb Code    26  stm32f10x_tim.o(.text)
    TIM_OC3PolarityConfig                    0x08001d91   Thumb Code    26  stm32f10x_tim.o(.text)
    TIM_OC3NPolarityConfig                   0x08001dab   Thumb Code    26  stm32f10x_tim.o(.text)
    TIM_OC4PolarityConfig                    0x08001dc5   Thumb Code    26  stm32f10x_tim.o(.text)
    TIM_CCxCmd                               0x08001ddf   Thumb Code    30  stm32f10x_tim.o(.text)
    TIM_CCxNCmd                              0x08001dfd   Thumb Code    30  stm32f10x_tim.o(.text)
    TIM_SelectOCxM                           0x08001e1b   Thumb Code    82  stm32f10x_tim.o(.text)
    TIM_UpdateDisableConfig                  0x08001e6d   Thumb Code    24  stm32f10x_tim.o(.text)
    TIM_UpdateRequestConfig                  0x08001e85   Thumb Code    24  stm32f10x_tim.o(.text)
    TIM_SelectHallSensor                     0x08001e9d   Thumb Code    24  stm32f10x_tim.o(.text)
    TIM_SelectOnePulseMode                   0x08001eb5   Thumb Code    18  stm32f10x_tim.o(.text)
    TIM_SelectOutputTrigger                  0x08001ec7   Thumb Code    18  stm32f10x_tim.o(.text)
    TIM_SelectSlaveMode                      0x08001ed9   Thumb Code    18  stm32f10x_tim.o(.text)
    TIM_SelectMasterSlaveMode                0x08001eeb   Thumb Code    18  stm32f10x_tim.o(.text)
    TIM_SetCounter                           0x08001efd   Thumb Code     4  stm32f10x_tim.o(.text)
    TIM_SetAutoreload                        0x08001f01   Thumb Code     4  stm32f10x_tim.o(.text)
    TIM_SetCompare1                          0x08001f05   Thumb Code     4  stm32f10x_tim.o(.text)
    TIM_SetCompare2                          0x08001f09   Thumb Code     4  stm32f10x_tim.o(.text)
    TIM_SetCompare3                          0x08001f0d   Thumb Code     4  stm32f10x_tim.o(.text)
    TIM_SetCompare4                          0x08001f11   Thumb Code     6  stm32f10x_tim.o(.text)
    TIM_SetClockDivision                     0x08001f17   Thumb Code    18  stm32f10x_tim.o(.text)
    TIM_GetCapture1                          0x08001f29   Thumb Code     6  stm32f10x_tim.o(.text)
    TIM_GetCapture2                          0x08001f2f   Thumb Code     6  stm32f10x_tim.o(.text)
    TIM_GetCapture3                          0x08001f35   Thumb Code     6  stm32f10x_tim.o(.text)
    TIM_GetCapture4                          0x08001f3b   Thumb Code     8  stm32f10x_tim.o(.text)
    TIM_GetCounter                           0x08001f43   Thumb Code     6  stm32f10x_tim.o(.text)
    TIM_GetPrescaler                         0x08001f49   Thumb Code     6  stm32f10x_tim.o(.text)
    TIM_GetFlagStatus                        0x08001f4f   Thumb Code    18  stm32f10x_tim.o(.text)
    TIM_ClearFlag                            0x08001f61   Thumb Code     6  stm32f10x_tim.o(.text)
    TIM_GetITStatus                          0x08001f67   Thumb Code    34  stm32f10x_tim.o(.text)
    TIM_ClearITPendingBit                    0x08001f89   Thumb Code     6  stm32f10x_tim.o(.text)
    FSMC_NORSRAMDeInit                       0x08001f91   Thumb Code    54  stm32f10x_fsmc.o(.text)
    FSMC_NANDDeInit                          0x08001fc7   Thumb Code    62  stm32f10x_fsmc.o(.text)
    FSMC_PCCARDDeInit                        0x08002005   Thumb Code    36  stm32f10x_fsmc.o(.text)
    FSMC_NORSRAMInit                         0x08002029   Thumb Code   230  stm32f10x_fsmc.o(.text)
    FSMC_NANDInit                            0x0800210f   Thumb Code   132  stm32f10x_fsmc.o(.text)
    FSMC_PCCARDInit                          0x08002193   Thumb Code   130  stm32f10x_fsmc.o(.text)
    FSMC_NORSRAMStructInit                   0x08002215   Thumb Code   114  stm32f10x_fsmc.o(.text)
    FSMC_NANDStructInit                      0x08002287   Thumb Code    54  stm32f10x_fsmc.o(.text)
    FSMC_PCCARDStructInit                    0x080022bd   Thumb Code    60  stm32f10x_fsmc.o(.text)
    FSMC_NORSRAMCmd                          0x080022f9   Thumb Code    46  stm32f10x_fsmc.o(.text)
    FSMC_NANDCmd                             0x08002327   Thumb Code    86  stm32f10x_fsmc.o(.text)
    FSMC_PCCARDCmd                           0x0800237d   Thumb Code    44  stm32f10x_fsmc.o(.text)
    FSMC_NANDECCCmd                          0x080023a9   Thumb Code    90  stm32f10x_fsmc.o(.text)
    FSMC_GetECC                              0x08002403   Thumb Code    24  stm32f10x_fsmc.o(.text)
    FSMC_ITConfig                            0x0800241b   Thumb Code   128  stm32f10x_fsmc.o(.text)
    FSMC_GetFlagStatus                       0x0800249b   Thumb Code    54  stm32f10x_fsmc.o(.text)
    FSMC_ClearFlag                           0x080024d1   Thumb Code    62  stm32f10x_fsmc.o(.text)
    FSMC_GetITStatus                         0x0800250f   Thumb Code    64  stm32f10x_fsmc.o(.text)
    FSMC_ClearITPendingBit                   0x0800254f   Thumb Code    68  stm32f10x_fsmc.o(.text)
    BKP_DeInit                               0x0800259d   Thumb Code    16  stm32f10x_bkp.o(.text)
    BKP_TamperPinLevelConfig                 0x080025ad   Thumb Code     6  stm32f10x_bkp.o(.text)
    BKP_TamperPinCmd                         0x080025b3   Thumb Code     8  stm32f10x_bkp.o(.text)
    BKP_ITConfig                             0x080025bb   Thumb Code     8  stm32f10x_bkp.o(.text)
    BKP_RTCOutputConfig                      0x080025c3   Thumb Code    22  stm32f10x_bkp.o(.text)
    BKP_SetRTCCalibrationValue               0x080025d9   Thumb Code    22  stm32f10x_bkp.o(.text)
    BKP_WriteBackupRegister                  0x080025ef   Thumb Code    24  stm32f10x_bkp.o(.text)
    BKP_ReadBackupRegister                   0x08002607   Thumb Code    26  stm32f10x_bkp.o(.text)
    BKP_GetFlagStatus                        0x08002621   Thumb Code    10  stm32f10x_bkp.o(.text)
    BKP_ClearFlag                            0x0800262b   Thumb Code    18  stm32f10x_bkp.o(.text)
    BKP_GetITStatus                          0x0800263d   Thumb Code    10  stm32f10x_bkp.o(.text)
    BKP_ClearITPendingBit                    0x08002647   Thumb Code    18  stm32f10x_bkp.o(.text)
    RTC_ITConfig                             0x08002661   Thumb Code    26  stm32f10x_rtc.o(.text)
    RTC_EnterConfigMode                      0x0800267b   Thumb Code    18  stm32f10x_rtc.o(.text)
    RTC_ExitConfigMode                       0x0800268d   Thumb Code    20  stm32f10x_rtc.o(.text)
    RTC_GetCounter                           0x080026a1   Thumb Code    18  stm32f10x_rtc.o(.text)
    RTC_SetCounter                           0x080026b3   Thumb Code    26  stm32f10x_rtc.o(.text)
    RTC_SetPrescaler                         0x080026cd   Thumb Code    28  stm32f10x_rtc.o(.text)
    RTC_SetAlarm                             0x080026e9   Thumb Code    26  stm32f10x_rtc.o(.text)
    RTC_GetDivider                           0x08002703   Thumb Code    22  stm32f10x_rtc.o(.text)
    RTC_WaitForLastTask                      0x08002719   Thumb Code    18  stm32f10x_rtc.o(.text)
    RTC_WaitForSynchro                       0x0800272b   Thumb Code    36  stm32f10x_rtc.o(.text)
    RTC_GetFlagStatus                        0x0800274f   Thumb Code    22  stm32f10x_rtc.o(.text)
    RTC_ClearFlag                            0x08002765   Thumb Code    16  stm32f10x_rtc.o(.text)
    RTC_GetITStatus                          0x08002775   Thumb Code    32  stm32f10x_rtc.o(.text)
    RTC_ClearITPendingBit                    0x08002795   Thumb Code    16  stm32f10x_rtc.o(.text)
    PWR_DeInit                               0x080027a9   Thumb Code    22  stm32f10x_pwr.o(.text)
    PWR_BackupAccessCmd                      0x080027bf   Thumb Code     6  stm32f10x_pwr.o(.text)
    PWR_PVDCmd                               0x080027c5   Thumb Code     6  stm32f10x_pwr.o(.text)
    PWR_PVDLevelConfig                       0x080027cb   Thumb Code    18  stm32f10x_pwr.o(.text)
    PWR_WakeUpPinCmd                         0x080027dd   Thumb Code     8  stm32f10x_pwr.o(.text)
    PWR_EnterSTOPMode                        0x080027e5   Thumb Code    54  stm32f10x_pwr.o(.text)
    PWR_EnterSTANDBYMode                     0x0800281b   Thumb Code    42  stm32f10x_pwr.o(.text)
    PWR_GetFlagStatus                        0x08002845   Thumb Code    20  stm32f10x_pwr.o(.text)
    PWR_ClearFlag                            0x08002859   Thumb Code    14  stm32f10x_pwr.o(.text)
    SPI_I2S_DeInit                           0x08002875   Thumb Code    76  stm32f10x_spi.o(.text)
    SPI_Init                                 0x080028c1   Thumb Code    60  stm32f10x_spi.o(.text)
    I2S_Init                                 0x080028fd   Thumb Code   226  stm32f10x_spi.o(.text)
    SPI_StructInit                           0x080029df   Thumb Code    24  stm32f10x_spi.o(.text)
    I2S_StructInit                           0x080029f7   Thumb Code    20  stm32f10x_spi.o(.text)
    SPI_Cmd                                  0x08002a0b   Thumb Code    24  stm32f10x_spi.o(.text)
    I2S_Cmd                                  0x08002a23   Thumb Code    24  stm32f10x_spi.o(.text)
    SPI_I2S_ITConfig                         0x08002a3b   Thumb Code    32  stm32f10x_spi.o(.text)
    SPI_I2S_DMACmd                           0x08002a5b   Thumb Code    18  stm32f10x_spi.o(.text)
    SPI_I2S_SendData                         0x08002a6d   Thumb Code     4  stm32f10x_spi.o(.text)
    SPI_I2S_ReceiveData                      0x08002a71   Thumb Code     6  stm32f10x_spi.o(.text)
    SPI_NSSInternalSoftwareConfig            0x08002a77   Thumb Code    30  stm32f10x_spi.o(.text)
    SPI_SSOutputCmd                          0x08002a95   Thumb Code    24  stm32f10x_spi.o(.text)
    SPI_DataSizeConfig                       0x08002aad   Thumb Code    18  stm32f10x_spi.o(.text)
    SPI_TransmitCRC                          0x08002abf   Thumb Code    10  stm32f10x_spi.o(.text)
    SPI_CalculateCRC                         0x08002ac9   Thumb Code    24  stm32f10x_spi.o(.text)
    SPI_GetCRC                               0x08002ae1   Thumb Code    16  stm32f10x_spi.o(.text)
    SPI_GetCRCPolynomial                     0x08002af1   Thumb Code     6  stm32f10x_spi.o(.text)
    SPI_BiDirectionalLineConfig              0x08002af7   Thumb Code    28  stm32f10x_spi.o(.text)
    SPI_I2S_GetFlagStatus                    0x08002b13   Thumb Code    18  stm32f10x_spi.o(.text)
    SPI_I2S_ClearFlag                        0x08002b25   Thumb Code     6  stm32f10x_spi.o(.text)
    SPI_I2S_GetITStatus                      0x08002b2b   Thumb Code    52  stm32f10x_spi.o(.text)
    SPI_I2S_ClearITPendingBit                0x08002b5f   Thumb Code    20  stm32f10x_spi.o(.text)
    led_init                                 0x08002b81   Thumb Code    50  led.o(.text)
    led_run                                  0x08002bb3   Thumb Code   104  led.o(.text)
    TFT_GPIO_Config                          0x08002c25   Thumb Code    74  lcd_driver.o(.text)
    TFT_FSMC_Config                          0x08002c6f   Thumb Code    86  lcd_driver.o(.text)
    TFT_WriteCmd                             0x08002cc5   Thumb Code     6  lcd_driver.o(.text)
    TFT_WriteData                            0x08002ccb   Thumb Code     8  lcd_driver.o(.text)
    TFT_Init                                 0x08002cd3   Thumb Code   374  lcd_driver.o(.text)
    TFT_SetWindow                            0x08002e49   Thumb Code    74  lcd_driver.o(.text)
    TFT_ClearScreen                          0x08002e93   Thumb Code    56  lcd_driver.o(.text)
    button_init                              0x08002edd   Thumb Code    60  button.o(.text)
    keyscan                                  0x08002f19   Thumb Code   184  button.o(.text)
    tim3_pwm_init                            0x08002fdd   Thumb Code   134  tim.o(.text)
    TIM3_Init                                0x08003063   Thumb Code    94  tim.o(.text)
    tim5_input1_init                         0x080030c1   Thumb Code   140  tim.o(.text)
    TIM5_IRQHandler                          0x0800314d   Thumb Code   180  tim.o(.text)
    RTC_NVIC_Config                          0x08003219   Thumb Code    32  rtc.o(.text)
    RTC_Get_Week                             0x08003239   Thumb Code   116  rtc.o(.text)
    Is_Leap_Year                             0x080032ad   Thumb Code    58  rtc.o(.text)
    RTC_Get                                  0x080032e7   Thumb Code   240  rtc.o(.text)
    RTC_IRQHandler                           0x080033d7   Thumb Code    82  rtc.o(.text)
    RTC_Set                                  0x08003429   Thumb Code   184  rtc.o(.text)
    rtc_init                                 0x080034e1   Thumb Code   158  rtc.o(.text)
    RTC_Alarm_Set                            0x0800357f   Thumb Code   184  rtc.o(.text)
    TOUCH_ReadData                           0x08003679   Thumb Code   188  touch.o(.text)
    TOUCH_ReadXY                             0x08003735   Thumb Code   158  touch.o(.text)
    TOUCH_ReadAdjust                         0x080037d3   Thumb Code    92  touch.o(.text)
    TOUCH_Adjust                             0x0800382f   Thumb Code   358  touch.o(.text)
    TOUCH_Init                               0x08003995   Thumb Code    84  touch.o(.text)
    TOUCH_Scan                               0x080039e9   Thumb Code   202  touch.o(.text)
    SPI1_Config                              0x08003ab9   Thumb Code   130  spi.o(.text)
    SPI2_Config                              0x08003b3b   Thumb Code   122  spi.o(.text)
    SPI1_SetSpeed                            0x08003bb5   Thumb Code    36  spi.o(.text)
    SPI2_SetSpeed                            0x08003bd9   Thumb Code    36  spi.o(.text)
    SPI1_WriteReadData                       0x08003bfd   Thumb Code    68  spi.o(.text)
    SPI2_WriteReadData                       0x08003c41   Thumb Code    68  spi.o(.text)
    GUI_Dot                                  0x08003c95   Thumb Code    28  gui.o(.text)
    GUI_Line                                 0x08003cb1   Thumb Code   172  gui.o(.text)
    LCD_DrawRectangle                        0x08003d5d   Thumb Code    74  gui.o(.text)
    LCD_Draw_Point                           0x08003da7   Thumb Code    20  gui.o(.text)
    Test_Show_CH_Font16                      0x08003dbb   Thumb Code   146  gui.o(.text)
    Test_Show_CH_Font24                      0x08003e4d   Thumb Code   188  gui.o(.text)
    TEST_FONT                                0x08003f09   Thumb Code    62  gui.o(.text)
    GUI_Box                                  0x08003f47   Thumb Code    92  gui.o(.text)
    GUI_DrowSign                             0x08003fa3   Thumb Code   136  gui.o(.text)
    GUI_Show12ASCII                          0x0800402b   Thumb Code   142  gui.o(.text)
    FLASH_ReadID                             0x080040c5   Thumb Code    90  flash.o(.text)
    FLASH_Init                               0x0800411f   Thumb Code    92  flash.o(.text)
    FLASH_ReadData                           0x080041cf   Thumb Code   110  flash.o(.text)
    FLASH_ChipErase                          0x080042c1   Thumb Code    58  flash.o(.text)
    FLASH_WriteData                          0x08004399   Thumb Code   188  flash.o(.text)
    array_init                               0x08004461   Thumb Code    48  array.o(.text)
    array_create                             0x08004491   Thumb Code    38  array.o(.text)
    array_find_index                         0x080044ef   Thumb Code    90  array.o(.text)
    array_remove                             0x08004549   Thumb Code   110  array.o(.text)
    array_remove_all                         0x080045b7   Thumb Code   110  array.o(.text)
    array_find                               0x08004625   Thumb Code    40  array.o(.text)
    array_pop                                0x0800464d   Thumb Code    30  array.o(.text)
    array_push                               0x0800466b   Thumb Code    40  array.o(.text)
    array_deinit                             0x08004693   Thumb Code    28  array.o(.text)
    array_destroy                            0x080046af   Thumb Code    28  array.o(.text)
    bitmap_destroy                           0x080046cb   Thumb Code    32  bitmap.o(.text)
    button_create                            0x08004769   Thumb Code    80  button_1.o(.text)
    draw_line                                0x080047bd   Thumb Code  2622  canvas.o(.text)
    canvas_translate                         0x080051fb   Thumb Code    24  canvas.o(.text)
    canvas_untranslate                       0x08005213   Thumb Code    24  canvas.o(.text)
    canvas_init                              0x0800522b   Thumb Code    34  canvas.o(.text)
    canvas_get_width                         0x0800524d   Thumb Code    14  canvas.o(.text)
    canvas_get_height                        0x0800525b   Thumb Code    14  canvas.o(.text)
    canvas_set_clip_rect                     0x08005269   Thumb Code    96  canvas.o(.text)
    canvas_set_fill_color                    0x080052c9   Thumb Code    22  canvas.o(.text)
    canvas_set_text_color                    0x080052df   Thumb Code    22  canvas.o(.text)
    canvas_set_stroke_color                  0x080052f5   Thumb Code    22  canvas.o(.text)
    canvas_set_global_alpha                  0x0800530b   Thumb Code    24  canvas.o(.text)
    canvas_set_font                          0x08005323   Thumb Code    62  canvas.o(.text)
    canvas_measure_text                      0x080053bf   Thumb Code    50  canvas.o(.text)
    canvas_begin_frame                       0x080053f1   Thumb Code    40  canvas.o(.text)
    canvas_draw_hline                        0x08005475   Thumb Code    38  canvas.o(.text)
    canvas_draw_vline                        0x080054f7   Thumb Code    46  canvas.o(.text)
    canvas_draw_line                         0x080055c1   Thumb Code    50  canvas.o(.text)
    canvas_draw_points                       0x080056ad   Thumb Code   120  canvas.o(.text)
    canvas_fill_rect                         0x080057ad   Thumb Code    46  canvas.o(.text)
    canvas_stroke_rect                       0x0800584d   Thumb Code    46  canvas.o(.text)
    canvas_draw_char                         0x08005959   Thumb Code    38  canvas.o(.text)
    canvas_draw_text                         0x08005a33   Thumb Code    78  canvas.o(.text)
    canvas_draw_image                        0x08005bcd   Thumb Code    66  canvas.o(.text)
    canvas_draw_image_repeat                 0x08005c0f   Thumb Code   166  canvas.o(.text)
    canvas_draw_image_repeat_x               0x08005cb5   Thumb Code   108  canvas.o(.text)
    canvas_draw_image_repeat_y               0x08005d21   Thumb Code   108  canvas.o(.text)
    canvas_draw_image_3patch_y_scale_x       0x08005d8d   Thumb Code   220  canvas.o(.text)
    canvas_draw_image_3patch_y               0x08005e69   Thumb Code   230  canvas.o(.text)
    canvas_draw_image_3patch_x_scale_y       0x08005f4f   Thumb Code   224  canvas.o(.text)
    canvas_draw_image_3patch_x               0x0800602f   Thumb Code   228  canvas.o(.text)
    canvas_draw_image_9patch                 0x08006113   Thumb Code   528  canvas.o(.text)
    canvas_end_frame                         0x08006323   Thumb Code    18  canvas.o(.text)
    canvas_test_paint                        0x08006335   Thumb Code   212  canvas.o(.text)
    canvas_draw_image_scale_w                0x08006409   Thumb Code   226  canvas.o(.text)
    canvas_draw_image_scale_h                0x080064eb   Thumb Code   226  canvas.o(.text)
    canvas_draw_image_scale                  0x080065cd   Thumb Code   198  canvas.o(.text)
    canvas_draw_icon                         0x08006693   Thumb Code   236  canvas.o(.text)
    canvas_draw_image_center                 0x0800677f   Thumb Code    82  canvas.o(.text)
    canvas_draw_image_ex                     0x080067d1   Thumb Code   232  canvas.o(.text)
    canvas_draw_image_at                     0x080068b9   Thumb Code   142  canvas.o(.text)
    check_button_set_value                   0x08006993   Thumb Code    98  check_button.o(.text)
    check_button_create                      0x08006ab5   Thumb Code    80  check_button.o(.text)
    check_button_create_radio                0x08006b05   Thumb Code    70  check_button.o(.text)
    color_init                               0x08006b5d   Thumb Code    24  color.o(.text)
    dialog_title_create                      0x08006d1d   Thumb Code    64  dialog.o(.text)
    dialog_client_create                     0x08006d5d   Thumb Code    64  dialog.o(.text)
    dialog_create                            0x08006d9d   Thumb Code   150  dialog.o(.text)
    dialog_set_title                         0x08006e33   Thumb Code    26  dialog.o(.text)
    dialog_modal                             0x08006e6d   Thumb Code    58  dialog.o(.text)
    dialog_quit                              0x08006ea7   Thumb Code    34  dialog.o(.text)
    emitter_init                             0x08006f05   Thumb Code    26  emitter.o(.text)
    emitter_create                           0x08006f1f   Thumb Code    20  emitter.o(.text)
    emitter_dispatch                         0x08006f33   Thumb Code    84  emitter.o(.text)
    emitter_on                               0x08006fe3   Thumb Code    74  emitter.o(.text)
    emitter_find                             0x0800702d   Thumb Code    50  emitter.o(.text)
    emitter_off                              0x0800705f   Thumb Code   104  emitter.o(.text)
    emitter_off_by_func                      0x080070c7   Thumb Code   110  emitter.o(.text)
    emitter_stop                             0x08007135   Thumb Code    16  emitter.o(.text)
    emitter_enable                           0x08007145   Thumb Code    16  emitter.o(.text)
    emitter_disable                          0x08007155   Thumb Code    16  emitter.o(.text)
    emitter_deinit                           0x08007165   Thumb Code    24  emitter.o(.text)
    emitter_destroy                          0x0800717d   Thumb Code    26  emitter.o(.text)
    find_item                                0x08007199   Thumb Code    60  enums.o(.text)
    find_item_by_value                       0x080071d5   Thumb Code    44  enums.o(.text)
    widget_type_find                         0x08007201   Thumb Code    16  enums.o(.text)
    widget_type_find_by_value                0x08007211   Thumb Code    16  enums.o(.text)
    style_id_find                            0x08007221   Thumb Code    16  enums.o(.text)
    style_id_find_by_value                   0x08007231   Thumb Code    16  enums.o(.text)
    widget_state_find                        0x08007241   Thumb Code    16  enums.o(.text)
    align_v_type_find                        0x08007251   Thumb Code    16  enums.o(.text)
    align_h_type_find                        0x08007261   Thumb Code    16  enums.o(.text)
    resource_type_find                       0x08007271   Thumb Code    16  enums.o(.text)
    resource_type_find_by_value              0x08007281   Thumb Code    16  enums.o(.text)
    image_draw_type_find                     0x08007291   Thumb Code    16  enums.o(.text)
    image_draw_type_find_by_value            0x080072a1   Thumb Code    16  enums.o(.text)
    input_type_find                          0x080072b1   Thumb Code    16  enums.o(.text)
    font_find_glyph                          0x080072e1   Thumb Code    42  font.o(.text)
    font_match                               0x0800730b   Thumb Code    30  font.o(.text)
    font_destroy                             0x08007329   Thumb Code    22  font.o(.text)
    font_manager                             0x08007341   Thumb Code     6  font_manager.o(.text)
    font_manager_set                         0x08007347   Thumb Code    10  font_manager.o(.text)
    font_manager_init                        0x08007351   Thumb Code    22  font_manager.o(.text)
    font_manager_create                      0x08007367   Thumb Code    20  font_manager.o(.text)
    font_manager_add                         0x0800737b   Thumb Code    24  font_manager.o(.text)
    font_manager_find                        0x08007393   Thumb Code    76  font_manager.o(.text)
    font_manager_deinit                      0x080073df   Thumb Code    54  font_manager.o(.text)
    font_manager_destroy                     0x08007415   Thumb Code    26  font_manager.o(.text)
    group_box_create                         0x08007451   Thumb Code    80  group_box.o(.text)
    image_set_draw_type                      0x080075b3   Thumb Code    18  image.o(.text)
    image_set_image_name                     0x080075f3   Thumb Code    48  image.o(.text)
    image_create                             0x080076b9   Thumb Code    78  image.o(.text)
    image_manager                            0x08007721   Thumb Code     6  image_manager.o(.text)
    image_manager_set                        0x08007727   Thumb Code    10  image_manager.o(.text)
    image_manager_init                       0x08007731   Thumb Code    26  image_manager.o(.text)
    image_manager_create                     0x0800774b   Thumb Code    30  image_manager.o(.text)
    image_manager_add                        0x08007769   Thumb Code    92  image_manager.o(.text)
    image_manager_lookup                     0x080077c5   Thumb Code   100  image_manager.o(.text)
    image_manager_update_specific            0x08007829   Thumb Code    70  image_manager.o(.text)
    image_manager_load                       0x0800786f   Thumb Code   170  image_manager.o(.text)
    image_manager_unload_unused              0x08007947   Thumb Code    42  image_manager.o(.text)
    image_manager_deinit                     0x08007971   Thumb Code    60  image_manager.o(.text)
    image_manager_destroy                    0x080079ad   Thumb Code    30  image_manager.o(.text)
    label_create                             0x080079ed   Thumb Code    72  label.o(.text)
    lcd_begin_frame                          0x08007a39   Thumb Code    76  lcd.o(.text)
    lcd_set_clip_rect                        0x08007a85   Thumb Code    26  lcd.o(.text)
    lcd_set_global_alpha                     0x08007a9f   Thumb Code    32  lcd.o(.text)
    lcd_set_text_color                       0x08007abf   Thumb Code    30  lcd.o(.text)
    lcd_set_stroke_color                     0x08007add   Thumb Code    30  lcd.o(.text)
    lcd_set_fill_color                       0x08007afb   Thumb Code    30  lcd.o(.text)
    lcd_set_font_name                        0x08007b19   Thumb Code    30  lcd.o(.text)
    lcd_set_font_size                        0x08007b37   Thumb Code    30  lcd.o(.text)
    lcd_draw_vline                           0x08007b55   Thumb Code    40  lcd.o(.text)
    lcd_draw_hline                           0x08007b7d   Thumb Code    40  lcd.o(.text)
    lcd_fill_rect                            0x08007ba5   Thumb Code    48  lcd.o(.text)
    lcd_stroke_rect                          0x08007bd5   Thumb Code    48  lcd.o(.text)
    lcd_draw_points                          0x08007c05   Thumb Code    32  lcd.o(.text)
    lcd_get_point_color                      0x08007c25   Thumb Code    70  lcd.o(.text)
    lcd_draw_image                           0x08007c6b   Thumb Code    44  lcd.o(.text)
    lcd_draw_glyph                           0x08007c97   Thumb Code    52  lcd.o(.text)
    lcd_measure_text                         0x08007ccb   Thumb Code    32  lcd.o(.text)
    lcd_draw_text                            0x08007ceb   Thumb Code    50  lcd.o(.text)
    lcd_end_frame                            0x08007d1d   Thumb Code    40  lcd.o(.text)
    lcd_destroy                              0x08007d45   Thumb Code    22  lcd.o(.text)
    lcd_get_vgcanvas                         0x08007d5b   Thumb Code    22  lcd.o(.text)
    lcd_take_snapshot                        0x08007d71   Thumb Code    26  lcd.o(.text)
    main_loop_run                            0x08007d8d   Thumb Code    26  main_loop.o(.text)
    main_loop_quit                           0x08007da7   Thumb Code    28  main_loop.o(.text)
    main_loop_wakeup                         0x08007dc3   Thumb Code    24  main_loop.o(.text)
    main_loop_destroy                        0x08007ddb   Thumb Code    26  main_loop.o(.text)
    main_loop                                0x08007df5   Thumb Code     6  main_loop.o(.text)
    main_loop_set                            0x08007dfb   Thumb Code    16  main_loop.o(.text)
    main_loop_queue_event                    0x08007e0b   Thumb Code    28  main_loop.o(.text)
    main_loop_sleep                          0x08007e27   Thumb Code    66  main_loop.o(.text)
    tk_mem_stat                              0x08007e6d   Thumb Code    76  mem.o(.text)
    tk_mem_info_dump                         0x08007eb9   Thumb Code    32  mem.o(.text)
    tk_alloc                                 0x08007ed9   Thumb Code   166  mem.o(.text)
    tk_calloc                                0x08007f7f   Thumb Code    36  mem.o(.text)
    tk_free                                  0x0800800f   Thumb Code   110  mem.o(.text)
    tk_realloc                               0x0800807d   Thumb Code    86  mem.o(.text)
    tk_mem_init                              0x080080d3   Thumb Code    62  mem.o(.text)
    progress_bar_set_value                   0x080083bd   Thumb Code    42  progress_bar.o(.text)
    progress_bar_set_vertical                0x080083e7   Thumb Code    18  progress_bar.o(.text)
    progress_bar_set_show_text               0x080083f9   Thumb Code    18  progress_bar.o(.text)
    progress_bar_create                      0x080084dd   Thumb Code    72  progress_bar.o(.text)
    rect_merge                               0x08008549   Thumb Code   162  rect.o(.text)
    rect_contains                            0x080085eb   Thumb Code    50  rect.o(.text)
    style_get_int                            0x0800861d   Thumb Code   144  theme.o(.text)
    style_get_color                          0x080086ad   Thumb Code    22  theme.o(.text)
    style_get_str                            0x080086c3   Thumb Code   142  theme.o(.text)
    theme_find_style                         0x08008751   Thumb Code   232  theme.o(.text)
    theme                                    0x08008839   Thumb Code     4  theme.o(.text)
    theme_init                               0x0800883d   Thumb Code    20  theme.o(.text)
    utf8_get_char                            0x08008859   Thumb Code   184  utf8.o(.text)
    utf8_get_prev_char                       0x08008911   Thumb Code    60  utf8.o(.text)
    utf8_count_char                          0x0800894d   Thumb Code    42  utf8.o(.text)
    unichar_to_utf8                          0x08008977   Thumb Code   102  utf8.o(.text)
    utf16_to_utf8                            0x080089dd   Thumb Code   268  utf8.o(.text)
    utf8_from_utf16                          0x08008ae9   Thumb Code    42  utf8.o(.text)
    utf8_to_utf16                            0x08008b13   Thumb Code    68  utf8.o(.text)
    value_bool                               0x08008b5d   Thumb Code   230  value.o(.text)
    value_set_bool                           0x08008c43   Thumb Code    18  value.o(.text)
    value_set_int8                           0x08008c55   Thumb Code    18  value.o(.text)
    value_int8                               0x08008c67   Thumb Code    18  value.o(.text)
    value_set_uint8                          0x08008c79   Thumb Code    18  value.o(.text)
    value_uint8                              0x08008c8b   Thumb Code    16  value.o(.text)
    value_set_int16                          0x08008c9b   Thumb Code    18  value.o(.text)
    value_int16                              0x08008cad   Thumb Code    18  value.o(.text)
    value_set_uint16                         0x08008cbf   Thumb Code    18  value.o(.text)
    value_uint16                             0x08008cd1   Thumb Code    16  value.o(.text)
    value_set_int32                          0x08008ce1   Thumb Code    18  value.o(.text)
    value_int                                0x08008cf3   Thumb Code   108  value.o(.text)
    value_int32                              0x08008d5f   Thumb Code    22  value.o(.text)
    value_set_uint32                         0x08008d75   Thumb Code    18  value.o(.text)
    value_uint32                             0x08008d87   Thumb Code    22  value.o(.text)
    value_set_int64                          0x08008d9d   Thumb Code    20  value.o(.text)
    value_int64                              0x08008db1   Thumb Code    20  value.o(.text)
    value_set_uint64                         0x08008dc5   Thumb Code    20  value.o(.text)
    value_uint64                             0x08008dd9   Thumb Code    20  value.o(.text)
    value_set_pointer                        0x08008ded   Thumb Code    18  value.o(.text)
    value_pointer                            0x08008dff   Thumb Code    16  value.o(.text)
    value_set_float                          0x08008e0f   Thumb Code    18  value.o(.text)
    value_float                              0x08008e21   Thumb Code   144  value.o(.text)
    value_set_double                         0x08008eb1   Thumb Code    20  value.o(.text)
    value_double                             0x08008ec5   Thumb Code    20  value.o(.text)
    value_set_str                            0x08008ed9   Thumb Code    18  value.o(.text)
    value_set_wstr                           0x08008eeb   Thumb Code    18  value.o(.text)
    value_str                                0x08008efd   Thumb Code    16  value.o(.text)
    value_wstr                               0x08008f0d   Thumb Code    16  value.o(.text)
    value_copy                               0x08008f1d   Thumb Code    26  value.o(.text)
    value_is_null                            0x08008f37   Thumb Code    14  value.o(.text)
    value_set_int                            0x08008f45   Thumb Code    16  value.o(.text)
    value_create                             0x08008f55   Thumb Code    12  value.o(.text)
    value_destroy                            0x08008f61   Thumb Code    12  value.o(.text)
    widget_dispatch                          0x08008f75   Thumb Code    68  widget.o(.text)
    widget_invalidate                        0x08008ff5   Thumb Code   116  widget.o(.text)
    widget_move                              0x08009069   Thumb Code    48  widget.o(.text)
    widget_resize                            0x08009099   Thumb Code    50  widget.o(.text)
    widget_move_resize                       0x080090cb   Thumb Code    66  widget.o(.text)
    widget_set_name                          0x0800910d   Thumb Code    28  widget.o(.text)
    widget_update_style                      0x08009129   Thumb Code    46  widget.o(.text)
    widget_set_prop                          0x08009157   Thumb Code   404  widget.o(.text)
    widget_set_value                         0x080092eb   Thumb Code    36  widget.o(.text)
    widget_use_style                         0x0800930f   Thumb Code    32  widget.o(.text)
    widget_set_text                          0x0800932f   Thumb Code    36  widget.o(.text)
    widget_set_tr_text                       0x08009353   Thumb Code    58  widget.o(.text)
    widget_re_translate_text                 0x0800938d   Thumb Code     6  widget.o(.text)
    widget_get_prop                          0x08009393   Thumb Code   420  widget.o(.text)
    widget_get_value                         0x08009537   Thumb Code    38  widget.o(.text)
    widget_get_text                          0x0800955d   Thumb Code    38  widget.o(.text)
    widget_set_enable                        0x08009583   Thumb Code    48  widget.o(.text)
    widget_set_focused                       0x080095b3   Thumb Code    48  widget.o(.text)
    widget_set_state                         0x080095e3   Thumb Code    38  widget.o(.text)
    widget_set_opacity                       0x08009609   Thumb Code    26  widget.o(.text)
    widget_set_rotation                      0x08009623   Thumb Code    12  widget.o(.text)
    widget_set_scale                         0x0800962f   Thumb Code    12  widget.o(.text)
    widget_set_anchor                        0x0800963b   Thumb Code    12  widget.o(.text)
    widget_destroy                           0x08009647   Thumb Code   116  widget.o(.text)
    widget_destroy_children                  0x080096bb   Thumb Code    60  widget.o(.text)
    widget_add_child                         0x080096f7   Thumb Code    38  widget.o(.text)
    widget_remove_child                      0x0800971d   Thumb Code    48  widget.o(.text)
    widget_lookup                            0x080097e9   Thumb Code    30  widget.o(.text)
    widget_set_visible                       0x08009879   Thumb Code    30  widget.o(.text)
    widget_find_target                       0x08009897   Thumb Code    62  widget.o(.text)
    widget_on                                0x080098d5   Thumb Code    46  widget.o(.text)
    widget_child_on                          0x08009903   Thumb Code    42  widget.o(.text)
    widget_off                               0x0800992d   Thumb Code    30  widget.o(.text)
    widget_off_by_func                       0x0800994b   Thumb Code    44  widget.o(.text)
    widget_draw_icon_text                    0x08009977   Thumb Code   546  widget.o(.text)
    widget_draw_background                   0x08009b99   Thumb Code   150  widget.o(.text)
    widget_draw_border                       0x08009c2f   Thumb Code    70  widget.o(.text)
    widget_paint_helper                      0x08009c75   Thumb Code    30  widget.o(.text)
    widget_on_paint_done                     0x08009c93   Thumb Code    62  widget.o(.text)
    widget_on_paint_children                 0x08009cd1   Thumb Code    58  widget.o(.text)
    widget_on_paint_self                     0x08009d0b   Thumb Code    66  widget.o(.text)
    widget_on_paint_background               0x08009d4d   Thumb Code    60  widget.o(.text)
    widget_paint                             0x08009d89   Thumb Code   220  widget.o(.text)
    widget_on_keydown                        0x08009e65   Thumb Code    68  widget.o(.text)
    widget_on_keyup                          0x08009ea9   Thumb Code    68  widget.o(.text)
    widget_on_click                          0x08009eed   Thumb Code    68  widget.o(.text)
    widget_on_pointer_down                   0x08009f31   Thumb Code   176  widget.o(.text)
    widget_on_pointer_move                   0x08009fe1   Thumb Code   148  widget.o(.text)
    widget_on_pointer_up                     0x0800a075   Thumb Code    66  widget.o(.text)
    widget_grab                              0x0800a0b7   Thumb Code    54  widget.o(.text)
    widget_ungrab                            0x0800a0ed   Thumb Code    52  widget.o(.text)
    widget_init                              0x0800a121   Thumb Code   118  widget.o(.text)
    widget_to_local                          0x0800a197   Thumb Code    42  widget.o(.text)
    widget_to_global                         0x0800a1c1   Thumb Code    42  widget.o(.text)
    widget_count_children                    0x0800a1eb   Thumb Code    22  widget.o(.text)
    widget_get_child                         0x0800a201   Thumb Code    34  widget.o(.text)
    widget_to_xml                            0x0800a223   Thumb Code    88  widget.o(.text)
    widget_invalidate_default                0x0800a281   Thumb Code    64  widget_vtable.o(.text)
    widget_on_event_default                  0x0800a2c1   Thumb Code    14  widget_vtable.o(.text)
    widget_on_paint_self_default             0x0800a2cf   Thumb Code    14  widget_vtable.o(.text)
    widget_on_paint_children_default         0x0800a2dd   Thumb Code    70  widget_vtable.o(.text)
    widget_on_keydown_default                0x0800a323   Thumb Code    14  widget_vtable.o(.text)
    widget_on_keyup_default                  0x0800a331   Thumb Code    14  widget_vtable.o(.text)
    widget_on_click_default                  0x0800a33f   Thumb Code    14  widget_vtable.o(.text)
    widget_on_pointer_down_default           0x0800a34d   Thumb Code    14  widget_vtable.o(.text)
    widget_on_pointer_move_default           0x0800a35b   Thumb Code    14  widget_vtable.o(.text)
    widget_on_pointer_up_default             0x0800a369   Thumb Code    14  widget_vtable.o(.text)
    widget_get_prop_default                  0x0800a377   Thumb Code    16  widget_vtable.o(.text)
    widget_set_prop_default                  0x0800a387   Thumb Code    16  widget_vtable.o(.text)
    widget_grab_default                      0x0800a397   Thumb Code    34  widget_vtable.o(.text)
    widget_ungrab_default                    0x0800a3b9   Thumb Code    34  widget_vtable.o(.text)
    widget_find_target_default               0x0800a3db   Thumb Code   138  widget_vtable.o(.text)
    widget_destroy_default                   0x0800a465   Thumb Code     6  widget_vtable.o(.text)
    widget_on_paint_background_null          0x0800a46b   Thumb Code     6  widget_vtable.o(.text)
    widget_on_paint_done_null                0x0800a471   Thumb Code     6  widget_vtable.o(.text)
    widget_vtable_default                    0x0800a477   Thumb Code     4  widget_vtable.o(.text)
    window_create                            0x0800a521   Thumb Code   104  window.o(.text)
    window_close                             0x0800a589   Thumb Code    20  window.o(.text)
    window_manager_find_top_window_index     0x0800a6e3   Thumb Code    64  window_manager.o(.text)
    window_manager_get_top_window            0x0800a723   Thumb Code    30  window_manager.o(.text)
    window_manager_add_child                 0x0800a7ad   Thumb Code   144  window_manager.o(.text)
    window_manager_remove_child              0x0800a84d   Thumb Code    46  window_manager.o(.text)
    window_manager_find_target               0x0800a87b   Thumb Code   188  window_manager.o(.text)
    window_manager_paint                     0x0800aa1d   Thumb Code    54  window_manager.o(.text)
    window_manager                           0x0800aa53   Thumb Code     6  window_manager.o(.text)
    window_manager_set                       0x0800aa59   Thumb Code    10  window_manager.o(.text)
    window_manager_init                      0x0800aa63   Thumb Code    40  window_manager.o(.text)
    window_manager_create                    0x0800aa8b   Thumb Code    26  window_manager.o(.text)
    window_manager_on_paint_children         0x0800aafd   Thumb Code   110  window_manager.o(.text)
    window_manager_resize                    0x0800ab6b   Thumb Code    58  window_manager.o(.text)
    window_manager_dispatch_input_event      0x0800ac5d   Thumb Code   374  window_manager.o(.text)
    window_manager_set_animating             0x0800add3   Thumb Code    18  window_manager.o(.text)
    wcs_chr                                  0x0800adf1   Thumb Code    38  wstr.o(.text)
    wcs_cpy                                  0x0800ae17   Thumb Code    40  wstr.o(.text)
    wcs_len                                  0x0800ae3f   Thumb Code    30  wstr.o(.text)
    wstr_init                                0x0800ae93   Thumb Code    36  wstr.o(.text)
    wstr_set                                 0x0800aeb7   Thumb Code    54  wstr.o(.text)
    wstr_set_utf8                            0x0800aeed   Thumb Code    62  wstr.o(.text)
    wstr_get_utf8                            0x0800af2b   Thumb Code    30  wstr.o(.text)
    wstr_remove                              0x0800af49   Thumb Code    88  wstr.o(.text)
    wstr_insert                              0x0800afa1   Thumb Code   180  wstr.o(.text)
    wstr_push                                0x0800b055   Thumb Code    56  wstr.o(.text)
    wstr_pop                                 0x0800b08d   Thumb Code    34  wstr.o(.text)
    wstr_from_int                            0x0800b0af   Thumb Code    38  wstr.o(.text)
    wstr_from_float                          0x0800b0d5   Thumb Code    38  wstr.o(.text)
    wstr_from_value                          0x0800b0fb   Thumb Code   104  wstr.o(.text)
    wstr_to_int                              0x0800b163   Thumb Code    40  wstr.o(.text)
    wstr_to_float                            0x0800b18b   Thumb Code    40  wstr.o(.text)
    wstr_reset                               0x0800b1b3   Thumb Code    20  wstr.o(.text)
    font_bitmap_init                         0x0800b29d   Thumb Code    34  font_bitmap.o(.text)
    font_bitmap_create                       0x0800b2bf   Thumb Code    54  font_bitmap.o(.text)
    tk_str2bool                              0x0800b301   Thumb Code    40  utils.o(.text)
    tk_strtol                                0x0800b3ef   Thumb Code    92  utils.o(.text)
    tk_atoi                                  0x0800b44b   Thumb Code    16  utils.o(.text)
    tk_atof                                  0x0800b45b   Thumb Code   154  utils.o(.text)
    tk_itoa                                  0x0800b585   Thumb Code    22  utils.o(.text)
    tk_ftoa                                  0x0800b59b   Thumb Code   262  utils.o(.text)
    tk_strcpy                                0x0800b6a1   Thumb Code    16  utils.o(.text)
    tk_memset16                              0x0800b6b1   Thumb Code   138  utils.o(.text)
    tk_memset32                              0x0800b73b   Thumb Code    30  utils.o(.text)
    tk_memcpy16                              0x0800b759   Thumb Code    40  utils.o(.text)
    tk_memcpy32                              0x0800b781   Thumb Code    36  utils.o(.text)
    tk_pixel_copy                            0x0800b7a5   Thumb Code    56  utils.o(.text)
    timer_manager                            0x0800b7dd   Thumb Code     6  timer.o(.text)
    timer_manager_set                        0x0800b7e3   Thumb Code    10  timer.o(.text)
    timer_manager_init                       0x0800b7ed   Thumb Code    40  timer.o(.text)
    timer_manager_create                     0x0800b815   Thumb Code    38  timer.o(.text)
    timer_manager_deinit                     0x0800b83b   Thumb Code    72  timer.o(.text)
    timer_manager_destroy                    0x0800b883   Thumb Code    26  timer.o(.text)
    timer_manager_add                        0x0800b89d   Thumb Code    92  timer.o(.text)
    timer_manager_remove                     0x0800b921   Thumb Code    76  timer.o(.text)
    timer_manager_find                       0x0800b96d   Thumb Code    72  timer.o(.text)
    timer_manager_dispatch                   0x0800b9b5   Thumb Code   138  timer.o(.text)
    timer_manager_count                      0x0800ba3f   Thumb Code    36  timer.o(.text)
    timer_manager_next_time                  0x0800ba63   Thumb Code    60  timer.o(.text)
    timer_init                               0x0800ba9f   Thumb Code    34  timer.o(.text)
    timer_add                                0x0800bac1   Thumb Code    30  timer.o(.text)
    timer_remove                             0x0800badf   Thumb Code    18  timer.o(.text)
    timer_find                               0x0800baf1   Thumb Code    18  timer.o(.text)
    timer_dispatch                           0x0800bb03   Thumb Code    14  timer.o(.text)
    timer_count                              0x0800bb11   Thumb Code    22  timer.o(.text)
    timer_next_time                          0x0800bb27   Thumb Code    14  timer.o(.text)
    timer_now                                0x0800bb35   Thumb Code    12  timer.o(.text)
    timer_queue                              0x0800bb41   Thumb Code    36  timer.o(.text)
    resource_manager_load                    0x0800bb71   Thumb Code     6  resource_manager.o(.text)
    resource_manager                         0x0800bb77   Thumb Code     6  resource_manager.o(.text)
    resource_manager_set                     0x0800bbd9   Thumb Code    10  resource_manager.o(.text)
    resource_manager_init                    0x0800bbe3   Thumb Code    24  resource_manager.o(.text)
    resource_manager_create                  0x0800bbfb   Thumb Code    24  resource_manager.o(.text)
    resource_manager_add                     0x0800bc13   Thumb Code    32  resource_manager.o(.text)
    resource_manager_find_in_cache           0x0800bc33   Thumb Code    72  resource_manager.o(.text)
    resource_manager_ref                     0x0800bc7b   Thumb Code    50  resource_manager.o(.text)
    resource_manager_unref                   0x0800bcad   Thumb Code    42  resource_manager.o(.text)
    resource_manager_clear_cache             0x0800bce7   Thumb Code    28  resource_manager.o(.text)
    resource_manager_deinit                  0x0800bd03   Thumb Code    54  resource_manager.o(.text)
    resource_manager_destroy                 0x0800bd39   Thumb Code    40  resource_manager.o(.text)
    widget_layout_parse                      0x0800bd6d   Thumb Code   340  layout.o(.text)
    widget_layout_calc                       0x0800bec1   Thumb Code   208  layout.o(.text)
    widget_set_parsed_self_layout_params     0x0800bf91   Thumb Code    50  layout.o(.text)
    widget_set_self_layout_params            0x0800bfc3   Thumb Code    66  layout.o(.text)
    widget_set_children_layout_params        0x0800c005   Thumb Code    70  layout.o(.text)
    widget_layout_self                       0x0800c04b   Thumb Code    58  layout.o(.text)
    widget_layout_children                   0x0800c085   Thumb Code   928  layout.o(.text)
    widget_layout                            0x0800c425   Thumb Code    24  layout.o(.text)
    children_layout_parser                   0x0800c43d   Thumb Code   136  layout.o(.text)
    event_queue_create                       0x0800c4c5   Thumb Code    58  event_queue.o(.text)
    event_queue_recv                         0x0800c4ff   Thumb Code    80  event_queue.o(.text)
    event_queue_send                         0x0800c54f   Thumb Code    90  event_queue.o(.text)
    event_queue_replace_last                 0x0800c5a9   Thumb Code    78  event_queue.o(.text)
    event_queue_destroy                      0x0800c5f7   Thumb Code    20  event_queue.o(.text)
    slider_set_value                         0x0800cb9d   Thumb Code    18  slider.o(.text)
    slider_set_min                           0x0800cbaf   Thumb Code    18  slider.o(.text)
    slider_set_max                           0x0800cbc1   Thumb Code    18  slider.o(.text)
    slider_set_step                          0x0800cbd3   Thumb Code    22  slider.o(.text)
    slider_set_vertical                      0x0800cbe9   Thumb Code    18  slider.o(.text)
    slider_create                            0x0800cd35   Thumb Code    92  slider.o(.text)
    window_animator_update                   0x0800cdb9   Thumb Code   206  window_animator.o(.text)
    window_animator_destroy                  0x0800ce87   Thumb Code    22  window_animator.o(.text)
    window_animator_begin_frame_overlap      0x0800ce9d   Thumb Code    60  window_animator.o(.text)
    window_animator_create_for_open          0x0800ced9   Thumb Code     8  window_animator_null.o(.text)
    window_animator_create_for_close         0x0800cee1   Thumb Code     8  window_animator_null.o(.text)
    idle_manager                             0x0800cee9   Thumb Code     6  idle.o(.text)
    idle_manager_set                         0x0800ceef   Thumb Code    10  idle.o(.text)
    idle_manager_init                        0x0800cef9   Thumb Code    36  idle.o(.text)
    idle_manager_create                      0x0800cf1d   Thumb Code    20  idle.o(.text)
    idle_manager_deinit                      0x0800cf31   Thumb Code    72  idle.o(.text)
    idle_manager_destroy                     0x0800cf79   Thumb Code    26  idle.o(.text)
    idle_manager_add                         0x0800cf93   Thumb Code    78  idle.o(.text)
    idle_manager_remove                      0x0800d009   Thumb Code    72  idle.o(.text)
    idle_manager_find                        0x0800d051   Thumb Code    68  idle.o(.text)
    idle_manager_dispatch                    0x0800d095   Thumb Code   106  idle.o(.text)
    idle_add                                 0x0800d0ff   Thumb Code    22  idle.o(.text)
    idle_remove                              0x0800d115   Thumb Code    18  idle.o(.text)
    idle_find                                0x0800d127   Thumb Code    18  idle.o(.text)
    idle_dispatch                            0x0800d139   Thumb Code    14  idle.o(.text)
    idle_count                               0x0800d147   Thumb Code    50  idle.o(.text)
    idle_queue                               0x0800d179   Thumb Code    32  idle.o(.text)
    time_now_ms                              0x0800d1a5   Thumb Code     8  time.o(.text)
    time_now_s                               0x0800d1ad   Thumb Code    16  time.o(.text)
    system_info                              0x0800d1bd   Thumb Code     4  system_info.o(.text)
    image_loader_load                        0x0800d1c5   Thumb Code    44  image_loader.o(.text)
    tk_init_resources                        0x0800d21f   Thumb Code    70  tk.o(.text)
    tk_init_internal                         0x0800d265   Thumb Code   134  tk.o(.text)
    tk_init                                  0x0800d2eb   Thumb Code    34  tk.o(.text)
    tk_deinit_internal                       0x0800d30d   Thumb Code   118  tk.o(.text)
    tk_run                                   0x0800d395   Thumb Code    18  tk.o(.text)
    tk_quit                                  0x0800d3b7   Thumb Code    16  tk.o(.text)
    locale                                   0x0800d3d1   Thumb Code     6  locale.o(.text)
    locale_set                               0x0800d3d7   Thumb Code    10  locale.o(.text)
    locale_change                            0x0800d3e1   Thumb Code   176  locale.o(.text)
    locale_init                              0x0800d491   Thumb Code    42  locale.o(.text)
    locale_create                            0x0800d4bb   Thumb Code    28  locale.o(.text)
    str_table_lookup                         0x0800d4d7   Thumb Code   116  locale.o(.text)
    locale_tr                                0x0800d54b   Thumb Code    56  locale.o(.text)
    locale_on                                0x0800d583   Thumb Code    40  locale.o(.text)
    locale_off                               0x0800d5ab   Thumb Code    24  locale.o(.text)
    locale_deinit                            0x0800d5c3   Thumb Code    46  locale.o(.text)
    locale_destroy                           0x0800d5f1   Thumb Code    26  locale.o(.text)
    str_init                                 0x0800d657   Thumb Code    36  str.o(.text)
    str_set_with_len                         0x0800d67b   Thumb Code    74  str.o(.text)
    str_set                                  0x0800d6c5   Thumb Code    20  str.o(.text)
    str_append                               0x0800d6d9   Thumb Code    66  str.o(.text)
    str_eq                                   0x0800d71b   Thumb Code    62  str.o(.text)
    str_from_int                             0x0800d759   Thumb Code    38  str.o(.text)
    str_from_float                           0x0800d77f   Thumb Code    38  str.o(.text)
    str_from_value                           0x0800d7a5   Thumb Code    90  str.o(.text)
    str_to_int                               0x0800d7ff   Thumb Code    26  str.o(.text)
    str_to_float                             0x0800d819   Thumb Code    26  str.o(.text)
    str_reset                                0x0800d833   Thumb Code    20  str.o(.text)
    str_end_with                             0x0800d847   Thumb Code    64  str.o(.text)
    str_start_with                           0x0800d887   Thumb Code    46  str.o(.text)
    str_trim_left                            0x0800d8b5   Thumb Code   110  str.o(.text)
    str_trim_right                           0x0800d923   Thumb Code    82  str.o(.text)
    str_trim                                 0x0800d975   Thumb Code    32  str.o(.text)
    str_replace                              0x0800d9c5   Thumb Code   238  str.o(.text)
    str_to_lower                             0x0800dab3   Thumb Code    46  str.o(.text)
    str_to_upper                             0x0800dae1   Thumb Code    46  str.o(.text)
    main_loop_post_pointer_event             0x0800db5f   Thumb Code   158  main_loop_simple.o(.text)
    main_loop_post_key_event                 0x0800dbfd   Thumb Code   102  main_loop_simple.o(.text)
    main_loop_simple_init                    0x0800dd19   Thumb Code    92  main_loop_simple.o(.text)
    main_loop_simple_reset                   0x0800dd75   Thumb Code    34  main_loop_simple.o(.text)
    tk_mutex_create                          0x0800dda5   Thumb Code     4  mutex.o(.text)
    tk_mutex_lock                            0x0800dda9   Thumb Code     6  mutex.o(.text)
    tk_mutex_unlock                          0x0800ddaf   Thumb Code     6  mutex.o(.text)
    tk_mutex_destroy                         0x0800ddb5   Thumb Code     6  mutex.o(.text)
    lcd_reg_create                           0x0800e2a1   Thumb Code   110  lcd_stm32_raw.o(.text)
    platform_disaptch_input                  0x0800e335   Thumb Code     6  main_loop_stm32_raw.o(.text)
    TIM3_IRQHandler                          0x0800e34b   Thumb Code    70  main_loop_stm32_raw.o(.text)
    main_loop_init                           0x0800e3d9   Thumb Code    34  main_loop_stm32_raw.o(.text)
    sys_tick_init                            0x0800e40d   Thumb Code    72  platform.o(.text)
    SysTick_Handler                          0x0800e455   Thumb Code    12  platform.o(.text)
    get_time_ms                              0x0800e461   Thumb Code     6  platform.o(.text)
    sleep_ms                                 0x0800e467   Thumb Code    28  platform.o(.text)
    delay_ms                                 0x0800e483   Thumb Code    12  platform.o(.text)
    platform_prepare                         0x0800e48f   Thumb Code    20  platform.o(.text)
    gui_app_start                            0x0800e4b5   Thumb Code    30  demo_main.o(.text)
    application_init                         0x0800e639   Thumb Code   736  demo1_app.o(.text)
    resource_init                            0x0800ea19   Thumb Code   344  resource-mini.o(.text)
    __use_no_semihosting                     0x0800ec15   Thumb Code     2  use_no_semi_2.o(.text)
    tolower                                  0x0800ec17   Thumb Code    26  tolower.o(.text)
    toupper                                  0x0800ec31   Thumb Code    30  toupper.o(.text)
    __2printf                                0x0800ec51   Thumb Code    20  noretval__2printf.o(.text)
    __2snprintf                              0x0800ec69   Thumb Code    48  noretval__2snprintf.o(.text)
    __printf                                 0x0800ec9d   Thumb Code   104  __printf.o(.text)
    _printf_str                              0x0800ed05   Thumb Code    82  _printf_str.o(.text)
    _printf_int_dec                          0x0800ed59   Thumb Code   104  _printf_dec.o(.text)
    atoi                                     0x0800edd1   Thumb Code    26  atoi.o(.text)
    strchr                                   0x0800edeb   Thumb Code    20  strchr.o(.text)
    strstr                                   0x0800edff   Thumb Code    36  strstr.o(.text)
    strcpy                                   0x0800ee23   Thumb Code    72  strcpy.o(.text)
    strlen                                   0x0800ee6b   Thumb Code    62  strlen.o(.text)
    wcscpy                                   0x0800eea9   Thumb Code    18  wcscpy.o(.text)
    wcslen                                   0x0800eebb   Thumb Code    18  wcslen.o(.text)
    strncmp                                  0x0800eecd   Thumb Code   150  strncmp.o(.text)
    __aeabi_memcpy                           0x0800ef63   Thumb Code     0  rt_memcpy_v6.o(.text)
    __rt_memcpy                              0x0800ef63   Thumb Code   138  rt_memcpy_v6.o(.text)
    _memcpy_lastbytes                        0x0800efc9   Thumb Code     0  rt_memcpy_v6.o(.text)
    __aeabi_memmove                          0x0800efed   Thumb Code     0  rt_memmove_v6.o(.text)
    __rt_memmove                             0x0800efed   Thumb Code   132  rt_memmove_v6.o(.text)
    __memmove_lastfew                        0x0800f04d   Thumb Code     0  rt_memmove_v6.o(.text)
    __aeabi_memcpy4                          0x0800f071   Thumb Code     0  rt_memcpy_w.o(.text)
    __aeabi_memcpy8                          0x0800f071   Thumb Code     0  rt_memcpy_w.o(.text)
    __rt_memcpy_w                            0x0800f071   Thumb Code   100  rt_memcpy_w.o(.text)
    _memcpy_lastbytes_aligned                0x0800f0b9   Thumb Code     0  rt_memcpy_w.o(.text)
    __aeabi_memclr                           0x0800f0d5   Thumb Code     0  rt_memclr.o(.text)
    __rt_memclr                              0x0800f0d5   Thumb Code    68  rt_memclr.o(.text)
    _memset                                  0x0800f0d9   Thumb Code     0  rt_memclr.o(.text)
    __aeabi_memclr4                          0x0800f119   Thumb Code     0  rt_memclr_w.o(.text)
    __aeabi_memclr8                          0x0800f119   Thumb Code     0  rt_memclr_w.o(.text)
    __rt_memclr_w                            0x0800f119   Thumb Code    78  rt_memclr_w.o(.text)
    _memset_w                                0x0800f11d   Thumb Code     0  rt_memclr_w.o(.text)
    strncpy                                  0x0800f167   Thumb Code    86  strncpy.o(.text)
    strcmp                                   0x0800f1bd   Thumb Code   128  strcmpv7m.o(.text)
    __use_two_region_memory                  0x0800f23d   Thumb Code     2  heapauxi.o(.text)
    __rt_heap_escrow$2region                 0x0800f23f   Thumb Code     2  heapauxi.o(.text)
    __rt_heap_expand$2region                 0x0800f241   Thumb Code     2  heapauxi.o(.text)
    __I$use$semihosting                      0x0800f243   Thumb Code     0  use_no_semi.o(.text)
    __use_no_semihosting_swi                 0x0800f243   Thumb Code     2  use_no_semi.o(.text)
    __rt_ctype_table                         0x0800f245   Thumb Code    16  rt_ctype_table.o(.text)
    __aeabi_errno_addr                       0x0800f255   Thumb Code     8  rt_errno_addr_intlibspace.o(.text)
    __errno$intlibspace                      0x0800f255   Thumb Code     0  rt_errno_addr_intlibspace.o(.text)
    __rt_errno_addr$intlibspace              0x0800f255   Thumb Code     0  rt_errno_addr_intlibspace.o(.text)
    _printf_int_common                       0x0800f25d   Thumb Code   178  _printf_intcommon.o(.text)
    _printf_char_common                      0x0800f31b   Thumb Code    32  _printf_char_common.o(.text)
    _sputc                                   0x0800f341   Thumb Code    10  _sputc.o(.text)
    _snputc                                  0x0800f34b   Thumb Code    16  _snputc.o(.text)
    _printf_cs_common                        0x0800f35b   Thumb Code    20  _printf_char.o(.text)
    _printf_char                             0x0800f36f   Thumb Code    16  _printf_char.o(.text)
    _printf_string                           0x0800f37f   Thumb Code     8  _printf_char.o(.text)
    _printf_char_file                        0x0800f389   Thumb Code    32  _printf_char_file.o(.text)
    strtol                                   0x0800f3ad   Thumb Code   112  strtol.o(.text)
    __aeabi_memmove4                         0x0800f41d   Thumb Code     0  rt_memmove_w.o(.text)
    __aeabi_memmove8                         0x0800f41d   Thumb Code     0  rt_memmove_w.o(.text)
    __rt_memmove_w                           0x0800f41d   Thumb Code   122  rt_memmove_w.o(.text)
    __memmove_aligned                        0x0800f443   Thumb Code     0  rt_memmove_w.o(.text)
    __memmove_lastfew_aligned                0x0800f47b   Thumb Code     0  rt_memmove_w.o(.text)
    __user_libspace                          0x0800f499   Thumb Code     8  libspace.o(.text)
    __user_perproc_libspace                  0x0800f499   Thumb Code     0  libspace.o(.text)
    __user_perthread_libspace                0x0800f499   Thumb Code     0  libspace.o(.text)
    __rt_locale                              0x0800f4a1   Thumb Code     8  rt_locale_intlibspace.o(.text)
    _strtoul                                 0x0800f4a9   Thumb Code   158  _strtoul.o(.text)
    ferror                                   0x0800f547   Thumb Code     8  ferror.o(.text)
    __user_setup_stackheap                   0x0800f54f   Thumb Code    74  sys_stackheap_outer.o(.text)
    _chval                                   0x0800f599   Thumb Code    28  _chval.o(.text)
    exit                                     0x0800f5b5   Thumb Code    18  exit.o(.text)
    _get_lc_ctype                            0x0800f5c9   Thumb Code    44  lc_ctype_c.o(locale$$code)
    __aeabi_d2f                              0x0800f5f5   Thumb Code     0  d2f.o(x$fpl$d2f)
    _d2f                                     0x0800f5f5   Thumb Code    98  d2f.o(x$fpl$d2f)
    __aeabi_dadd                             0x0800f659   Thumb Code     0  daddsub_clz.o(x$fpl$dadd)
    _dadd                                    0x0800f659   Thumb Code   332  daddsub_clz.o(x$fpl$dadd)
    __fpl_dcmp_Inf                           0x0800f7a9   Thumb Code    24  dcmpi.o(x$fpl$dcmpinf)
    __aeabi_ddiv                             0x0800f7c1   Thumb Code     0  ddiv.o(x$fpl$ddiv)
    _ddiv                                    0x0800f7c1   Thumb Code   552  ddiv.o(x$fpl$ddiv)
    __aeabi_cdcmpeq                          0x0800fa71   Thumb Code     0  deqf.o(x$fpl$deqf)
    _dcmpeq                                  0x0800fa71   Thumb Code   120  deqf.o(x$fpl$deqf)
    __aeabi_d2iz                             0x0800fae9   Thumb Code     0  dfix.o(x$fpl$dfix)
    _dfix                                    0x0800fae9   Thumb Code    94  dfix.o(x$fpl$dfix)
    __aeabi_d2uiz                            0x0800fb49   Thumb Code     0  dfixu.o(x$fpl$dfixu)
    _dfixu                                   0x0800fb49   Thumb Code    90  dfixu.o(x$fpl$dfixu)
    __aeabi_i2d                              0x0800fba3   Thumb Code     0  dflt_clz.o(x$fpl$dflt)
    _dflt                                    0x0800fba3   Thumb Code    46  dflt_clz.o(x$fpl$dflt)
    __aeabi_ui2d                             0x0800fbd1   Thumb Code     0  dflt_clz.o(x$fpl$dfltu)
    _dfltu                                   0x0800fbd1   Thumb Code    38  dflt_clz.o(x$fpl$dfltu)
    __aeabi_cdcmple                          0x0800fbf9   Thumb Code     0  dleqf.o(x$fpl$dleqf)
    _dcmple                                  0x0800fbf9   Thumb Code   120  dleqf.o(x$fpl$dleqf)
    __fpl_dcmple_InfNaN                      0x0800fc5b   Thumb Code     0  dleqf.o(x$fpl$dleqf)
    __aeabi_dmul                             0x0800fc71   Thumb Code     0  dmul.o(x$fpl$dmul)
    _dmul                                    0x0800fc71   Thumb Code   332  dmul.o(x$fpl$dmul)
    __fpl_dnaninf                            0x0800fdc5   Thumb Code   156  dnaninf.o(x$fpl$dnaninf)
    __fpl_dretinf                            0x0800fe61   Thumb Code    12  dretinf.o(x$fpl$dretinf)
    __aeabi_cdrcmple                         0x0800fe6d   Thumb Code     0  drleqf.o(x$fpl$drleqf)
    _drcmple                                 0x0800fe6d   Thumb Code   108  drleqf.o(x$fpl$drleqf)
    __aeabi_drsub                            0x0800fed9   Thumb Code     0  daddsub_clz.o(x$fpl$drsb)
    _drsb                                    0x0800fed9   Thumb Code    22  daddsub_clz.o(x$fpl$drsb)
    __aeabi_dsub                             0x0800fef1   Thumb Code     0  daddsub_clz.o(x$fpl$dsub)
    _dsub                                    0x0800fef1   Thumb Code   464  daddsub_clz.o(x$fpl$dsub)
    __aeabi_fadd                             0x080100c5   Thumb Code     0  faddsub_clz.o(x$fpl$fadd)
    _fadd                                    0x080100c5   Thumb Code   196  faddsub_clz.o(x$fpl$fadd)
    __fpl_fcmp_Inf                           0x08010189   Thumb Code    24  fcmpi.o(x$fpl$fcmpinf)
    __aeabi_fdiv                             0x080101a1   Thumb Code     0  fdiv.o(x$fpl$fdiv)
    _fdiv                                    0x080101a1   Thumb Code   384  fdiv.o(x$fpl$fdiv)
    __aeabi_cfcmpeq                          0x08010325   Thumb Code     0  feqf.o(x$fpl$feqf)
    _fcmpeq                                  0x08010325   Thumb Code   104  feqf.o(x$fpl$feqf)
    __aeabi_f2iz                             0x0801038d   Thumb Code     0  ffix.o(x$fpl$ffix)
    _ffix                                    0x0801038d   Thumb Code    54  ffix.o(x$fpl$ffix)
    __aeabi_f2uiz                            0x080103c5   Thumb Code     0  ffixu.o(x$fpl$ffixu)
    _ffixu                                   0x080103c5   Thumb Code    62  ffixu.o(x$fpl$ffixu)
    __aeabi_i2f                              0x08010405   Thumb Code     0  fflt_clz.o(x$fpl$fflt)
    _fflt                                    0x08010405   Thumb Code    48  fflt_clz.o(x$fpl$fflt)
    __aeabi_ul2f                             0x08010435   Thumb Code     0  ffltll_clz.o(x$fpl$ffltll)
    _ll_uto_f                                0x08010435   Thumb Code     6  ffltll_clz.o(x$fpl$ffltll)
    __aeabi_l2f                              0x0801043b   Thumb Code     0  ffltll_clz.o(x$fpl$ffltll)
    _ll_sto_f                                0x0801043b   Thumb Code    90  ffltll_clz.o(x$fpl$ffltll)
    __aeabi_ui2f                             0x08010495   Thumb Code     0  fflt_clz.o(x$fpl$ffltu)
    _ffltu                                   0x08010495   Thumb Code    38  fflt_clz.o(x$fpl$ffltu)
    __aeabi_cfcmple                          0x080104bd   Thumb Code     0  fleqf.o(x$fpl$fleqf)
    _fcmple                                  0x080104bd   Thumb Code   104  fleqf.o(x$fpl$fleqf)
    __fpl_fcmple_InfNaN                      0x0801050f   Thumb Code     0  fleqf.o(x$fpl$fleqf)
    __aeabi_fmul                             0x08010525   Thumb Code     0  fmul.o(x$fpl$fmul)
    _fmul                                    0x08010525   Thumb Code   258  fmul.o(x$fpl$fmul)
    __fpl_fnaninf                            0x08010627   Thumb Code   140  fnaninf.o(x$fpl$fnaninf)
    __fpl_fretinf                            0x080106b3   Thumb Code    10  fretinf.o(x$fpl$fretinf)
    __aeabi_cfrcmple                         0x080106bd   Thumb Code     0  frleqf.o(x$fpl$frleqf)
    _frcmple                                 0x080106bd   Thumb Code    98  frleqf.o(x$fpl$frleqf)
    __aeabi_frsub                            0x0801071f   Thumb Code     0  faddsub_clz.o(x$fpl$frsb)
    _frsb                                    0x0801071f   Thumb Code    20  faddsub_clz.o(x$fpl$frsb)
    __aeabi_fsub                             0x08010735   Thumb Code     0  faddsub_clz.o(x$fpl$fsub)
    _fsub                                    0x08010735   Thumb Code   234  faddsub_clz.o(x$fpl$fsub)
    __I$use$fp                               0x0801081e   Number         0  usenofp.o(x$fpl$usenofp)
    table_week                               0x0801081e   Data          12  rtc.o(.constdata)
    mon_table                                0x0801082a   Data          12  rtc.o(.constdata)
    ASCII8x16                                0x08010836   Data        1536  gui.o(.constdata)
    tfont16                                  0x08010e36   Data         480  gui.o(.constdata)
    tfont24                                  0x08011016   Data         360  gui.o(.constdata)
    g_utf8_skip                              0x08011838   Data           4  utf8.o(.constdata)
    font_default                             0x080119e4   Data       10195  resource-mini.o(.constdata)
    image_bricks                             0x080141b7   Data       14444  resource-mini.o(.constdata)
    image_checked                            0x08017a23   Data        2348  resource-mini.o(.constdata)
    image_dialog_title                       0x0801834f   Data        7244  resource-mini.o(.constdata)
    image_earth                              0x08019f9b   Data        2348  resource-mini.o(.constdata)
    image_green_btn_n                        0x0801a8c7   Data        3644  resource-mini.o(.constdata)
    image_green_btn_o                        0x0801b703   Data        3644  resource-mini.o(.constdata)
    image_green_btn_p                        0x0801c53f   Data        3644  resource-mini.o(.constdata)
    image_info                               0x0801d37b   Data        2348  resource-mini.o(.constdata)
    image_left_off                           0x0801dca7   Data        2348  resource-mini.o(.constdata)
    image_left_on                            0x0801e5d3   Data        2348  resource-mini.o(.constdata)
    image_middle_off                         0x0801eeff   Data        2348  resource-mini.o(.constdata)
    image_middle_on                          0x0801f82b   Data        2348  resource-mini.o(.constdata)
    image_muted                              0x08020157   Data        2348  resource-mini.o(.constdata)
    image_question                           0x08020a83   Data        2348  resource-mini.o(.constdata)
    image_radio_checked                      0x080213af   Data        2348  resource-mini.o(.constdata)
    image_radio_unchecked                    0x08021cdb   Data        2348  resource-mini.o(.constdata)
    image_red_btn_n                          0x08022607   Data        3644  resource-mini.o(.constdata)
    image_red_btn_o                          0x08023443   Data        3644  resource-mini.o(.constdata)
    image_red_btn_p                          0x0802427f   Data        3644  resource-mini.o(.constdata)
    image_right_off                          0x080250bb   Data        2348  resource-mini.o(.constdata)
    image_right_on                           0x080259e7   Data        2348  resource-mini.o(.constdata)
    image_slider_bg                          0x08026313   Data        1004  resource-mini.o(.constdata)
    image_slider_drag                        0x080266ff   Data        3180  resource-mini.o(.constdata)
    image_slider_drag_o                      0x0802736b   Data        3180  resource-mini.o(.constdata)
    image_slider_drag_p                      0x08027fd7   Data        3180  resource-mini.o(.constdata)
    image_slider_fg                          0x08028c43   Data        1004  resource-mini.o(.constdata)
    image_slider_v_bg                        0x0802902f   Data        1004  resource-mini.o(.constdata)
    image_slider_v_fg                        0x0802941b   Data        1004  resource-mini.o(.constdata)
    image_unchecked                          0x08029807   Data        2348  resource-mini.o(.constdata)
    image_unmuted                            0x0802a133   Data        2348  resource-mini.o(.constdata)
    image_warn                               0x0802aa5f   Data        2348  resource-mini.o(.constdata)
    theme_default                            0x0802b38b   Data        2514  resource-mini.o(.constdata)
    ui_bottom                                0x0802bd5d   Data         261  resource-mini.o(.constdata)
    ui_dialog1                               0x0802be62   Data         305  resource-mini.o(.constdata)
    ui_dialog2                               0x0802bf93   Data         237  resource-mini.o(.constdata)
    ui_fade                                  0x0802c080   Data         297  resource-mini.o(.constdata)
    ui_top                                   0x0802c1a9   Data         261  resource-mini.o(.constdata)
    ui_window                                0x0802c2ae   Data         926  resource-mini.o(.constdata)
    ui_window1                               0x0802c64c   Data         384  resource-mini.o(.constdata)
    ui_window2                               0x0802c7cc   Data         231  resource-mini.o(.constdata)
    Region$$Table$$Base                      0x0802cbc4   Number         0  anon$$obj.o(Region$$Table)
    Region$$Table$$Limit                     0x0802cbe4   Number         0  anon$$obj.o(Region$$Table)
    __ctype                                  0x0802cbf1   Data           0  lc_ctype_c.o(locale$$data)
    SystemCoreClock                          0x20000000   Data           4  system_stm32f10x.o(.data)
    AHBPrescTable                            0x20000004   Data          16  system_stm32f10x.o(.data)
    __stdout                                 0x20000014   Data           4  usart.o(.data)
    USART_RX_STA                             0x20000018   Data           2  usart.o(.data)
    TIM5CH1_CAPTURE_STA                      0x20000030   Data           1  tim.o(.data)
    TIM5CH1_CAPTURE_VAL                      0x20000032   Data           2  tim.o(.data)
    rtc_data                                 0x20000034   Data           7  rtc.o(.data)
    rtc_bit                                  0x2000003b   Data           1  rtc.o(.data)
    TouchData                                0x2000003e   Data           8  touch.o(.data)
    USART_RX_BUF                             0x20000074   Data         200  usart.o(.bss)
    calendar                                 0x2000013c   Data          10  rtc.o(.bss)
    __libspace_start                         0x200031f0   Data          96  libspace.o(.bss)
    __temporary_stack_top$libspace           0x20003250   Data           0  libspace.o(.bss)



==============================================================================

Memory Map of the image

  Image Entry point : 0x08000131

  Load Region LR_IROM1 (Base: 0x08000000, Size: 0x0002cd68, Max: 0x00080000, ABSOLUTE)

    Execution Region ER_IROM1 (Exec base: 0x08000000, Load base: 0x08000000, Size: 0x0002ccf4, Max: 0x00080000, ABSOLUTE)

    Exec Addr    Load Addr    Size         Type   Attr      Idx    E Section Name        Object

    0x08000000   0x08000000   0x00000130   Data   RO          252    RESET               startup_stm32f10x_hd.o
    0x08000130   0x08000130   0x00000008   Code   RO         2938  * !!!main             c_w.l(__main.o)
    0x08000138   0x08000138   0x00000034   Code   RO         3216    !!!scatter          c_w.l(__scatter.o)
    0x0800016c   0x0800016c   0x0000001a   Code   RO         3218    !!handler_copy      c_w.l(__scatter_copy.o)
    0x08000186   0x08000186   0x00000002   PAD
    0x08000188   0x08000188   0x0000001c   Code   RO         3220    !!handler_zi        c_w.l(__scatter_zi.o)
    0x080001a4   0x080001a4   0x00000000   Code   RO         2905    .ARM.Collect$$_printf_percent$$00000000  c_w.l(_printf_percent.o)
    0x080001a4   0x080001a4   0x00000006   Code   RO         2904    .ARM.Collect$$_printf_percent$$00000009  c_w.l(_printf_d.o)
    0x080001aa   0x080001aa   0x00000006   Code   RO         2903    .ARM.Collect$$_printf_percent$$00000014  c_w.l(_printf_s.o)
    0x080001b0   0x080001b0   0x00000004   Code   RO         3030    .ARM.Collect$$_printf_percent$$00000017  c_w.l(_printf_percent_end.o)
    0x080001b4   0x080001b4   0x00000002   Code   RO         3093    .ARM.Collect$$libinit$$00000000  c_w.l(libinit.o)
    0x080001b6   0x080001b6   0x00000000   Code   RO         3095    .ARM.Collect$$libinit$$00000002  c_w.l(libinit2.o)
    0x080001b6   0x080001b6   0x00000000   Code   RO         3097    .ARM.Collect$$libinit$$00000004  c_w.l(libinit2.o)
    0x080001b6   0x080001b6   0x00000000   Code   RO         3100    .ARM.Collect$$libinit$$0000000A  c_w.l(libinit2.o)
    0x080001b6   0x080001b6   0x00000000   Code   RO         3102    .ARM.Collect$$libinit$$0000000C  c_w.l(libinit2.o)
    0x080001b6   0x080001b6   0x00000000   Code   RO         3104    .ARM.Collect$$libinit$$0000000E  c_w.l(libinit2.o)
    0x080001b6   0x080001b6   0x00000006   Code   RO         3105    .ARM.Collect$$libinit$$0000000F  c_w.l(libinit2.o)
    0x080001bc   0x080001bc   0x00000000   Code   RO         3107    .ARM.Collect$$libinit$$00000011  c_w.l(libinit2.o)
    0x080001bc   0x080001bc   0x0000000c   Code   RO         3108    .ARM.Collect$$libinit$$00000012  c_w.l(libinit2.o)
    0x080001c8   0x080001c8   0x00000000   Code   RO         3109    .ARM.Collect$$libinit$$00000013  c_w.l(libinit2.o)
    0x080001c8   0x080001c8   0x00000000   Code   RO         3111    .ARM.Collect$$libinit$$00000015  c_w.l(libinit2.o)
    0x080001c8   0x080001c8   0x00000000   Code   RO         3113    .ARM.Collect$$libinit$$00000017  c_w.l(libinit2.o)
    0x080001c8   0x080001c8   0x00000000   Code   RO         3115    .ARM.Collect$$libinit$$00000019  c_w.l(libinit2.o)
    0x080001c8   0x080001c8   0x00000000   Code   RO         3117    .ARM.Collect$$libinit$$0000001B  c_w.l(libinit2.o)
    0x080001c8   0x080001c8   0x00000000   Code   RO         3119    .ARM.Collect$$libinit$$0000001D  c_w.l(libinit2.o)
    0x080001c8   0x080001c8   0x00000000   Code   RO         3121    .ARM.Collect$$libinit$$0000001F  c_w.l(libinit2.o)
    0x080001c8   0x080001c8   0x00000000   Code   RO         3123    .ARM.Collect$$libinit$$00000021  c_w.l(libinit2.o)
    0x080001c8   0x080001c8   0x00000000   Code   RO         3125    .ARM.Collect$$libinit$$00000023  c_w.l(libinit2.o)
    0x080001c8   0x080001c8   0x00000000   Code   RO         3127    .ARM.Collect$$libinit$$00000025  c_w.l(libinit2.o)
    0x080001c8   0x080001c8   0x00000000   Code   RO         3131    .ARM.Collect$$libinit$$0000002C  c_w.l(libinit2.o)
    0x080001c8   0x080001c8   0x00000000   Code   RO         3133    .ARM.Collect$$libinit$$0000002E  c_w.l(libinit2.o)
    0x080001c8   0x080001c8   0x00000000   Code   RO         3135    .ARM.Collect$$libinit$$00000030  c_w.l(libinit2.o)
    0x080001c8   0x080001c8   0x00000000   Code   RO         3137    .ARM.Collect$$libinit$$00000032  c_w.l(libinit2.o)
    0x080001c8   0x080001c8   0x00000002   Code   RO         3138    .ARM.Collect$$libinit$$00000033  c_w.l(libinit2.o)
    0x080001ca   0x080001ca   0x00000002   Code   RO         3166    .ARM.Collect$$libshutdown$$00000000  c_w.l(libshutdown.o)
    0x080001cc   0x080001cc   0x00000000   Code   RO         3175    .ARM.Collect$$libshutdown$$00000002  c_w.l(libshutdown2.o)
    0x080001cc   0x080001cc   0x00000000   Code   RO         3177    .ARM.Collect$$libshutdown$$00000004  c_w.l(libshutdown2.o)
    0x080001cc   0x080001cc   0x00000000   Code   RO         3180    .ARM.Collect$$libshutdown$$00000007  c_w.l(libshutdown2.o)
    0x080001cc   0x080001cc   0x00000000   Code   RO         3183    .ARM.Collect$$libshutdown$$0000000A  c_w.l(libshutdown2.o)
    0x080001cc   0x080001cc   0x00000000   Code   RO         3185    .ARM.Collect$$libshutdown$$0000000C  c_w.l(libshutdown2.o)
    0x080001cc   0x080001cc   0x00000000   Code   RO         3188    .ARM.Collect$$libshutdown$$0000000F  c_w.l(libshutdown2.o)
    0x080001cc   0x080001cc   0x00000002   Code   RO         3189    .ARM.Collect$$libshutdown$$00000010  c_w.l(libshutdown2.o)
    0x080001ce   0x080001ce   0x00000000   Code   RO         3010    .ARM.Collect$$rtentry$$00000000  c_w.l(__rtentry.o)
    0x080001ce   0x080001ce   0x00000000   Code   RO         3052    .ARM.Collect$$rtentry$$00000002  c_w.l(__rtentry2.o)
    0x080001ce   0x080001ce   0x00000006   Code   RO         3064    .ARM.Collect$$rtentry$$00000004  c_w.l(__rtentry4.o)
    0x080001d4   0x080001d4   0x00000000   Code   RO         3054    .ARM.Collect$$rtentry$$00000009  c_w.l(__rtentry2.o)
    0x080001d4   0x080001d4   0x00000004   Code   RO         3055    .ARM.Collect$$rtentry$$0000000A  c_w.l(__rtentry2.o)
    0x080001d8   0x080001d8   0x00000000   Code   RO         3057    .ARM.Collect$$rtentry$$0000000C  c_w.l(__rtentry2.o)
    0x080001d8   0x080001d8   0x00000008   Code   RO         3058    .ARM.Collect$$rtentry$$0000000D  c_w.l(__rtentry2.o)
    0x080001e0   0x080001e0   0x00000002   Code   RO         3139    .ARM.Collect$$rtexit$$00000000  c_w.l(rtexit.o)
    0x080001e2   0x080001e2   0x00000000   Code   RO         3146    .ARM.Collect$$rtexit$$00000002  c_w.l(rtexit2.o)
    0x080001e2   0x080001e2   0x00000004   Code   RO         3147    .ARM.Collect$$rtexit$$00000003  c_w.l(rtexit2.o)
    0x080001e6   0x080001e6   0x00000006   Code   RO         3148    .ARM.Collect$$rtexit$$00000004  c_w.l(rtexit2.o)
    0x080001ec   0x080001ec   0x00000018   Code   RO            1    .text               stm32f10x_it.o
    0x08000204   0x08000204   0x000001e0   Code   RO          104    .text               system_stm32f10x.o
    0x080003e4   0x080003e4   0x00000040   Code   RO          122    .text               main.o
    0x08000424   0x08000424   0x0000012c   Code   RO          216    .text               usart.o
    0x08000550   0x08000550   0x00000040   Code   RO          253    .text               startup_stm32f10x_hd.o
    0x08000590   0x08000590   0x000000dc   Code   RO          257    .text               misc.o
    0x0800066c   0x0800066c   0x0000035c   Code   RO          269    .text               stm32f10x_gpio.o
    0x080009c8   0x080009c8   0x000003a4   Code   RO          281    .text               stm32f10x_rcc.o
    0x08000d6c   0x08000d6c   0x00000408   Code   RO          295    .text               stm32f10x_usart.o
    0x08001174   0x08001174   0x00000e1a   Code   RO          343    .text               stm32f10x_tim.o
    0x08001f8e   0x08001f8e   0x00000002   PAD
    0x08001f90   0x08001f90   0x0000060c   Code   RO          355    .text               stm32f10x_fsmc.o
    0x0800259c   0x0800259c   0x000000c4   Code   RO          367    .text               stm32f10x_bkp.o
    0x08002660   0x08002660   0x00000148   Code   RO          379    .text               stm32f10x_rtc.o
    0x080027a8   0x080027a8   0x000000cc   Code   RO          391    .text               stm32f10x_pwr.o
    0x08002874   0x08002874   0x0000030c   Code   RO          415    .text               stm32f10x_spi.o
    0x08002b80   0x08002b80   0x000000a4   Code   RO          451    .text               led.o
    0x08002c24   0x08002c24   0x000002b8   Code   RO          464    .text               lcd_driver.o
    0x08002edc   0x08002edc   0x00000100   Code   RO          479    .text               button.o
    0x08002fdc   0x08002fdc   0x0000023c   Code   RO          492    .text               tim.o
    0x08003218   0x08003218   0x00000460   Code   RO          511    .text               rtc.o
    0x08003678   0x08003678   0x00000440   Code   RO          535    .text               touch.o
    0x08003ab8   0x08003ab8   0x000001dc   Code   RO          557    .text               spi.o
    0x08003c94   0x08003c94   0x00000430   Code   RO          569    .text               gui.o
    0x080040c4   0x080040c4   0x0000039c   Code   RO          590    .text               flash.o
    0x08004460   0x08004460   0x0000026a   Code   RO          604    .text               array.o
    0x080046ca   0x080046ca   0x00000020   Code   RO          648    .text               bitmap.o
    0x080046ea   0x080046ea   0x00000002   PAD
    0x080046ec   0x080046ec   0x000000d0   Code   RO          695    .text               button_1.o
    0x080047bc   0x080047bc   0x0000218a   Code   RO          779    .text               canvas.o
    0x08006946   0x08006946   0x00000002   PAD
    0x08006948   0x08006948   0x00000214   Code   RO          819    .text               check_button.o
    0x08006b5c   0x08006b5c   0x00000018   Code   RO          876    .text               color.o
    0x08006b74   0x08006b74   0x00000390   Code   RO          895    .text               dialog.o
    0x08006f04   0x08006f04   0x00000292   Code   RO          988    .text               emitter.o
    0x08007196   0x08007196   0x00000002   PAD
    0x08007198   0x08007198   0x00000148   Code   RO         1037    .text               enums.o
    0x080072e0   0x080072e0   0x0000005e   Code   RO         1092    .text               font.o
    0x0800733e   0x0800733e   0x00000002   PAD
    0x08007340   0x08007340   0x000000fc   Code   RO         1114    .text               font_manager.o
    0x0800743c   0x0800743c   0x00000068   Code   RO         1138    .text               group_box.o
    0x080074a4   0x080074a4   0x0000027c   Code   RO         1186    .text               image.o
    0x08007720   0x08007720   0x000002b8   Code   RO         1237    .text               image_manager.o
    0x080079d8   0x080079d8   0x00000060   Code   RO         1270    .text               label.o
    0x08007a38   0x08007a38   0x00000352   Code   RO         1318    .text               lcd.o
    0x08007d8a   0x08007d8a   0x00000002   PAD
    0x08007d8c   0x08007d8c   0x000000e0   Code   RO         1343    .text               main_loop.o
    0x08007e6c   0x08007e6c   0x000002a8   Code   RO         1409    .text               mem.o
    0x08008114   0x08008114   0x00000434   Code   RO         1430    .text               progress_bar.o
    0x08008548   0x08008548   0x000000d4   Code   RO         1481    .text               rect.o
    0x0800861c   0x0800861c   0x0000023c   Code   RO         1500    .text               theme.o
    0x08008858   0x08008858   0x00000304   Code   RO         1524    .text               utf8.o
    0x08008b5c   0x08008b5c   0x00000418   Code   RO         1549    .text               value.o
    0x08008f74   0x08008f74   0x0000130c   Code   RO         1571    .text               widget.o
    0x0800a280   0x0800a280   0x00000200   Code   RO         1627    .text               widget_vtable.o
    0x0800a480   0x0800a480   0x0000012c   Code   RO         1681    .text               window.o
    0x0800a5ac   0x0800a5ac   0x00000844   Code   RO         1735    .text               window_manager.o
    0x0800adf0   0x0800adf0   0x000003d6   Code   RO         1805    .text               wstr.o
    0x0800b1c6   0x0800b1c6   0x00000002   PAD
    0x0800b1c8   0x0800b1c8   0x00000138   Code   RO         1830    .text               font_bitmap.o
    0x0800b300   0x0800b300   0x000004dc   Code   RO         1855    .text               utils.o
    0x0800b7dc   0x0800b7dc   0x00000394   Code   RO         1905    .text               timer.o
    0x0800bb70   0x0800bb70   0x000001fc   Code   RO         1959    .text               resource_manager.o
    0x0800bd6c   0x0800bd6c   0x00000758   Code   RO         1989    .text               layout.o
    0x0800c4c4   0x0800c4c4   0x00000146   Code   RO         2035    .text               event_queue.o
    0x0800c60a   0x0800c60a   0x00000002   PAD
    0x0800c60c   0x0800c60c   0x000007ac   Code   RO         2069    .text               slider.o
    0x0800cdb8   0x0800cdb8   0x00000120   Code   RO         2117    .text               window_animator.o
    0x0800ced8   0x0800ced8   0x00000010   Code   RO         2163    .text               window_animator_null.o
    0x0800cee8   0x0800cee8   0x000002bc   Code   RO         2209    .text               idle.o
    0x0800d1a4   0x0800d1a4   0x00000018   Code   RO         2260    .text               time.o
    0x0800d1bc   0x0800d1bc   0x00000008   Code   RO         2279    .text               system_info.o
    0x0800d1c4   0x0800d1c4   0x0000002c   Code   RO         2309    .text               image_loader.o
    0x0800d1f0   0x0800d1f0   0x000001e0   Code   RO         2328    .text               tk.o
    0x0800d3d0   0x0800d3d0   0x00000254   Code   RO         2392    .text               locale.o
    0x0800d624   0x0800d624   0x000004f0   Code   RO         2432    .text               str.o
    0x0800db14   0x0800db14   0x00000290   Code   RO         2457    .text               main_loop_simple.o
    0x0800dda4   0x0800dda4   0x0000001c   Code   RO         2519    .text               mutex.o
    0x0800ddc0   0x0800ddc0   0x00000574   Code   RO         2543    .text               lcd_stm32_raw.o
    0x0800e334   0x0800e334   0x000000d8   Code   RO         2586    .text               main_loop_stm32_raw.o
    0x0800e40c   0x0800e40c   0x000000a8   Code   RO         2665    .text               platform.o
    0x0800e4b4   0x0800e4b4   0x0000001e   Code   RO         2690    .text               demo_main.o
    0x0800e4d2   0x0800e4d2   0x00000002   PAD
    0x0800e4d4   0x0800e4d4   0x00000544   Code   RO         2721    .text               demo1_app.o
    0x0800ea18   0x0800ea18   0x000001fc   Code   RO         2798    .text               resource-mini.o
    0x0800ec14   0x0800ec14   0x00000002   Code   RO         2863    .text               c_w.l(use_no_semi_2.o)
    0x0800ec16   0x0800ec16   0x0000001a   Code   RO         2865    .text               c_w.l(tolower.o)
    0x0800ec30   0x0800ec30   0x0000001e   Code   RO         2867    .text               c_w.l(toupper.o)
    0x0800ec4e   0x0800ec4e   0x00000002   PAD
    0x0800ec50   0x0800ec50   0x00000018   Code   RO         2873    .text               c_w.l(noretval__2printf.o)
    0x0800ec68   0x0800ec68   0x00000034   Code   RO         2875    .text               c_w.l(noretval__2snprintf.o)
    0x0800ec9c   0x0800ec9c   0x00000068   Code   RO         2877    .text               c_w.l(__printf.o)
    0x0800ed04   0x0800ed04   0x00000052   Code   RO         2879    .text               c_w.l(_printf_str.o)
    0x0800ed56   0x0800ed56   0x00000002   PAD
    0x0800ed58   0x0800ed58   0x00000078   Code   RO         2881    .text               c_w.l(_printf_dec.o)
    0x0800edd0   0x0800edd0   0x0000001a   Code   RO         2906    .text               c_w.l(atoi.o)
    0x0800edea   0x0800edea   0x00000014   Code   RO         2908    .text               c_w.l(strchr.o)
    0x0800edfe   0x0800edfe   0x00000024   Code   RO         2910    .text               c_w.l(strstr.o)
    0x0800ee22   0x0800ee22   0x00000048   Code   RO         2912    .text               c_w.l(strcpy.o)
    0x0800ee6a   0x0800ee6a   0x0000003e   Code   RO         2914    .text               c_w.l(strlen.o)
    0x0800eea8   0x0800eea8   0x00000012   Code   RO         2916    .text               c_w.l(wcscpy.o)
    0x0800eeba   0x0800eeba   0x00000012   Code   RO         2918    .text               c_w.l(wcslen.o)
    0x0800eecc   0x0800eecc   0x00000096   Code   RO         2920    .text               c_w.l(strncmp.o)
    0x0800ef62   0x0800ef62   0x0000008a   Code   RO         2922    .text               c_w.l(rt_memcpy_v6.o)
    0x0800efec   0x0800efec   0x00000084   Code   RO         2924    .text               c_w.l(rt_memmove_v6.o)
    0x0800f070   0x0800f070   0x00000064   Code   RO         2926    .text               c_w.l(rt_memcpy_w.o)
    0x0800f0d4   0x0800f0d4   0x00000044   Code   RO         2928    .text               c_w.l(rt_memclr.o)
    0x0800f118   0x0800f118   0x0000004e   Code   RO         2930    .text               c_w.l(rt_memclr_w.o)
    0x0800f166   0x0800f166   0x00000056   Code   RO         2932    .text               c_w.l(strncpy.o)
    0x0800f1bc   0x0800f1bc   0x00000080   Code   RO         2934    .text               c_w.l(strcmpv7m.o)
    0x0800f23c   0x0800f23c   0x00000006   Code   RO         2936    .text               c_w.l(heapauxi.o)
    0x0800f242   0x0800f242   0x00000002   Code   RO         3008    .text               c_w.l(use_no_semi.o)
    0x0800f244   0x0800f244   0x00000010   Code   RO         3011    .text               c_w.l(rt_ctype_table.o)
    0x0800f254   0x0800f254   0x00000008   Code   RO         3016    .text               c_w.l(rt_errno_addr_intlibspace.o)
    0x0800f25c   0x0800f25c   0x000000b2   Code   RO         3018    .text               c_w.l(_printf_intcommon.o)
    0x0800f30e   0x0800f30e   0x00000002   PAD
    0x0800f310   0x0800f310   0x00000030   Code   RO         3020    .text               c_w.l(_printf_char_common.o)
    0x0800f340   0x0800f340   0x0000000a   Code   RO         3022    .text               c_w.l(_sputc.o)
    0x0800f34a   0x0800f34a   0x00000010   Code   RO         3024    .text               c_w.l(_snputc.o)
    0x0800f35a   0x0800f35a   0x0000002c   Code   RO         3026    .text               c_w.l(_printf_char.o)
    0x0800f386   0x0800f386   0x00000002   PAD
    0x0800f388   0x0800f388   0x00000024   Code   RO         3028    .text               c_w.l(_printf_char_file.o)
    0x0800f3ac   0x0800f3ac   0x00000070   Code   RO         3031    .text               c_w.l(strtol.o)
    0x0800f41c   0x0800f41c   0x0000007a   Code   RO         3033    .text               c_w.l(rt_memmove_w.o)
    0x0800f496   0x0800f496   0x00000002   PAD
    0x0800f498   0x0800f498   0x00000008   Code   RO         3048    .text               c_w.l(libspace.o)
    0x0800f4a0   0x0800f4a0   0x00000008   Code   RO         3069    .text               c_w.l(rt_locale_intlibspace.o)
    0x0800f4a8   0x0800f4a8   0x0000009e   Code   RO         3073    .text               c_w.l(_strtoul.o)
    0x0800f546   0x0800f546   0x00000008   Code   RO         3075    .text               c_w.l(ferror.o)
    0x0800f54e   0x0800f54e   0x0000004a   Code   RO         3082    .text               c_w.l(sys_stackheap_outer.o)
    0x0800f598   0x0800f598   0x0000001c   Code   RO         3084    .text               c_w.l(_chval.o)
    0x0800f5b4   0x0800f5b4   0x00000012   Code   RO         3086    .text               c_w.l(exit.o)
    0x0800f5c6   0x0800f5c6   0x00000002   PAD
    0x0800f5c8   0x0800f5c8   0x0000002c   Code   RO         3080    locale$$code        c_w.l(lc_ctype_c.o)
    0x0800f5f4   0x0800f5f4   0x00000062   Code   RO         2940    x$fpl$d2f           fz_ws.l(d2f.o)
    0x0800f656   0x0800f656   0x00000002   PAD
    0x0800f658   0x0800f658   0x00000150   Code   RO         2942    x$fpl$dadd          fz_ws.l(daddsub_clz.o)
    0x0800f7a8   0x0800f7a8   0x00000018   Code   RO         3035    x$fpl$dcmpinf       fz_ws.l(dcmpi.o)
    0x0800f7c0   0x0800f7c0   0x000002b0   Code   RO         2949    x$fpl$ddiv          fz_ws.l(ddiv.o)
    0x0800fa70   0x0800fa70   0x00000078   Code   RO         2952    x$fpl$deqf          fz_ws.l(deqf.o)
    0x0800fae8   0x0800fae8   0x0000005e   Code   RO         2954    x$fpl$dfix          fz_ws.l(dfix.o)
    0x0800fb46   0x0800fb46   0x00000002   PAD
    0x0800fb48   0x0800fb48   0x0000005a   Code   RO         2958    x$fpl$dfixu         fz_ws.l(dfixu.o)
    0x0800fba2   0x0800fba2   0x0000002e   Code   RO         2963    x$fpl$dflt          fz_ws.l(dflt_clz.o)
    0x0800fbd0   0x0800fbd0   0x00000026   Code   RO         2962    x$fpl$dfltu         fz_ws.l(dflt_clz.o)
    0x0800fbf6   0x0800fbf6   0x00000002   PAD
    0x0800fbf8   0x0800fbf8   0x00000078   Code   RO         2968    x$fpl$dleqf         fz_ws.l(dleqf.o)
    0x0800fc70   0x0800fc70   0x00000154   Code   RO         2970    x$fpl$dmul          fz_ws.l(dmul.o)
    0x0800fdc4   0x0800fdc4   0x0000009c   Code   RO         3037    x$fpl$dnaninf       fz_ws.l(dnaninf.o)
    0x0800fe60   0x0800fe60   0x0000000c   Code   RO         3039    x$fpl$dretinf       fz_ws.l(dretinf.o)
    0x0800fe6c   0x0800fe6c   0x0000006c   Code   RO         2972    x$fpl$drleqf        fz_ws.l(drleqf.o)
    0x0800fed8   0x0800fed8   0x00000016   Code   RO         2943    x$fpl$drsb          fz_ws.l(daddsub_clz.o)
    0x0800feee   0x0800feee   0x00000002   PAD
    0x0800fef0   0x0800fef0   0x000001d4   Code   RO         2944    x$fpl$dsub          fz_ws.l(daddsub_clz.o)
    0x080100c4   0x080100c4   0x000000c4   Code   RO         2974    x$fpl$fadd          fz_ws.l(faddsub_clz.o)
    0x08010188   0x08010188   0x00000018   Code   RO         3041    x$fpl$fcmpinf       fz_ws.l(fcmpi.o)
    0x080101a0   0x080101a0   0x00000184   Code   RO         2981    x$fpl$fdiv          fz_ws.l(fdiv.o)
    0x08010324   0x08010324   0x00000068   Code   RO         2984    x$fpl$feqf          fz_ws.l(feqf.o)
    0x0801038c   0x0801038c   0x00000036   Code   RO         2986    x$fpl$ffix          fz_ws.l(ffix.o)
    0x080103c2   0x080103c2   0x00000002   PAD
    0x080103c4   0x080103c4   0x0000003e   Code   RO         2990    x$fpl$ffixu         fz_ws.l(ffixu.o)
    0x08010402   0x08010402   0x00000002   PAD
    0x08010404   0x08010404   0x00000030   Code   RO         2995    x$fpl$fflt          fz_ws.l(fflt_clz.o)
    0x08010434   0x08010434   0x00000060   Code   RO         3000    x$fpl$ffltll        fz_ws.l(ffltll_clz.o)
    0x08010494   0x08010494   0x00000026   Code   RO         2994    x$fpl$ffltu         fz_ws.l(fflt_clz.o)
    0x080104ba   0x080104ba   0x00000002   PAD
    0x080104bc   0x080104bc   0x00000068   Code   RO         3002    x$fpl$fleqf         fz_ws.l(fleqf.o)
    0x08010524   0x08010524   0x00000102   Code   RO         3004    x$fpl$fmul          fz_ws.l(fmul.o)
    0x08010626   0x08010626   0x0000008c   Code   RO         3043    x$fpl$fnaninf       fz_ws.l(fnaninf.o)
    0x080106b2   0x080106b2   0x0000000a   Code   RO         3045    x$fpl$fretinf       fz_ws.l(fretinf.o)
    0x080106bc   0x080106bc   0x00000062   Code   RO         3006    x$fpl$frleqf        fz_ws.l(frleqf.o)
    0x0801071e   0x0801071e   0x00000014   Code   RO         2975    x$fpl$frsb          fz_ws.l(faddsub_clz.o)
    0x08010732   0x08010732   0x00000002   PAD
    0x08010734   0x08010734   0x000000ea   Code   RO         2976    x$fpl$fsub          fz_ws.l(faddsub_clz.o)
    0x0801081e   0x0801081e   0x00000000   Code   RO         3047    x$fpl$usenofp       fz_ws.l(usenofp.o)
    0x0801081e   0x0801081e   0x00000018   Data   RO          513    .constdata          rtc.o
    0x08010836   0x08010836   0x00000948   Data   RO          570    .constdata          gui.o
    0x0801117e   0x0801117e   0x00000002   PAD
    0x08011180   0x08011180   0x0000004c   Data   RO          696    .constdata          button_1.o
    0x080111cc   0x080111cc   0x00000054   Data   RO          820    .constdata          check_button.o
    0x08011220   0x08011220   0x0000004c   Data   RO          896    .constdata          dialog.o
    0x0801126c   0x0801126c   0x0000039c   Data   RO         1038    .constdata          enums.o
    0x08011608   0x08011608   0x0000004c   Data   RO         1139    .constdata          group_box.o
    0x08011654   0x08011654   0x0000004c   Data   RO         1187    .constdata          image.o
    0x080116a0   0x080116a0   0x0000004c   Data   RO         1271    .constdata          label.o
    0x080116ec   0x080116ec   0x0000004c   Data   RO         1431    .constdata          progress_bar.o
    0x08011738   0x08011738   0x00000104   Data   RO         1525    .constdata          utf8.o
    0x0801183c   0x0801183c   0x00000048   Data   RO         1572    .constdata          widget.o
    0x08011884   0x08011884   0x0000004c   Data   RO         1628    .constdata          widget_vtable.o
    0x080118d0   0x080118d0   0x0000004c   Data   RO         1682    .constdata          window.o
    0x0801191c   0x0801191c   0x00000072   Data   RO         1736    .constdata          window_manager.o
    0x0801198e   0x0801198e   0x00000002   PAD
    0x08011990   0x08011990   0x0000004c   Data   RO         2070    .constdata          slider.o
    0x080119dc   0x080119dc   0x00000008   Data   RO         2393    .constdata          locale.o
    0x080119e4   0x080119e4   0x0001aecf   Data   RO         2799    .constdata          resource-mini.o
    0x0802c8b3   0x0802c8b3   0x00000001   PAD
    0x0802c8b4   0x0802c8b4   0x0000030e   Data   RO         1039    .conststring        enums.o
    0x0802cbc2   0x0802cbc2   0x00000002   PAD
    0x0802cbc4   0x0802cbc4   0x00000020   Data   RO         3214    Region$$Table       anon$$obj.o
    0x0802cbe4   0x0802cbe4   0x00000110   Data   RO         3079    locale$$data        c_w.l(lc_ctype_c.o)


    Execution Region RW_IRAM1 (Exec base: 0x20000000, Load base: 0x0802ccf4, Size: 0x00003850, Max: 0x00010000, ABSOLUTE)

    Exec Addr    Load Addr    Size         Type   Attr      Idx    E Section Name        Object

    0x20000000   0x0802ccf4   0x00000014   Data   RW          105    .data               system_stm32f10x.o
    0x20000014   0x0802cd08   0x00000006   Data   RW          218    .data               usart.o
    0x2000001a   0x0802cd0e   0x00000014   Data   RW          282    .data               stm32f10x_rcc.o
    0x2000002e   0x0802cd22   0x00000001   Data   RW          452    .data               led.o
    0x2000002f   0x0802cd23   0x00000001   Data   RW          480    .data               button.o
    0x20000030   0x0802cd24   0x00000004   Data   RW          493    .data               tim.o
    0x20000034   0x0802cd28   0x0000000a   Data   RW          514    .data               rtc.o
    0x2000003e   0x0802cd32   0x00000008   Data   RW          537    .data               touch.o
    0x20000046   0x0802cd3a   0x00000002   PAD
    0x20000048   0x0802cd3c   0x00000004   Data   RW         1115    .data               font_manager.o
    0x2000004c   0x0802cd40   0x00000004   Data   RW         1238    .data               image_manager.o
    0x20000050   0x0802cd44   0x00000004   Data   RW         1344    .data               main_loop.o
    0x20000054   0x0802cd48   0x00000004   Data   RW         1501    .data               theme.o
    0x20000058   0x0802cd4c   0x00000004   Data   RW         1737    .data               window_manager.o
    0x2000005c   0x0802cd50   0x00000004   Data   RW         1906    .data               timer.o
    0x20000060   0x0802cd54   0x00000004   Data   RW         1960    .data               resource_manager.o
    0x20000064   0x0802cd58   0x00000004   Data   RW         2210    .data               idle.o
    0x20000068   0x0802cd5c   0x00000004   Data   RW         2394    .data               locale.o
    0x2000006c   0x0802cd60   0x00000004   Data   RW         2520    .data               mutex.o
    0x20000070   0x0802cd64   0x00000004   Data   RW         2667    .data               platform.o
    0x20000074        -       0x000000c8   Zero   RW          217    .bss                usart.o
    0x2000013c        -       0x0000000a   Zero   RW          512    .bss                rtc.o
    0x20000146   0x0802cd68   0x00000002   PAD
    0x20000148        -       0x0000000c   Zero   RW          536    .bss                touch.o
    0x20000154        -       0x00001000   Zero   RW          591    .bss                flash.o
    0x20001154        -       0x00000010   Zero   RW         1410    .bss                mem.o
    0x20001164        -       0x00000010   Zero   RW         2280    .bss                system_info.o
    0x20001174        -       0x0000007c   Zero   RW         2458    .bss                main_loop_simple.o
    0x200011f0        -       0x00002000   Zero   RW         2666    .bss                platform.o
    0x200031f0        -       0x00000060   Zero   RW         3049    .bss                c_w.l(libspace.o)
    0x20003250        -       0x00000200   Zero   RW          251    HEAP                startup_stm32f10x_hd.o
    0x20003450        -       0x00000400   Zero   RW          250    STACK               startup_stm32f10x_hd.o


==============================================================================

Image component sizes


      Code (inc. data)   RO Data    RW Data    ZI Data      Debug   Object Name

       618          0          0          0          0      11807   array.o
        32          0          0          0          0       2201   bitmap.o
       256         12          0          1          0        850   button.o
       208          4         76          0          0      25120   button_1.o
      8586         72          0          0          0      37914   canvas.o
       532         18         84          0          0      16159   check_button.o
        24          0          0          0          0        641   color.o
         0          0          0          0          0         32   core_cm3.o
      1348        256          0          0          0      14959   demo1_app.o
        30          0          0          0          0        600   demo_main.o
       912         60         76          0          0      20527   dialog.o
       658          0          0          0          0      19486   emitter.o
       328         32       1706          0          0       6047   enums.o
       326          0          0          0          0       8848   event_queue.o
       924         12          0          0       4096       3429   flash.o
        94          0          0          0          0       2970   font.o
       312         12          0          0          0       5098   font_bitmap.o
       252         14          0          4          0       4642   font_manager.o
       104          4         76          0          0      12983   group_box.o
      1072         12       2376          0          0       5759   gui.o
       700         12          0          4          0      12631   idle.o
       636         26         76          0          0      15708   image.o
        44          0          0          0          0       1184   image_loader.o
       696         14          0          4          0       8037   image_manager.o
        96          4         76          0          0      12947   label.o
      1880         12          0          0          0      17069   layout.o
       850          0          0          0          0      11458   lcd.o
       696         18          0          0          0       2092   lcd_driver.o
      1396         38          0          0          0      10501   lcd_stm32_raw.o
       164         10          0          1          0        739   led.o
       596         26          8          4          0      11561   locale.o
        64          0          0          0          0     205267   main.o
       224          4          0          4          0      18800   main_loop.o
       656         14          0          0        124      17465   main_loop_simple.o
       216         18          0          0          0      22365   main_loop_stm32_raw.o
       680          4          0          0         16       4321   mem.o
       220         22          0          0          0       1945   misc.o
        28          6          0          4          0       2089   mutex.o
       168         18          0          4       8192       2067   platform.o
      1076         36         76          0          0      16002   progress_bar.o
       212          0          0          0          0       1567   rect.o
       508        164     110287          0          0      14408   resource-mini.o
       508         12          0          4          0       5702   resource_manager.o
      1120         66         24         10         10       4507   rtc.o
      1964         46         76          0          0      18031   slider.o
       476         16          0          0          0       1828   spi.o
        64         26        304          0       1536        812   startup_stm32f10x_hd.o
       196          8          0          0          0       3644   stm32f10x_bkp.o
      1548         18          0          0          0       5523   stm32f10x_fsmc.o
       860         38          0          0          0       5877   stm32f10x_gpio.o
        24          0          0          0          0      64030   stm32f10x_it.o
       204         14          0          0          0       1967   stm32f10x_pwr.o
       932         36          0         20          0       9068   stm32f10x_rcc.o
       328          4          0          0          0       2734   stm32f10x_rtc.o
       780         14          0          0          0       6762   stm32f10x_spi.o
      3610         88          0          0          0      22988   stm32f10x_tim.o
      1032         22          0          0          0       8604   stm32f10x_usart.o
      1264          6          0          0          0      10039   str.o
         8          4          0          0         16       5322   system_info.o
       480         38          0         20          0       1895   system_stm32f10x.o
       572          8          0          4          0       4556   theme.o
       572         24          0          4          0       1965   tim.o
        24          0          0          0          0        617   time.o
       916         12          0          4          0      14904   timer.o
       480         10          0          0          0       2819   tk.o
      1088         38          0          8         12       4446   touch.o
       300         18          0          6        200       3306   usart.o
       772          6        260          0          0       6273   utf8.o
      1244         26          0          0          0       6412   utils.o
      1048         44          0          0          0      10140   value.o
      4876         78         72          0          0      40296   widget.o
       512          6         76          0          0      22535   widget_vtable.o
       300         16         76          0          0      14317   window.o
       288          0          0          0          0      14109   window_animator.o
        16          0          0          0          0      13783   window_animator_null.o
      2116         42        114          4          0      31558   window_manager.o
       982          0          0          0          0       8603   wstr.o

    ----------------------------------------------------------------------
     59944       1738     115958        116      14204     990267   Object Totals
         0          0         32          0          0          0   (incl. Generated)
        18          0          7          2          2          0   (incl. Padding)

    ----------------------------------------------------------------------

      Code (inc. data)   RO Data    RW Data    ZI Data      Debug   Library Member Name

         8          0          0          0          0         68   __main.o
       104          0          0          0          0         84   __printf.o
         0          0          0          0          0          0   __rtentry.o
        12          0          0          0          0          0   __rtentry2.o
         6          0          0          0          0          0   __rtentry4.o
        52          8          0          0          0          0   __scatter.o
        26          0          0          0          0          0   __scatter_copy.o
        28          0          0          0          0          0   __scatter_zi.o
        28          0          0          0          0         68   _chval.o
        44          0          0          0          0        108   _printf_char.o
        48          6          0          0          0         96   _printf_char_common.o
        36          4          0          0          0         80   _printf_char_file.o
         6          0          0          0          0          0   _printf_d.o
       120         16          0          0          0         92   _printf_dec.o
       178          0          0          0          0         88   _printf_intcommon.o
         0          0          0          0          0          0   _printf_percent.o
         4          0          0          0          0          0   _printf_percent_end.o
         6          0          0          0          0          0   _printf_s.o
        82          0          0          0          0         80   _printf_str.o
        16          0          0          0          0         68   _snputc.o
        10          0          0          0          0         68   _sputc.o
       158          0          0          0          0         92   _strtoul.o
        26          0          0          0          0         80   atoi.o
        18          0          0          0          0         80   exit.o
         8          0          0          0          0         68   ferror.o
         6          0          0          0          0        152   heapauxi.o
        44         10        272          0          0         76   lc_ctype_c.o
         2          0          0          0          0          0   libinit.o
        20          0          0          0          0          0   libinit2.o
         2          0          0          0          0          0   libshutdown.o
         2          0          0          0          0          0   libshutdown2.o
         8          4          0          0         96         68   libspace.o
        24          4          0          0          0         84   noretval__2printf.o
        52          4          0          0          0         84   noretval__2snprintf.o
        16          4          0          0          0         76   rt_ctype_table.o
         8          4          0          0          0         68   rt_errno_addr_intlibspace.o
         8          4          0          0          0         68   rt_locale_intlibspace.o
        68          0          0          0          0         68   rt_memclr.o
        78          0          0          0          0         80   rt_memclr_w.o
       138          0          0          0          0         68   rt_memcpy_v6.o
       100          0          0          0          0         80   rt_memcpy_w.o
       132          0          0          0          0         68   rt_memmove_v6.o
       122          0          0          0          0         80   rt_memmove_w.o
         2          0          0          0          0          0   rtexit.o
        10          0          0          0          0          0   rtexit2.o
        20          0          0          0          0         68   strchr.o
       128          0          0          0          0         68   strcmpv7m.o
        72          0          0          0          0         80   strcpy.o
        62          0          0          0          0         76   strlen.o
       150          0          0          0          0         80   strncmp.o
        86          0          0          0          0         76   strncpy.o
        36          0          0          0          0         80   strstr.o
       112          0          0          0          0         88   strtol.o
        74          0          0          0          0         80   sys_stackheap_outer.o
        26          0          0          0          0         76   tolower.o
        30          0          0          0          0         76   toupper.o
         2          0          0          0          0         68   use_no_semi.o
         2          0          0          0          0         68   use_no_semi_2.o
        18          0          0          0          0         68   wcscpy.o
        18          0          0          0          0         68   wcslen.o
        98          4          0          0          0         92   d2f.o
       826         16          0          0          0        348   daddsub_clz.o
        24          0          0          0          0         68   dcmpi.o
       688        140          0          0          0        208   ddiv.o
       120          4          0          0          0         92   deqf.o
        94          4          0          0          0         92   dfix.o
        90          4          0          0          0         92   dfixu.o
        84          0          0          0          0        136   dflt_clz.o
       120          4          0          0          0         92   dleqf.o
       340         12          0          0          0        104   dmul.o
       156          4          0          0          0         92   dnaninf.o
        12          0          0          0          0         68   dretinf.o
       108          0          0          0          0         80   drleqf.o
       450          8          0          0          0        236   faddsub_clz.o
        24          0          0          0          0         68   fcmpi.o
       388         76          0          0          0         96   fdiv.o
       104          4          0          0          0         84   feqf.o
        54          4          0          0          0         84   ffix.o
        62          4          0          0          0         84   ffixu.o
        86          0          0          0          0        136   fflt_clz.o
        96          0          0          0          0         84   ffltll_clz.o
       104          4          0          0          0         84   fleqf.o
       258          4          0          0          0         84   fmul.o
       140          4          0          0          0         84   fnaninf.o
        10          0          0          0          0         68   fretinf.o
        98          0          0          0          0         68   frleqf.o
         0          0          0          0          0          0   usenofp.o

    ----------------------------------------------------------------------
      7366        368        272          0         96       6284   Library Totals
        30          0          0          0          0          0   (incl. Padding)

    ----------------------------------------------------------------------

      Code (inc. data)   RO Data    RW Data    ZI Data      Debug   Library Name

      2702         68        272          0         96       3460   c_w.l
      4634        300          0          0          0       2824   fz_ws.l

    ----------------------------------------------------------------------
      7366        368        272          0         96       6284   Library Totals

    ----------------------------------------------------------------------

==============================================================================


      Code (inc. data)   RO Data    RW Data    ZI Data      Debug   

     67310       2106     116230        116      14300     986095   Grand Totals
     67310       2106     116230        116      14300     986095   ELF Image Totals
     67310       2106     116230        116          0          0   ROM Totals

==============================================================================

    Total RO  Size (Code + RO Data)               183540 ( 179.24kB)
    Total RW  Size (RW Data + ZI Data)             14416 (  14.08kB)
    Total ROM Size (Code + RO Data + RW Data)     183656 ( 179.35kB)

==============================================================================

