Component: ARM Compiler 5.06 update 5 (build 528) Tool: armlink [4d35e2]

==============================================================================

Section Cross References

    system_stm32f10x.o(.text) refers to system_stm32f10x.o(.data) for SystemCoreClock
    main.o(.text) refers to misc.o(.text) for NVIC_PriorityGroupConfig
    main.o(.text) refers to platform.o(.text) for systick_init
    main.o(.text) refers to led.o(.text) for led_init
    main.o(.text) refers to button.o(.text) for button_init
    main.o(.text) refers to lcd_driver.o(.text) for TFT_Init
    main.o(.text) refers to flash.o(.text) for FLASH_Init
    main.o(.text) refers to touch.o(.text) for TOUCH_Init
    main.o(.text) refers to tim.o(.text) for TIM3_Init
    main.o(.text) refers to rtc.o(.text) for rtc_init
    main.o(.text) refers to demo_main.o(.text) for gui_app_start
    sys.o(.text) refers to misc.o(.text) for NVIC_PriorityGroupConfig
    usart.o(.text) refers (Special) to use_no_semi_2.o(.text) for __use_no_semihosting
    usart.o(.text) refers to stm32f10x_rcc.o(.text) for RCC_APB2PeriphClockCmd
    usart.o(.text) refers to stm32f10x_gpio.o(.text) for GPIO_Init
    usart.o(.text) refers to misc.o(.text) for NVIC_Init
    usart.o(.text) refers to stm32f10x_usart.o(.text) for USART_Init
    usart.o(.text) refers to usart.o(.data) for USART_RX_STA
    usart.o(.text) refers to usart.o(.bss) for USART_RX_BUF
    usart.o(.bss) refers (Special) to use_no_semi_2.o(.text) for __use_no_semihosting
    usart.o(.data) refers (Special) to use_no_semi_2.o(.text) for __use_no_semihosting
    startup_stm32f10x_hd.o(STACK) refers (Special) to heapauxi.o(.text) for __use_two_region_memory
    startup_stm32f10x_hd.o(HEAP) refers (Special) to heapauxi.o(.text) for __use_two_region_memory
    startup_stm32f10x_hd.o(RESET) refers (Special) to heapauxi.o(.text) for __use_two_region_memory
    startup_stm32f10x_hd.o(RESET) refers to startup_stm32f10x_hd.o(STACK) for __initial_sp
    startup_stm32f10x_hd.o(RESET) refers to startup_stm32f10x_hd.o(.text) for Reset_Handler
    startup_stm32f10x_hd.o(RESET) refers to stm32f10x_it.o(.text) for NMI_Handler
    startup_stm32f10x_hd.o(RESET) refers to sys_tick.o(.text) for SysTick_Handler
    startup_stm32f10x_hd.o(RESET) refers to rtc.o(.text) for RTC_IRQHandler
    startup_stm32f10x_hd.o(RESET) refers to main_loop_stm32_raw.o(.text) for TIM3_IRQHandler
    startup_stm32f10x_hd.o(RESET) refers to usart.o(.text) for USART1_IRQHandler
    startup_stm32f10x_hd.o(RESET) refers to tim.o(.text) for TIM5_IRQHandler
    startup_stm32f10x_hd.o(.text) refers (Special) to heapauxi.o(.text) for __use_two_region_memory
    startup_stm32f10x_hd.o(.text) refers to system_stm32f10x.o(.text) for SystemInit
    startup_stm32f10x_hd.o(.text) refers to __main.o(!!!main) for __main
    startup_stm32f10x_hd.o(.text) refers to startup_stm32f10x_hd.o(HEAP) for Heap_Mem
    startup_stm32f10x_hd.o(.text) refers to startup_stm32f10x_hd.o(STACK) for Stack_Mem
    stm32f10x_gpio.o(.text) refers to stm32f10x_rcc.o(.text) for RCC_APB2PeriphResetCmd
    stm32f10x_rcc.o(.text) refers to stm32f10x_rcc.o(.data) for APBAHBPrescTable
    stm32f10x_usart.o(.text) refers to stm32f10x_rcc.o(.text) for RCC_APB2PeriphResetCmd
    stm32f10x_wwdg.o(.text) refers to stm32f10x_rcc.o(.text) for RCC_APB1PeriphResetCmd
    stm32f10x_tim.o(.text) refers to stm32f10x_rcc.o(.text) for RCC_APB2PeriphResetCmd
    stm32f10x_bkp.o(.text) refers to stm32f10x_rcc.o(.text) for RCC_BackupResetCmd
    stm32f10x_pwr.o(.text) refers to stm32f10x_rcc.o(.text) for RCC_APB1PeriphResetCmd
    stm32f10x_spi.o(.text) refers to stm32f10x_rcc.o(.text) for RCC_APB2PeriphResetCmd
    led.o(.text) refers to stm32f10x_rcc.o(.text) for RCC_APB2PeriphClockCmd
    led.o(.text) refers to stm32f10x_gpio.o(.text) for GPIO_Init
    led.o(.text) refers to sys_tick.o(.text) for delay_ms
    led.o(.text) refers to led.o(.data) for i
    lcd_driver.o(.text) refers to stm32f10x_rcc.o(.text) for RCC_APB2PeriphClockCmd
    lcd_driver.o(.text) refers to stm32f10x_gpio.o(.text) for GPIO_Init
    lcd_driver.o(.text) refers to stm32f10x_fsmc.o(.text) for FSMC_NORSRAMInit
    button.o(.text) refers to stm32f10x_rcc.o(.text) for RCC_APB2PeriphClockCmd
    button.o(.text) refers to stm32f10x_gpio.o(.text) for GPIO_Init
    button.o(.text) refers to sys_tick.o(.text) for delay_ms
    button.o(.text) refers to button.o(.data) for key_up
    tim.o(.text) refers to stm32f10x_rcc.o(.text) for RCC_APB1PeriphClockCmd
    tim.o(.text) refers to stm32f10x_gpio.o(.text) for GPIO_Init
    tim.o(.text) refers to stm32f10x_tim.o(.text) for TIM_TimeBaseInit
    tim.o(.text) refers to misc.o(.text) for NVIC_Init
    tim.o(.text) refers to tim.o(.data) for TIM5CH1_CAPTURE_STA
    rtc.o(.text) refers to _printf_percent.o(.ARM.Collect$$_printf_percent$$00000000) for _printf_percent
    rtc.o(.text) refers to _printf_d.o(.ARM.Collect$$_printf_percent$$00000009) for _printf_d
    rtc.o(.text) refers to _printf_dec.o(.text) for _printf_int_dec
    rtc.o(.text) refers to misc.o(.text) for NVIC_Init
    rtc.o(.text) refers to stm32f10x_rtc.o(.text) for RTC_GetCounter
    rtc.o(.text) refers to noretval__2printf.o(.text) for __2printf
    rtc.o(.text) refers to stm32f10x_rcc.o(.text) for RCC_APB1PeriphClockCmd
    rtc.o(.text) refers to stm32f10x_pwr.o(.text) for PWR_BackupAccessCmd
    rtc.o(.text) refers to stm32f10x_bkp.o(.text) for BKP_ReadBackupRegister
    rtc.o(.text) refers to rtc.o(.constdata) for table_week
    rtc.o(.text) refers to rtc.o(.data) for daycnt
    rtc.o(.text) refers to rtc.o(.bss) for calendar
    touch.o(.text) refers to spi.o(.text) for SPI2_SetSpeed
    touch.o(.text) refers to stm32f10x_gpio.o(.text) for GPIO_ResetBits
    touch.o(.text) refers to lcd_driver.o(.text) for TFT_ClearScreen
    touch.o(.text) refers to gui.o(.text) for GUI_DrowSign
    touch.o(.text) refers to sys_tick.o(.text) for delay_ms
    touch.o(.text) refers to fflt_clz.o(x$fpl$fflt) for __aeabi_i2f
    touch.o(.text) refers to fdiv.o(x$fpl$fdiv) for __aeabi_fdiv
    touch.o(.text) refers to fflt_clz.o(x$fpl$ffltu) for __aeabi_ui2f
    touch.o(.text) refers to fmul.o(x$fpl$fmul) for __aeabi_fmul
    touch.o(.text) refers to faddsub_clz.o(x$fpl$frsb) for __aeabi_frsub
    touch.o(.text) refers to ffix.o(x$fpl$ffix) for __aeabi_f2iz
    touch.o(.text) refers to flash.o(.text) for FLASH_WriteData
    touch.o(.text) refers to stm32f10x_rcc.o(.text) for RCC_APB2PeriphClockCmd
    touch.o(.text) refers to faddsub_clz.o(x$fpl$fadd) for __aeabi_fadd
    touch.o(.text) refers to ffixu.o(x$fpl$ffixu) for __aeabi_f2uiz
    touch.o(.text) refers to touch.o(.bss) for TouchAdj
    touch.o(.text) refers to touch.o(.data) for TouchData
    spi.o(.text) refers to stm32f10x_rcc.o(.text) for RCC_APB2PeriphClockCmd
    spi.o(.text) refers to stm32f10x_gpio.o(.text) for GPIO_Init
    spi.o(.text) refers to stm32f10x_spi.o(.text) for SPI_Cmd
    gui.o(.text) refers to lcd_driver.o(.text) for TFT_SetWindow
    gui.o(.text) refers to gui.o(.constdata) for tfont16
    flash.o(.text) refers to stm32f10x_gpio.o(.text) for GPIO_ResetBits
    flash.o(.text) refers to spi.o(.text) for SPI2_WriteReadData
    flash.o(.text) refers to stm32f10x_rcc.o(.text) for RCC_APB2PeriphClockCmd
    flash.o(.text) refers to flash.o(.bss) for flashBuff
    array.o(.text) refers to mem.o(.text) for tk_calloc
    bitmap.o(.text) refers to mem.o(.text) for tk_calloc
    bitmap.o(.text) refers to rt_memclr_w.o(.text) for __aeabi_memclr4
    buffer.o(.text) refers to rt_memcpy_v6.o(.text) for __aeabi_memcpy
    buffer.o(.text) refers to strlen.o(.text) for strlen
    button_1.o(.text) refers to widget.o(.text) for widget_paint_helper
    button_1.o(.text) refers to events.o(.text) for event_init
    button_1.o(.text) refers to timer.o(.text) for timer_remove
    button_1.o(.text) refers to rt_memcpy_w.o(.text) for __aeabi_memcpy4
    button_1.o(.text) refers to strcmpv7m.o(.text) for strcmp
    button_1.o(.text) refers to value.o(.text) for value_set_int
    button_1.o(.text) refers to mem.o(.text) for tk_calloc
    button_1.o(.text) refers to button_1.o(.constdata) for s_button_vtable
    button_1.o(.constdata) refers to button_1.o(.conststring) for .conststring
    button_1.o(.constdata) refers to button_1.o(.data) for s_button_properties
    button_1.o(.constdata) refers to button_1.o(.text) for button_create
    button_1.o(.data) refers to button_1.o(.conststring) for .conststring
    canvas.o(.text) refers to dflt_clz.o(x$fpl$dfltu) for __aeabi_ui2d
    canvas.o(.text) refers to daddsub_clz.o(x$fpl$dsub) for __aeabi_dsub
    canvas.o(.text) refers to dleqf.o(x$fpl$dleqf) for __aeabi_cdcmple
    canvas.o(.text) refers to drleqf.o(x$fpl$drleqf) for __aeabi_cdrcmple
    canvas.o(.text) refers to ddiv.o(x$fpl$ddiv) for __aeabi_ddiv
    canvas.o(.text) refers to daddsub_clz.o(x$fpl$dadd) for __aeabi_dadd
    canvas.o(.text) refers to dfix.o(x$fpl$dfix) for __aeabi_d2iz
    canvas.o(.text) refers to dflt_clz.o(x$fpl$dflt) for __aeabi_i2d
    canvas.o(.text) refers to daddsub_clz.o(x$fpl$drsb) for __aeabi_drsub
    canvas.o(.text) refers to dmul.o(x$fpl$dmul) for __aeabi_dmul
    canvas.o(.text) refers to dfixu.o(x$fpl$dfixu) for __aeabi_d2uiz
    canvas.o(.text) refers to lcd.o(.text) for lcd_draw_points
    canvas.o(.text) refers to rt_memclr_w.o(.text) for __aeabi_memclr4
    canvas.o(.text) refers to font_manager.o(.text) for font_manager_find
    canvas.o(.text) refers to wcslen.o(.text) for wcslen
    canvas.o(.text) refers to faddsub_clz.o(x$fpl$fadd) for __aeabi_fadd
    canvas.o(.text) refers to font.o(.text) for font_find_glyph
    canvas.o(.text) refers to fflt_clz.o(x$fpl$fflt) for __aeabi_i2f
    canvas.o(.text) refers to time.o(.text) for time_now_ms
    canvas.o(.text) refers to rect.o(.text) for rect_init
    canvas.o(.text) refers to color.o(.text) for color_init
    canvas.o(.text) refers to utils.o(.text) for tk_snprintf
    canvas.o(.text) refers to strlen.o(.text) for strlen
    canvas.o(.text) refers to utf8.o(.text) for utf8_to_utf16
    canvas.o(.text) refers to fdiv.o(x$fpl$fdiv) for __aeabi_fdiv
    canvas.o(.text) refers to fmul.o(x$fpl$fmul) for __aeabi_fmul
    canvas.o(.text) refers to fleqf.o(x$fpl$fleqf) for __aeabi_cfcmple
    canvas.o(.text) refers to ffix.o(x$fpl$ffix) for __aeabi_f2iz
    canvas.o(.text) refers to frleqf.o(x$fpl$frleqf) for __aeabi_cfrcmple
    canvas.o(.text) refers to faddsub_clz.o(x$fpl$fsub) for __aeabi_fsub
    check_button.o(.text) refers to events.o(.text) for event_init
    check_button.o(.text) refers to widget.o(.text) for widget_dispatch
    check_button.o(.text) refers to strcmpv7m.o(.text) for strcmp
    check_button.o(.text) refers to value.o(.text) for value_set_bool
    check_button.o(.text) refers to mem.o(.text) for tk_calloc
    check_button.o(.text) refers to check_button.o(.constdata) for s_check_button_vtable
    check_button.o(.constdata) refers to check_button.o(.conststring) for .conststring
    check_button.o(.constdata) refers to check_button.o(.data) for s_check_button_properties
    check_button.o(.constdata) refers to check_button.o(.text) for check_button_create
    check_button.o(.data) refers to check_button.o(.conststring) for .conststring
    color.o(.text) refers to utils.o(.text) for tk_snprintf
    dialog.o(.text) refers to widget.o(.text) for widget_paint_helper
    dialog.o(.text) refers to strcmpv7m.o(.text) for strcmp
    dialog.o(.text) refers to value.o(.text) for value_set_str
    dialog.o(.text) refers to str.o(.text) for str_from_value
    dialog.o(.text) refers to mem.o(.text) for tk_calloc
    dialog.o(.text) refers to window_manager.o(.text) for window_manager
    dialog.o(.text) refers to dialog_title.o(.text) for dialog_title_create
    dialog.o(.text) refers to layout.o(.text) for widget_set_self_layout_params
    dialog.o(.text) refers to dialog_client.o(.text) for dialog_client_create
    dialog.o(.text) refers to main_loop.o(.text) for main_loop
    dialog.o(.text) refers to idle.o(.text) for idle_add
    dialog.o(.text) refers to dialog.o(.constdata) for s_dialog_vtable
    dialog.o(.constdata) refers to dialog.o(.conststring) for .conststring
    dialog.o(.constdata) refers to dialog.o(.data) for s_dialog_properties
    dialog.o(.constdata) refers to dialog.o(.text) for dialog_create
    dialog.o(.data) refers to dialog.o(.conststring) for .conststring
    emitter.o(.text) refers to mem.o(.text) for tk_calloc
    emitter.o(.text) refers to rt_memclr_w.o(.text) for __aeabi_memclr4
    emitter.o(.text) refers to time.o(.text) for time_now_ms
    enums.o(.text) refers to strcmpv7m.o(.text) for strcmp
    enums.o(.text) refers to enums.o(.constdata) for style_id_name_value
    enums.o(.constdata) refers to enums.o(.conststring) for .conststring
    font.o(.text) refers to dflt_clz.o(x$fpl$dfltu) for __aeabi_ui2d
    font.o(.text) refers to dmul.o(x$fpl$dmul) for __aeabi_dmul
    font.o(.text) refers to dfix.o(x$fpl$dfix) for __aeabi_d2iz
    font_manager.o(.text) refers to array.o(.text) for array_init
    font_manager.o(.text) refers to mem.o(.text) for tk_calloc
    font_manager.o(.text) refers to font.o(.text) for font_match
    font_manager.o(.text) refers to font_manager.o(.data) for s_font_manager
    group_box.o(.text) refers to widget.o(.text) for widget_paint_helper
    group_box.o(.text) refers to mem.o(.text) for tk_calloc
    group_box.o(.text) refers to group_box.o(.constdata) for s_group_box_vtable
    group_box.o(.constdata) refers to group_box.o(.conststring) for .conststring
    group_box.o(.constdata) refers to group_box.o(.text) for group_box_create
    image.o(.text) refers to widget.o(.text) for widget_set_state
    image.o(.text) refers to rt_memcpy_w.o(.text) for __aeabi_memcpy4
    image.o(.text) refers to events.o(.text) for event_init
    image.o(.text) refers to color.o(.text) for color_init
    image.o(.text) refers to theme.o(.text) for style_get_color
    image.o(.text) refers to canvas.o(.text) for canvas_set_fill_color
    image.o(.text) refers to rect.o(.text) for rect_init
    image.o(.text) refers to strcmpv7m.o(.text) for strcmp
    image.o(.text) refers to value.o(.text) for value_set_str
    image.o(.text) refers to enums.o(.text) for image_draw_type_find_by_value
    image.o(.text) refers to rt_memclr_w.o(.text) for __aeabi_memclr4
    image.o(.text) refers to image_manager.o(.text) for image_manager
    image.o(.text) refers to mem.o(.text) for tk_calloc
    image.o(.text) refers to image.o(.constdata) for s_image_vtable
    image.o(.constdata) refers to image.o(.conststring) for .conststring
    image.o(.constdata) refers to image.o(.data) for s_image_clone_properties
    image.o(.constdata) refers to image.o(.text) for image_create
    image.o(.data) refers to image.o(.conststring) for .conststring
    image_manager.o(.text) refers to array.o(.text) for array_init
    image_manager.o(.text) refers to mem.o(.text) for tk_calloc
    image_manager.o(.text) refers to rt_memcpy_w.o(.text) for __aeabi_memcpy4
    image_manager.o(.text) refers to time.o(.text) for time_now_s
    image_manager.o(.text) refers to utils.o(.text) for tk_strncpy
    image_manager.o(.text) refers to strcmpv7m.o(.text) for strcmp
    image_manager.o(.text) refers to rt_memclr_w.o(.text) for __aeabi_memclr4
    image_manager.o(.text) refers to assets_manager.o(.text) for assets_manager
    image_manager.o(.text) refers to image_loader.o(.text) for image_loader_load
    image_manager.o(.text) refers to bitmap.o(.text) for bitmap_destroy
    image_manager.o(.text) refers to image_manager.o(.data) for s_image_manager
    label.o(.text) refers to widget.o(.text) for widget_paint_helper
    label.o(.text) refers to mem.o(.text) for tk_calloc
    label.o(.text) refers to label.o(.constdata) for s_label_vtable
    label.o(.constdata) refers to label.o(.conststring) for .conststring
    label.o(.constdata) refers to label.o(.text) for label_create
    lcd.o(.text) refers to rect.o(.text) for rect_fix
    lcd.o(.text) refers to color.o(.text) for color_init
    lcd.o(.text) refers to system_info.o(.text) for system_info
    main_loop.o(.text) refers to time.o(.text) for time_now_ms
    main_loop.o(.text) refers to window_manager.o(.text) for window_manager
    main_loop.o(.text) refers to timer.o(.text) for timer_next_time
    main_loop.o(.text) refers to sys_tick.o(.text) for sleep_ms
    main_loop.o(.text) refers to main_loop.o(.data) for s_default_main_loop
    mem.o(.text) refers to rt_memclr_w.o(.text) for __aeabi_memclr4
    mem.o(.text) refers to rt_memcpy_w.o(.text) for __aeabi_memcpy4
    mem.o(.text) refers to rt_memclr.o(.text) for __aeabi_memclr
    mem.o(.text) refers to rt_memcpy_v6.o(.text) for __aeabi_memcpy
    mem.o(.text) refers to time.o(.text) for time_now_ms
    mem.o(.text) refers to mem.o(.bss) for s_mem_info
    progress_bar.o(.text) refers to color.o(.text) for color_init
    progress_bar.o(.text) refers to rect.o(.text) for rect_init
    progress_bar.o(.text) refers to theme.o(.text) for style_get_color
    progress_bar.o(.text) refers to canvas.o(.text) for canvas_set_fill_color
    progress_bar.o(.text) refers to image_manager.o(.text) for image_manager
    progress_bar.o(.text) refers to utils.o(.text) for tk_itoa
    progress_bar.o(.text) refers to strlen.o(.text) for strlen
    progress_bar.o(.text) refers to ffix.o(x$fpl$ffix) for __aeabi_f2iz
    progress_bar.o(.text) refers to events.o(.text) for event_init
    progress_bar.o(.text) refers to widget.o(.text) for widget_dispatch
    progress_bar.o(.text) refers to strcmpv7m.o(.text) for strcmp
    progress_bar.o(.text) refers to value.o(.text) for value_set_uint8
    progress_bar.o(.text) refers to mem.o(.text) for tk_calloc
    progress_bar.o(.text) refers to progress_bar.o(.constdata) for s_progress_bar_vtable
    progress_bar.o(.constdata) refers to progress_bar.o(.conststring) for .conststring
    progress_bar.o(.constdata) refers to progress_bar.o(.data) for s_progress_bar_clone_properties
    progress_bar.o(.constdata) refers to progress_bar.o(.text) for progress_bar_create
    progress_bar.o(.constdata) refers to widget_vtable.o(.text) for widget_on_paint_background_null
    progress_bar.o(.data) refers to progress_bar.o(.conststring) for .conststring
    theme.o(.text) refers to strlen.o(.text) for strlen
    theme.o(.text) refers to strcmpv7m.o(.text) for strcmp
    theme.o(.text) refers to theme.o(.data) for s_theme
    utf8.o(.text) refers to wcslen.o(.text) for wcslen
    utf8.o(.text) refers to utf8.o(.constdata) for g_utf8_skip
    value.o(.text) refers to feqf.o(x$fpl$feqf) for __aeabi_cfcmpeq
    value.o(.text) refers to deqf.o(x$fpl$deqf) for __aeabi_cdcmpeq
    value.o(.text) refers to strcmpv7m.o(.text) for strcmp
    value.o(.text) refers to ffix.o(x$fpl$ffix) for __aeabi_f2iz
    value.o(.text) refers to dfix.o(x$fpl$dfix) for __aeabi_d2iz
    value.o(.text) refers to utils.o(.text) for tk_atoi
    value.o(.text) refers to fflt_clz.o(x$fpl$fflt) for __aeabi_i2f
    value.o(.text) refers to fflt_clz.o(x$fpl$ffltu) for __aeabi_ui2f
    value.o(.text) refers to ffltll_clz.o(x$fpl$ffltll) for __aeabi_l2f
    value.o(.text) refers to d2f.o(x$fpl$d2f) for __aeabi_d2f
    value.o(.text) refers to faddsub_clz.o(x$fpl$fsub) for __aeabi_fsub
    value.o(.text) refers to f2d.o(x$fpl$f2d) for __aeabi_f2d
    value.o(.text) refers to dleqf.o(x$fpl$dleqf) for __aeabi_cdcmple
    value.o(.text) refers to daddsub_clz.o(x$fpl$dsub) for __aeabi_dsub
    value.o(.text) refers to wcscmp.o(.text) for wcscmp
    value.o(.text) refers to mem.o(.text) for tk_calloc
    widget.o(.text) refers to rect.o(.text) for rect_init
    widget.o(.text) refers to widget_vtable.o(.text) for widget_invalidate_default
    widget.o(.text) refers to emitter.o(.text) for emitter_dispatch
    widget.o(.text) refers to events.o(.text) for event_init
    widget.o(.text) refers to locale_info.o(.text) for locale_info
    widget.o(.text) refers to mem.o(.text) for tk_free
    widget.o(.text) refers to utils.o(.text) for tk_strdup
    widget.o(.text) refers to value.o(.text) for value_set_str
    widget.o(.text) refers to strcmpv7m.o(.text) for strcmp
    widget.o(.text) refers to custom_props.o(.text) for custom_props_get
    widget.o(.text) refers to assets_manager.o(.text) for assets_manager
    widget.o(.text) refers to theme.o(.text) for theme_find_style
    widget.o(.text) refers to wstr.o(.text) for wstr_from_value
    widget.o(.text) refers to array.o(.text) for array_destroy
    widget.o(.text) refers to rt_memclr_w.o(.text) for __aeabi_memclr4
    widget.o(.text) refers to color.o(.text) for color_init
    widget.o(.text) refers to canvas.o(.text) for canvas_set_text_color
    widget.o(.text) refers to image_manager.o(.text) for image_manager
    widget.o(.text) refers to system_info.o(.text) for system_info
    widget.o(.text) refers to fflt_clz.o(x$fpl$ffltu) for __aeabi_ui2f
    widget.o(.text) refers to fflt_clz.o(x$fpl$fflt) for __aeabi_i2f
    widget.o(.text) refers to fdiv.o(x$fpl$fdiv) for __aeabi_fdiv
    widget.o(.text) refers to faddsub_clz.o(x$fpl$fadd) for __aeabi_fadd
    widget.o(.text) refers to frleqf.o(x$fpl$frleqf) for __aeabi_cfrcmple
    widget.o(.text) refers to time.o(.text) for time_now_ms
    widget.o(.text) refers to layout.o(.text) for widget_layout_children_default
    widget.o(.text) refers to rt_memcpy_w.o(.text) for __aeabi_memcpy4
    widget.o(.text) refers to memcmp.o(.text) for memcmp
    widget.o(.text) refers to main_loop.o(.text) for main_loop
    widget.o(.text) refers to wcslen.o(.text) for wcslen
    widget_vtable.o(.text) refers to rect.o(.text) for rect_init
    widget_vtable.o(.text) refers to widget.o(.text) for widget_paint
    widget_vtable.o(.text) refers to value.o(.text) for value_int
    widget_vtable.o(.text) refers to widget_vtable.o(.constdata) for s_vtable
    widget_vtable.o(.constdata) refers to widget_vtable.o(.text) for widget_get_prop_default
    window.o(.text) refers to widget.o(.text) for widget_paint_helper
    window.o(.text) refers to strcmpv7m.o(.text) for strcmp
    window.o(.text) refers to value.o(.text) for value_set_str
    window.o(.text) refers to mem.o(.text) for tk_free
    window.o(.text) refers to utils.o(.text) for tk_strdup
    window.o(.text) refers to window_manager.o(.text) for window_manager
    window.o(.text) refers to window.o(.constdata) for s_window_vtable
    window.o(.constdata) refers to window.o(.conststring) for .conststring
    window.o(.constdata) refers to window.o(.text) for window_get_prop
    window_manager.o(.text) refers to widget.o(.text) for widget_get_type
    window_manager.o(.text) refers to strcmpv7m.o(.text) for strcmp
    window_manager.o(.text) refers to value.o(.text) for value_str
    window_manager.o(.text) refers to window_animator_null.o(.text) for window_animator_create_for_open
    window_manager.o(.text) refers to events.o(.text) for event_init
    window_manager.o(.text) refers to idle.o(.text) for idle_add
    window_manager.o(.text) refers to layout.o(.text) for widget_layout
    window_manager.o(.text) refers to rect.o(.text) for rect_merge
    window_manager.o(.text) refers to time.o(.text) for time_now_ms
    window_manager.o(.text) refers to canvas.o(.text) for canvas_begin_frame
    window_manager.o(.text) refers to window_animator.o(.text) for window_animator_update
    window_manager.o(.text) refers to locale_info.o(.text) for locale_info
    window_manager.o(.text) refers to mem.o(.text) for tk_calloc
    window_manager.o(.text) refers to system_info.o(.text) for system_info
    window_manager.o(.text) refers to window_manager.o(.data) for s_window_manager
    window_manager.o(.text) refers to window_manager.o(.constdata) for s_window_manager_vtable
    window_manager.o(.constdata) refers to window_manager.o(.conststring) for .conststring
    window_manager.o(.constdata) refers to window_manager.o(.text) for window_manager_on_paint_children
    wstr.o(.text) refers to wcslen.o(.text) for wcslen
    wstr.o(.text) refers to mem.o(.text) for tk_calloc
    wstr.o(.text) refers to wcscpy.o(.text) for wcscpy
    wstr.o(.text) refers to strlen.o(.text) for strlen
    wstr.o(.text) refers to utf8.o(.text) for utf8_to_utf16
    wstr.o(.text) refers to rt_memmove_v6.o(.text) for __aeabi_memmove
    wstr.o(.text) refers to rt_memcpy_v6.o(.text) for __aeabi_memcpy
    wstr.o(.text) refers to wcscmp.o(.text) for wcscmp
    wstr.o(.text) refers to utils.o(.text) for tk_itoa
    wstr.o(.text) refers to value.o(.text) for value_str
    wstr.o(.text) refers to f2d.o(x$fpl$f2d) for __aeabi_f2d
    wstr.o(.text) refers to floor.o(i.floor) for floor
    wstr.o(.text) refers to daddsub_clz.o(x$fpl$drsb) for __aeabi_drsub
    wstr.o(.text) refers to dleqf.o(x$fpl$dleqf) for __aeabi_cdcmple
    wstr.o(.text) refers to dmul.o(x$fpl$dmul) for __aeabi_dmul
    wstr.o(.text) refers to wcschr.o(.text) for wcschr
    wstr.o(.text) refers to daddsub_clz.o(x$fpl$dadd) for __aeabi_dadd
    font_bitmap.o(.text) refers to strcmpv7m.o(.text) for strcmp
    font_bitmap.o(.text) refers to mem.o(.text) for tk_free
    utils.o(.text) refers to strcmpv7m.o(.text) for strcmp
    utils.o(.text) refers to dflt_clz.o(x$fpl$dfltu) for __aeabi_ui2d
    utils.o(.text) refers to ddiv.o(x$fpl$ddiv) for __aeabi_ddiv
    utils.o(.text) refers to drleqf.o(x$fpl$drleqf) for __aeabi_cdrcmple
    utils.o(.text) refers to dflt_clz.o(x$fpl$dflt) for __aeabi_i2d
    utils.o(.text) refers to daddsub_clz.o(x$fpl$dadd) for __aeabi_dadd
    utils.o(.text) refers to dmul.o(x$fpl$dmul) for __aeabi_dmul
    utils.o(.text) refers to daddsub_clz.o(x$fpl$dsub) for __aeabi_dsub
    utils.o(.text) refers to utils.o(.constdata) for stbsp__bot
    utils.o(.text) refers to daddsub_clz.o(x$fpl$drsb) for __aeabi_drsub
    utils.o(.text) refers to dfixll.o(x$fpl$llsfromd) for __aeabi_d2lz
    utils.o(.text) refers to dfltll_clz.o(x$fpl$dfltll) for __aeabi_l2d
    utils.o(.text) refers to lludivv7m.o(.text) for __aeabi_uldivmod
    utils.o(.text) refers to llsdiv.o(.text) for __aeabi_ldivmod
    utils.o(.text) refers to utils.o(.data) for stbsp__digitpair
    utils.o(.text) refers to llushr.o(.text) for __aeabi_llsr
    utils.o(.text) refers to dleqf.o(x$fpl$dleqf) for __aeabi_cdcmple
    utils.o(.text) refers to strcpy.o(.text) for strcpy
    utils.o(.text) refers to strncpy.o(.text) for strncpy
    utils.o(.text) refers to mem.o(.text) for tk_alloc
    utils.o(.text) refers to rt_memcpy_v6.o(.text) for __aeabi_memcpy
    utils.o(.text) refers to strlen.o(.text) for strlen
    utils.o(.text) refers to vsscanf.o(.text) for vsscanf
    utils.o(.text) refers to strrchr.o(.text) for strrchr
    utils.o(.text) refers to strchr.o(.text) for strchr
    utils.o(.text) refers to str.o(.text) for str_set
    utils.o(.text) refers to fs.o(.text) for file_read
    utils.o(.text) refers to strstr.o(.text) for strstr
    utils.o(.text) refers to path.o(.text) for path_replace_basename
    events.o(.text) refers to time.o(.text) for time_now_ms
    timer.o(.text) refers to rt_memclr_w.o(.text) for __aeabi_memclr4
    timer.o(.text) refers to mem.o(.text) for tk_free
    timer.o(.text) refers to array.o(.text) for array_init
    timer.o(.text) refers to main_loop.o(.text) for main_loop
    timer.o(.text) refers to timer.o(.data) for s_timer_manager
    layout.o(.text) refers to rt_memclr_w.o(.text) for __aeabi_memclr4
    layout.o(.text) refers to utils.o(.text) for tk_atoi
    layout.o(.text) refers to strstr.o(.text) for strstr
    layout.o(.text) refers to strchr.o(.text) for strchr
    layout.o(.text) refers to mem.o(.text) for tk_calloc
    layout.o(.text) refers to rt_memcpy_w.o(.text) for __aeabi_memcpy4
    layout.o(.text) refers to strlen.o(.text) for strlen
    layout.o(.text) refers to tokenizer.o(.text) for tokenizer_init
    layout.o(.text) refers to widget.o(.text) for widget_move_resize
    layout.o(.text) refers to value.o(.text) for value_int
    event_queue.o(.text) refers to mem.o(.text) for tk_alloc
    event_queue.o(.text) refers to rt_memclr_w.o(.text) for __aeabi_memclr4
    event_queue.o(.text) refers to rt_memcpy_w.o(.text) for __aeabi_memcpy4
    slider.o(.text) refers to fflt_clz.o(x$fpl$ffltu) for __aeabi_ui2f
    slider.o(.text) refers to fdiv.o(x$fpl$fdiv) for __aeabi_fdiv
    slider.o(.text) refers to faddsub_clz.o(x$fpl$fsub) for __aeabi_fsub
    slider.o(.text) refers to fflt_clz.o(x$fpl$fflt) for __aeabi_i2f
    slider.o(.text) refers to fmul.o(x$fpl$fmul) for __aeabi_fmul
    slider.o(.text) refers to ffix.o(x$fpl$ffix) for __aeabi_f2iz
    slider.o(.text) refers to color.o(.text) for color_init
    slider.o(.text) refers to faddsub_clz.o(x$fpl$fadd) for __aeabi_fadd
    slider.o(.text) refers to rect.o(.text) for rect_init
    slider.o(.text) refers to theme.o(.text) for style_get_color
    slider.o(.text) refers to canvas.o(.text) for canvas_set_fill_color
    slider.o(.text) refers to image_manager.o(.text) for image_manager
    slider.o(.text) refers to widget.o(.text) for widget_invalidate
    slider.o(.text) refers to faddsub_clz.o(x$fpl$frsb) for __aeabi_frsub
    slider.o(.text) refers to fleqf.o(x$fpl$fleqf) for __aeabi_cfcmple
    slider.o(.text) refers to frleqf.o(x$fpl$frleqf) for __aeabi_cfrcmple
    slider.o(.text) refers to ffixu.o(x$fpl$ffixu) for __aeabi_f2uiz
    slider.o(.text) refers to strcmpv7m.o(.text) for strcmp
    slider.o(.text) refers to value.o(.text) for value_set_int
    slider.o(.text) refers to mem.o(.text) for tk_calloc
    slider.o(.text) refers to slider.o(.constdata) for s_slider_vtable
    slider.o(.constdata) refers to slider.o(.conststring) for .conststring
    slider.o(.constdata) refers to slider.o(.data) for s_slider_properties
    slider.o(.constdata) refers to slider.o(.text) for slider_create
    slider.o(.constdata) refers to widget_vtable.o(.text) for widget_on_paint_background_null
    slider.o(.data) refers to slider.o(.conststring) for .conststring
    window_animator.o(.text) refers to fflt_clz.o(x$fpl$ffltu) for __aeabi_ui2f
    window_animator.o(.text) refers to fdiv.o(x$fpl$fdiv) for __aeabi_fdiv
    window_animator.o(.text) refers to frleqf.o(x$fpl$frleqf) for __aeabi_cfrcmple
    window_animator.o(.text) refers to canvas.o(.text) for canvas_end_frame
    window_animator.o(.text) refers to rect.o(.text) for rect_init
    idle.o(.text) refers to rt_memclr_w.o(.text) for __aeabi_memclr4
    idle.o(.text) refers to mem.o(.text) for tk_free
    idle.o(.text) refers to array.o(.text) for array_init
    idle.o(.text) refers to main_loop.o(.text) for main_loop
    idle.o(.text) refers to idle.o(.data) for s_idle_manager
    time.o(.text) refers to sys_tick.o(.text) for get_time_ms
    system_info.o(.text) refers to rt_memclr_w.o(.text) for __aeabi_memclr4
    system_info.o(.text) refers to system_info.o(.bss) for info
    str.o(.text) refers to mem.o(.text) for tk_realloc
    str.o(.text) refers to strlen.o(.text) for strlen
    str.o(.text) refers to utils.o(.text) for tk_strncpy
    str.o(.text) refers to rt_memcpy_v6.o(.text) for __aeabi_memcpy
    str.o(.text) refers to strncmp.o(.text) for strncmp
    str.o(.text) refers to strcmpv7m.o(.text) for strcmp
    str.o(.text) refers to f2d.o(x$fpl$f2d) for __aeabi_f2d
    str.o(.text) refers to wcslen.o(.text) for wcslen
    str.o(.text) refers to utf8.o(.text) for utf8_from_utf16
    str.o(.text) refers to value.o(.text) for value_str
    str.o(.text) refers to d2f.o(x$fpl$d2f) for __aeabi_d2f
    str.o(.text) refers to strchr.o(.text) for strchr
    str.o(.text) refers to strstr.o(.text) for strstr
    str.o(.text) refers to tolower.o(.text) for tolower
    str.o(.text) refers to toupper.o(.text) for toupper
    str.o(.text) refers to rt_memmove_v6.o(.text) for __aeabi_memmove
    main_loop_simple.o(.text) refers to mutex_null.o(.text) for tk_mutex_lock
    main_loop_simple.o(.text) refers to event_queue.o(.text) for event_queue_send
    main_loop_simple.o(.text) refers to time.o(.text) for time_now_ms
    main_loop_simple.o(.text) refers to rt_memcpy_w.o(.text) for __aeabi_memcpy4
    main_loop_simple.o(.text) refers to main_loop.o(.text) for main_loop_queue_event
    main_loop_simple.o(.text) refers to window_manager.o(.text) for window_manager_dispatch_input_event
    main_loop_simple.o(.text) refers to idle.o(.text) for idle_add
    main_loop_simple.o(.text) refers to timer.o(.text) for timer_add
    main_loop_simple.o(.text) refers to rt_memclr_w.o(.text) for __aeabi_memclr4
    main_loop_simple.o(.text) refers to main_loop_simple.o(.bss) for s_main_loop_simple
    pages.o(.text) refers to widget.o(.text) for widget_invalidate
    pages.o(.text) refers to strcmpv7m.o(.text) for strcmp
    pages.o(.text) refers to value.o(.text) for value_set_uint32
    pages.o(.text) refers to mem.o(.text) for tk_calloc
    pages.o(.text) refers to pages.o(.constdata) for s_pages_vtable
    pages.o(.constdata) refers to pages.o(.conststring) for .conststring
    pages.o(.constdata) refers to pages.o(.data) for s_pages_clone_properties
    pages.o(.constdata) refers to pages.o(.text) for pages_create
    pages.o(.constdata) refers to widget_vtable.o(.text) for widget_on_paint_background_null
    pages.o(.data) refers to pages.o(.conststring) for .conststring
    edit.o(.text) refers to events.o(.text) for event_init
    edit.o(.text) refers to widget.o(.text) for widget_dispatch
    edit.o(.text) refers to rect.o(.text) for rect_init
    edit.o(.text) refers to fflt_clz.o(x$fpl$ffltu) for __aeabi_ui2f
    edit.o(.text) refers to utf8.o(.text) for utf8_to_utf16
    edit.o(.text) refers to canvas.o(.text) for canvas_measure_text
    edit.o(.text) refers to faddsub_clz.o(x$fpl$fadd) for __aeabi_fadd
    edit.o(.text) refers to fflt_clz.o(x$fpl$fflt) for __aeabi_i2f
    edit.o(.text) refers to faddsub_clz.o(x$fpl$fsub) for __aeabi_fsub
    edit.o(.text) refers to ffix.o(x$fpl$ffix) for __aeabi_f2iz
    edit.o(.text) refers to frleqf.o(x$fpl$frleqf) for __aeabi_cfrcmple
    edit.o(.text) refers to wcslen.o(.text) for wcslen
    edit.o(.text) refers to rt_memclr_w.o(.text) for __aeabi_memclr4
    edit.o(.text) refers to color.o(.text) for color_init
    edit.o(.text) refers to wstr.o(.text) for wstr_pop
    edit.o(.text) refers to system_info.o(.text) for system_info
    edit.o(.text) refers to rt_ctype_table.o(.text) for __rt_ctype_table
    edit.o(.text) refers to deqf.o(x$fpl$deqf) for __aeabi_cdcmpeq
    edit.o(.text) refers to dleqf.o(x$fpl$dleqf) for __aeabi_cdcmple
    edit.o(.text) refers to wcschr.o(.text) for wcschr
    edit.o(.text) refers to drleqf.o(x$fpl$drleqf) for __aeabi_cdrcmple
    edit.o(.text) refers to daddsub_clz.o(x$fpl$dadd) for __aeabi_dadd
    edit.o(.text) refers to timer.o(.text) for timer_add
    edit.o(.text) refers to input_method.o(.text) for input_method
    edit.o(.text) refers to mem.o(.text) for tk_free
    edit.o(.text) refers to utils.o(.text) for tk_strdup
    edit.o(.text) refers to strcmpv7m.o(.text) for strcmp
    edit.o(.text) refers to value.o(.text) for value_set_int
    edit.o(.text) refers to d2f.o(x$fpl$d2f) for __aeabi_d2f
    edit.o(.text) refers to f2d.o(x$fpl$f2d) for __aeabi_f2d
    edit.o(.text) refers to enums.o(.text) for input_type_find
    edit.o(.text) refers to edit.o(.constdata) for s_edit_vtable
    edit.o(.constdata) refers to edit.o(.conststring) for .conststring
    edit.o(.constdata) refers to edit.o(.data) for s_edit_properties
    edit.o(.constdata) refers to edit.o(.text) for edit_create
    edit.o(.data) refers to edit.o(.conststring) for .conststring
    view.o(.text) refers to mem.o(.text) for tk_calloc
    view.o(.text) refers to widget.o(.text) for widget_init
    view.o(.text) refers to view.o(.constdata) for s_view_vtable
    view.o(.constdata) refers to view.o(.conststring) for .conststring
    view.o(.constdata) refers to view.o(.text) for view_create
    velocity.o(.text) refers to rt_memclr_w.o(.text) for __aeabi_memclr4
    velocity.o(.text) refers to fflt_clz.o(x$fpl$fflt) for __aeabi_i2f
    velocity.o(.text) refers to fflt_clz.o(x$fpl$ffltu) for __aeabi_ui2f
    velocity.o(.text) refers to fmul.o(x$fpl$fmul) for __aeabi_fmul
    velocity.o(.text) refers to faddsub_clz.o(x$fpl$fsub) for __aeabi_fsub
    velocity.o(.text) refers to fdiv.o(x$fpl$fdiv) for __aeabi_fdiv
    velocity.o(.text) refers to faddsub_clz.o(x$fpl$fadd) for __aeabi_fadd
    widget_factory.o(.text) refers to strcmpv7m.o(.text) for strcmp
    widget_factory.o(.text) refers to array.o(.text) for array_init
    widget_factory.o(.text) refers to mem.o(.text) for tk_calloc
    widget_factory.o(.text) refers to utils.o(.text) for tk_strncpy
    widget_factory.o(.text) refers to widget_factory.o(.constdata) for s_builtin_creators
    widget_factory.o(.text) refers to widget_factory.o(.data) for s_widget_factory
    widget_factory.o(.constdata) refers to dialog.o(.text) for dialog_create
    widget_factory.o(.constdata) refers to dialog_title.o(.text) for dialog_title_create
    widget_factory.o(.constdata) refers to dialog_client.o(.text) for dialog_client_create
    widget_factory.o(.constdata) refers to window.o(.text) for window_create
    widget_factory.o(.constdata) refers to image.o(.text) for image_create
    widget_factory.o(.constdata) refers to button_1.o(.text) for button_create
    widget_factory.o(.constdata) refers to label.o(.text) for label_create
    widget_factory.o(.constdata) refers to edit.o(.text) for edit_create
    widget_factory.o(.constdata) refers to progress_bar.o(.text) for progress_bar_create
    widget_factory.o(.constdata) refers to slider.o(.text) for slider_create
    widget_factory.o(.constdata) refers to group_box.o(.text) for group_box_create
    widget_factory.o(.constdata) refers to view.o(.text) for view_create
    widget_factory.o(.constdata) refers to check_button.o(.text) for check_button_create
    widget_factory.o(.constdata) refers to pages.o(.text) for pages_create
    widget_factory.o(.constdata) refers to tab_control.o(.text) for tab_control_create
    widget_factory.o(.constdata) refers to tab_button.o(.text) for tab_button_create
    widget_factory.o(.constdata) refers to tab_button_group.o(.text) for tab_button_group_create
    widget_factory.o(.constdata) refers to button_group.o(.text) for button_group_create
    widget_factory.o(.constdata) refers to spin_box.o(.text) for spin_box_create
    widget_factory.o(.constdata) refers to dragger.o(.text) for dragger_create
    widget_factory.o(.constdata) refers to combo_box.o(.text) for combo_box_create
    widget_factory.o(.constdata) refers to combo_box_item.o(.text) for combo_box_item_create
    widget_factory.o(.constdata) refers to popup.o(.text) for popup_create
    widget_factory.o(.constdata) refers to color_tile.o(.text) for color_tile_create
    tokenizer.o(.text) refers to strlen.o(.text) for strlen
    tokenizer.o(.text) refers to str.o(.text) for str_init
    tokenizer.o(.text) refers to strchr.o(.text) for strchr
    tokenizer.o(.text) refers to utils.o(.text) for tk_atoi
    tokenizer.o(.text) refers to d2f.o(x$fpl$d2f) for __aeabi_d2f
    tokenizer.o(.text) refers to rt_memclr_w.o(.text) for __aeabi_memclr4
    input_method.o(.text) refers to emitter.o(.text) for emitter_dispatch
    input_method.o(.text) refers to widget.o(.text) for widget_dispatch
    input_method.o(.text) refers to events.o(.text) for event_init
    input_method.o(.text) refers to utils.o(.text) for tk_strncpy
    input_method.o(.text) refers to input_engine.o(.text) for input_engine_reset_input
    input_method.o(.text) refers to input_method.o(.data) for s_input_method
    input_engine_null.o(.text) refers to buffer.o(.text) for wbuffer_init
    input_engine_null.o(.text) refers to mem.o(.text) for tk_calloc
    input_engine_null.o(.text) refers to str.o(.text) for str_init
    input_engine.o(.text) refers to str.o(.text) for str_append_char
    spin_box.o(.text) refers to edit.o(.text) for edit_create_ex
    spin_box.o(.text) refers to button_1.o(.text) for button_create
    spin_box.o(.text) refers to widget.o(.text) for widget_set_name
    spin_box.o(.text) refers to layout.o(.text) for widget_set_self_layout_params
    spin_box.o(.text) refers to spin_box.o(.constdata) for s_spin_box_vtable
    spin_box.o(.constdata) refers to spin_box.o(.conststring) for .conststring
    spin_box.o(.constdata) refers to edit.o(.data) for s_edit_properties
    spin_box.o(.constdata) refers to spin_box.o(.text) for spin_box_create_self
    spin_box.o(.constdata) refers to edit.o(.text) for edit_get_prop
    dragger.o(.text) refers to widget.o(.text) for widget_paint_helper
    dragger.o(.text) refers to events.o(.text) for event_init
    dragger.o(.text) refers to strcmpv7m.o(.text) for strcmp
    dragger.o(.text) refers to value.o(.text) for value_set_int
    dragger.o(.text) refers to mem.o(.text) for tk_calloc
    dragger.o(.text) refers to dragger.o(.constdata) for s_dragger_vtable
    dragger.o(.constdata) refers to dragger.o(.conststring) for .conststring
    dragger.o(.constdata) refers to dragger.o(.data) for s_dragger_clone_properties
    dragger.o(.constdata) refers to dragger.o(.text) for dragger_create
    dragger.o(.data) refers to dragger.o(.conststring) for .conststring
    dialog_client.o(.text) refers to widget.o(.text) for widget_paint_helper
    dialog_client.o(.text) refers to mem.o(.text) for tk_calloc
    dialog_client.o(.text) refers to dialog_client.o(.constdata) for s_dialog_client_vtable
    dialog_client.o(.constdata) refers to dialog_client.o(.conststring) for .conststring
    dialog_client.o(.constdata) refers to dialog_client.o(.text) for dialog_client_create
    dialog_title.o(.text) refers to widget.o(.text) for widget_paint_helper
    dialog_title.o(.text) refers to mem.o(.text) for tk_calloc
    dialog_title.o(.text) refers to dialog_title.o(.constdata) for s_dialog_title_vtable
    dialog_title.o(.constdata) refers to dialog_title.o(.conststring) for .conststring
    dialog_title.o(.constdata) refers to dialog_title.o(.text) for dialog_title_create
    custom_props.o(.text) refers to mem.o(.text) for tk_calloc
    custom_props.o(.text) refers to strcmpv7m.o(.text) for strcmp
    custom_props.o(.text) refers to wstr.o(.text) for wcs_dup
    custom_props.o(.text) refers to utils.o(.text) for tk_strdup
    awtk.o(.text) refers to font_bitmap.o(.text) for font_bitmap_create
    awtk.o(.text) refers to font_manager.o(.text) for font_manager
    awtk.o(.text) refers to assets_manager.o(.text) for assets_manager
    awtk.o(.text) refers to theme.o(.text) for theme
    awtk.o(.text) refers to strcmpv7m.o(.text) for strcmp
    awtk.o(.text) refers to platform.o(.text) for platform_prepare
    awtk.o(.text) refers to timer.o(.text) for timer_init
    awtk.o(.text) refers to idle.o(.text) for idle_manager_create
    awtk.o(.text) refers to input_method_creator.o(.text) for input_method_create
    awtk.o(.text) refers to input_method.o(.text) for input_method_set
    awtk.o(.text) refers to widget_factory.o(.text) for widget_factory_create
    awtk.o(.text) refers to locale_info.o(.text) for locale_info_create
    awtk.o(.text) refers to image_manager.o(.text) for image_manager_create
    awtk.o(.text) refers to window_manager.o(.text) for window_manager_create
    awtk.o(.text) refers to system_info.o(.text) for system_info_init
    awtk.o(.text) refers to main_loop_stm32_raw.o(.text) for main_loop_init
    awtk.o(.text) refers to widget.o(.text) for widget_destroy
    awtk.o(.text) refers to main_loop.o(.text) for main_loop
    awtk.o(.text) refers to time.o(.text) for time_now_ms
    input_method_creator.o(.text) refers to emitter.o(.text) for emitter_deinit
    input_method_creator.o(.text) refers to mem.o(.text) for tk_free
    button_group.o(.text) refers to widget.o(.text) for widget_paint_helper
    button_group.o(.text) refers to mem.o(.text) for tk_calloc
    button_group.o(.text) refers to button_group.o(.constdata) for s_button_group_vtable
    button_group.o(.constdata) refers to button_group.o(.conststring) for .conststring
    button_group.o(.constdata) refers to button_group.o(.text) for button_group_create
    color_parser.o(.text) refers to strcmpv7m.o(.text) for strcmp
    color_parser.o(.text) refers to bsearchnoex.o(.text) for bsearch
    color_parser.o(.text) refers to strlen.o(.text) for strlen
    color_parser.o(.text) refers to strstr.o(.text) for strstr
    color_parser.o(.text) refers to utils.o(.text) for tk_sscanf
    color_parser.o(.text) refers to fmul.o(x$fpl$fmul) for __aeabi_fmul
    color_parser.o(.text) refers to ffix.o(x$fpl$ffix) for __aeabi_f2iz
    color_parser.o(.text) refers to str.o(.text) for str_init
    color_parser.o(.text) refers to color.o(.text) for color_init
    color_parser.o(.text) refers to color_parser.o(.data) for colors_map
    color_parser.o(.data) refers to color_parser.o(.conststring) for .conststring
    combo_box.o(.text) refers to mem.o(.text) for tk_free
    combo_box.o(.text) refers to str.o(.text) for str_reset
    combo_box.o(.text) refers to strcmpv7m.o(.text) for strcmp
    combo_box.o(.text) refers to value.o(.text) for value_set_str
    combo_box.o(.text) refers to edit.o(.text) for edit_get_prop
    combo_box.o(.text) refers to utils.o(.text) for tk_strdup
    combo_box.o(.text) refers to strlen.o(.text) for strlen
    combo_box.o(.text) refers to tokenizer.o(.text) for tokenizer_init
    combo_box.o(.text) refers to strchr.o(.text) for strchr
    combo_box.o(.text) refers to widget.o(.text) for widget_set_tr_text
    combo_box.o(.text) refers to events.o(.text) for event_init
    combo_box.o(.text) refers to window.o(.text) for window_close
    combo_box.o(.text) refers to combo_box.o(.constdata) for s_combo_box_vtable
    combo_box.o(.text) refers to combo_box_item.o(.text) for combo_box_item_create
    combo_box.o(.text) refers to popup.o(.text) for popup_create
    combo_box.o(.text) refers to layout.o(.text) for widget_set_children_layout
    combo_box.o(.text) refers to window_open.o(.text) for window_open
    combo_box.o(.text) refers to button_1.o(.text) for button_create
    combo_box.o(.constdata) refers to combo_box.o(.conststring) for .conststring
    combo_box.o(.constdata) refers to combo_box.o(.data) for s_combo_box_properties
    combo_box.o(.constdata) refers to combo_box.o(.text) for combo_box_create_self
    combo_box.o(.constdata) refers to edit.o(.text) for edit_on_paint_self
    combo_box.o(.data) refers to combo_box.o(.conststring) for .conststring
    combo_box_item.o(.text) refers to widget.o(.text) for widget_paint_helper
    combo_box_item.o(.text) refers to events.o(.text) for event_init
    combo_box_item.o(.text) refers to rt_memcpy_w.o(.text) for __aeabi_memcpy4
    combo_box_item.o(.text) refers to strcmpv7m.o(.text) for strcmp
    combo_box_item.o(.text) refers to value.o(.text) for value_int
    combo_box_item.o(.text) refers to mem.o(.text) for tk_calloc
    combo_box_item.o(.text) refers to combo_box_item.o(.constdata) for s_combo_box_item_vtable
    combo_box_item.o(.constdata) refers to combo_box_item.o(.conststring) for .conststring
    combo_box_item.o(.constdata) refers to combo_box_item.o(.text) for combo_box_item_create
    easing.o(.text) refers to fmul.o(x$fpl$fmul) for __aeabi_fmul
    easing.o(.text) refers to faddsub_clz.o(x$fpl$frsb) for __aeabi_frsub
    easing.o(.text) refers to fleqf.o(x$fpl$fleqf) for __aeabi_cfcmple
    easing.o(.text) refers to faddsub_clz.o(x$fpl$fsub) for __aeabi_fsub
    easing.o(.text) refers to faddsub_clz.o(x$fpl$fadd) for __aeabi_fadd
    easing.o(.text) refers to fdiv.o(x$fpl$fdiv) for __aeabi_fdiv
    easing.o(.text) refers to f2d.o(x$fpl$f2d) for __aeabi_f2d
    easing.o(.text) refers to cos.o(i.cos) for cos
    easing.o(.text) refers to d2f.o(x$fpl$d2f) for __aeabi_d2f
    easing.o(.text) refers to sin.o(i.sin) for sin
    easing.o(.text) refers to feqf.o(x$fpl$feqf) for __aeabi_cfcmpeq
    easing.o(.text) refers to pow.o(i.pow) for pow
    easing.o(.text) refers to daddsub_clz.o(x$fpl$drsb) for __aeabi_drsub
    easing.o(.text) refers to dmul.o(x$fpl$dmul) for __aeabi_dmul
    easing.o(.text) refers to daddsub_clz.o(x$fpl$dadd) for __aeabi_dadd
    easing.o(.text) refers to sqrt.o(i.sqrt) for sqrt
    easing.o(.text) refers to daddsub_clz.o(x$fpl$dsub) for __aeabi_dsub
    easing.o(.text) refers to dleqf.o(x$fpl$dleqf) for __aeabi_cdcmple
    easing.o(.text) refers to easing.o(.constdata) for s_easing_funcs
    easing.o(.constdata) refers to easing.o(.text) for easing_linear
    fs.o(.text) refers to fs_os.o(.text) for os_fs
    fs.o(.text) refers to mem.o(.text) for tk_alloc
    glyph_cache.o(.text) refers to mem.o(.text) for tk_calloc
    glyph_cache.o(.text) refers to time.o(.text) for time_now_ms
    line_break.o(.text) refers to wcschr.o(.text) for wcschr
    line_break.o(.text) refers to line_break.o(.data) for no_start_symbols
    line_break.o(.data) refers to line_break.o(.constwstring) for .constwstring
    matrix.o(.text) refers to fmul.o(x$fpl$fmul) for __aeabi_fmul
    matrix.o(.text) refers to faddsub_clz.o(x$fpl$fsub) for __aeabi_fsub
    matrix.o(.text) refers to feqf.o(x$fpl$feqf) for __aeabi_cfcmpeq
    matrix.o(.text) refers to fdiv.o(x$fpl$fdiv) for __aeabi_fdiv
    matrix.o(.text) refers to faddsub_clz.o(x$fpl$fadd) for __aeabi_fadd
    matrix.o(.text) refers to fflt_clz.o(x$fpl$fflt) for __aeabi_i2f
    matrix.o(.text) refers to f2d.o(x$fpl$f2d) for __aeabi_f2d
    matrix.o(.text) refers to sin.o(i.sin) for sin
    matrix.o(.text) refers to d2f.o(x$fpl$d2f) for __aeabi_d2f
    matrix.o(.text) refers to cos.o(i.cos) for cos
    matrix.o(.text) refers to frleqf.o(x$fpl$frleqf) for __aeabi_cfrcmple
    matrix.o(.text) refers to ffix.o(x$fpl$ffix) for __aeabi_f2iz
    popup.o(.text) refers to widget.o(.text) for widget_paint_helper
    popup.o(.text) refers to strcmpv7m.o(.text) for strcmp
    popup.o(.text) refers to value.o(.text) for value_set_str
    popup.o(.text) refers to mem.o(.text) for tk_free
    popup.o(.text) refers to utils.o(.text) for tk_strdup
    popup.o(.text) refers to rect.o(.text) for rect_init
    popup.o(.text) refers to window.o(.text) for window_close
    popup.o(.text) refers to window_manager.o(.text) for window_manager
    popup.o(.text) refers to popup.o(.constdata) for s_popup_vtable
    popup.o(.constdata) refers to popup.o(.conststring) for .conststring
    popup.o(.constdata) refers to popup.o(.data) for s_popup_clone_properties
    popup.o(.constdata) refers to popup.o(.text) for popup_create
    popup.o(.data) refers to popup.o(.conststring) for .conststring
    rom_fs.o(.text) refers to mem.o(.text) for tk_calloc
    rom_fs.o(.text) refers to rt_memcpy_v6.o(.text) for __aeabi_memcpy
    suggest_words.o(.text) refers to buffer.o(.text) for wbuffer_init
    suggest_words.o(.text) refers to rt_memclr_w.o(.text) for __aeabi_memclr4
    suggest_words.o(.text) refers to utf8.o(.text) for utf8_from_utf16
    suggest_words.o(.text) refers to mem.o(.text) for tk_calloc
    tab_button.o(.text) refers to widget.o(.text) for widget_lookup_by_type
    tab_button.o(.text) refers to events.o(.text) for event_init
    tab_button.o(.text) refers to fflt_clz.o(x$fpl$fflt) for __aeabi_i2f
    tab_button.o(.text) refers to faddsub_clz.o(x$fpl$fadd) for __aeabi_fadd
    tab_button.o(.text) refers to ffix.o(x$fpl$ffix) for __aeabi_f2iz
    tab_button.o(.text) refers to strcmpv7m.o(.text) for strcmp
    tab_button.o(.text) refers to value.o(.text) for value_set_bool
    tab_button.o(.text) refers to mem.o(.text) for tk_free
    tab_button.o(.text) refers to utils.o(.text) for tk_strdup
    tab_button.o(.text) refers to tab_button.o(.constdata) for s_tab_button_vtable
    tab_button.o(.constdata) refers to tab_button.o(.conststring) for .conststring
    tab_button.o(.constdata) refers to tab_button.o(.data) for s_tab_button_clone_properties
    tab_button.o(.constdata) refers to tab_button.o(.text) for tab_button_create
    tab_button.o(.data) refers to tab_button.o(.conststring) for .conststring
    tab_button_group.o(.text) refers to widget.o(.text) for widget_move_resize
    tab_button_group.o(.text) refers to value.o(.text) for value_int
    tab_button_group.o(.text) refers to color.o(.text) for color_init
    tab_button_group.o(.text) refers to theme.o(.text) for style_get_color
    tab_button_group.o(.text) refers to canvas.o(.text) for canvas_set_stroke_color
    tab_button_group.o(.text) refers to strcmpv7m.o(.text) for strcmp
    tab_button_group.o(.text) refers to mem.o(.text) for tk_calloc
    tab_button_group.o(.text) refers to tab_button_group.o(.constdata) for s_tab_button_group_vtable
    tab_button_group.o(.constdata) refers to tab_button_group.o(.conststring) for .conststring
    tab_button_group.o(.constdata) refers to tab_button_group.o(.text) for tab_button_group_create
    tab_control.o(.text) refers to widget.o(.text) for widget_paint_helper
    tab_control.o(.text) refers to mem.o(.text) for tk_calloc
    tab_control.o(.text) refers to tab_control.o(.constdata) for s_tab_control_vtable
    tab_control.o(.constdata) refers to tab_control.o(.conststring) for .conststring
    tab_control.o(.constdata) refers to tab_control.o(.text) for tab_control_create
    vgcanvas.o(.text) refers to fflt_clz.o(x$fpl$ffltu) for __aeabi_ui2f
    vgcanvas.o(.text) refers to fdiv.o(x$fpl$fdiv) for __aeabi_fdiv
    vgcanvas.o(.text) refers to faddsub_clz.o(x$fpl$fsub) for __aeabi_fsub
    vgcanvas.o(.text) refers to fmul.o(x$fpl$fmul) for __aeabi_fmul
    vgcanvas.o(.text) refers to faddsub_clz.o(x$fpl$fadd) for __aeabi_fadd
    widget_animator.o(.text) refers to events.o(.text) for event_init
    widget_animator.o(.text) refers to timer.o(.text) for timer_remove
    widget_animator.o(.text) refers to emitter.o(.text) for emitter_dispatch
    widget_animator.o(.text) refers to widget.o(.text) for widget_off
    widget_animator.o(.text) refers to mem.o(.text) for tk_free
    widget_animator.o(.text) refers to easing.o(.text) for easing_get
    widget_animator.o(.text) refers to fflt_clz.o(x$fpl$ffltu) for __aeabi_ui2f
    widget_animator.o(.text) refers to fdiv.o(x$fpl$fdiv) for __aeabi_fdiv
    widget_animator.o(.text) refers to frleqf.o(x$fpl$frleqf) for __aeabi_cfrcmple
    widget_animator.o(.text) refers to faddsub_clz.o(x$fpl$fsub) for __aeabi_fsub
    widget_animator_move.o(.text) refers to fflt_clz.o(x$fpl$fflt) for __aeabi_i2f
    widget_animator_move.o(.text) refers to fmul.o(x$fpl$fmul) for __aeabi_fmul
    widget_animator_move.o(.text) refers to faddsub_clz.o(x$fpl$fadd) for __aeabi_fadd
    widget_animator_move.o(.text) refers to ffix.o(x$fpl$ffix) for __aeabi_f2iz
    widget_animator_move.o(.text) refers to widget.o(.text) for widget_invalidate
    widget_animator_move.o(.text) refers to mem.o(.text) for tk_calloc
    widget_animator_move.o(.text) refers to easing.o(.text) for easing_get
    widget_animator_move.o(.text) refers to widget_animator.o(.text) for widget_animator_init
    widget_animator_opacity.o(.text) refers to fflt_clz.o(x$fpl$fflt) for __aeabi_i2f
    widget_animator_opacity.o(.text) refers to fmul.o(x$fpl$fmul) for __aeabi_fmul
    widget_animator_opacity.o(.text) refers to fflt_clz.o(x$fpl$ffltu) for __aeabi_ui2f
    widget_animator_opacity.o(.text) refers to faddsub_clz.o(x$fpl$fadd) for __aeabi_fadd
    widget_animator_opacity.o(.text) refers to ffixu.o(x$fpl$ffixu) for __aeabi_f2uiz
    widget_animator_opacity.o(.text) refers to widget.o(.text) for widget_set_opacity
    widget_animator_opacity.o(.text) refers to mem.o(.text) for tk_calloc
    widget_animator_opacity.o(.text) refers to easing.o(.text) for easing_get
    widget_animator_opacity.o(.text) refers to widget_animator.o(.text) for widget_animator_init
    widget_animator_rotation.o(.text) refers to faddsub_clz.o(x$fpl$fsub) for __aeabi_fsub
    widget_animator_rotation.o(.text) refers to fmul.o(x$fpl$fmul) for __aeabi_fmul
    widget_animator_rotation.o(.text) refers to faddsub_clz.o(x$fpl$fadd) for __aeabi_fadd
    widget_animator_rotation.o(.text) refers to value.o(.text) for value_set_float
    widget_animator_rotation.o(.text) refers to widget.o(.text) for widget_set_prop
    widget_animator_rotation.o(.text) refers to mem.o(.text) for tk_calloc
    widget_animator_rotation.o(.text) refers to easing.o(.text) for easing_get
    widget_animator_rotation.o(.text) refers to widget_animator.o(.text) for widget_animator_init
    widget_animator_scale.o(.text) refers to faddsub_clz.o(x$fpl$fsub) for __aeabi_fsub
    widget_animator_scale.o(.text) refers to fmul.o(x$fpl$fmul) for __aeabi_fmul
    widget_animator_scale.o(.text) refers to faddsub_clz.o(x$fpl$fadd) for __aeabi_fadd
    widget_animator_scale.o(.text) refers to value.o(.text) for value_set_float
    widget_animator_scale.o(.text) refers to widget.o(.text) for widget_set_prop
    widget_animator_scale.o(.text) refers to mem.o(.text) for tk_calloc
    widget_animator_scale.o(.text) refers to easing.o(.text) for easing_get
    widget_animator_scale.o(.text) refers to widget_animator.o(.text) for widget_animator_init
    widget_animator_scroll.o(.text) refers to fflt_clz.o(x$fpl$fflt) for __aeabi_i2f
    widget_animator_scroll.o(.text) refers to fmul.o(x$fpl$fmul) for __aeabi_fmul
    widget_animator_scroll.o(.text) refers to faddsub_clz.o(x$fpl$fadd) for __aeabi_fadd
    widget_animator_scroll.o(.text) refers to ffix.o(x$fpl$ffix) for __aeabi_f2iz
    widget_animator_scroll.o(.text) refers to value.o(.text) for value_set_int
    widget_animator_scroll.o(.text) refers to widget.o(.text) for widget_set_prop
    widget_animator_scroll.o(.text) refers to mem.o(.text) for tk_calloc
    widget_animator_scroll.o(.text) refers to easing.o(.text) for easing_get
    widget_animator_scroll.o(.text) refers to widget_animator.o(.text) for widget_animator_init
    widget_animator_value.o(.text) refers to fflt_clz.o(x$fpl$fflt) for __aeabi_i2f
    widget_animator_value.o(.text) refers to fmul.o(x$fpl$fmul) for __aeabi_fmul
    widget_animator_value.o(.text) refers to faddsub_clz.o(x$fpl$fadd) for __aeabi_fadd
    widget_animator_value.o(.text) refers to ffix.o(x$fpl$ffix) for __aeabi_f2iz
    widget_animator_value.o(.text) refers to widget.o(.text) for widget_set_value
    widget_animator_value.o(.text) refers to mem.o(.text) for tk_calloc
    widget_animator_value.o(.text) refers to easing.o(.text) for easing_get
    widget_animator_value.o(.text) refers to widget_animator.o(.text) for widget_animator_init
    ui_binary_writer.o(.text) refers to buffer.o(.text) for wbuffer_write_binary
    ui_binary_writer.o(.text) refers to rt_memclr_w.o(.text) for __aeabi_memclr4
    ui_builder_default.o(.text) refers to layout.o(.text) for widget_layout_calc
    ui_builder_default.o(.text) refers to widget_factory.o(.text) for widget_factory
    ui_builder_default.o(.text) refers to strcmpv7m.o(.text) for strcmp
    ui_builder_default.o(.text) refers to value.o(.text) for value_set_str
    ui_builder_default.o(.text) refers to widget.o(.text) for widget_set_prop
    ui_builder_default.o(.text) refers to events.o(.text) for event_init
    ui_builder_default.o(.text) refers to rt_memclr_w.o(.text) for __aeabi_memclr4
    ui_builder_default.o(.text) refers to ui_builder_default.o(.bss) for s_ui_builder
    ui_loader_default.o(.text) refers to buffer.o(.text) for rbuffer_init
    ui_loader_default.o(.text) refers to ui_builder.o(.text) for ui_builder_on_start
    ui_loader_default.o(.text) refers to ui_loader_default.o(.constdata) for s_default_ui_loader
    ui_loader_default.o(.constdata) refers to ui_loader_default.o(.text) for ui_loader_load_default
    ui_loader_xml.o(.text) refers to rt_memclr_w.o(.text) for __aeabi_memclr4
    ui_loader_xml.o(.text) refers to strncpy.o(.text) for strncpy
    ui_loader_xml.o(.text) refers to layout.o(.text) for widget_layout_parse
    ui_loader_xml.o(.text) refers to ui_builder.o(.text) for ui_builder_on_widget_start
    ui_loader_xml.o(.text) refers to str.o(.text) for str_decode_xml_entity
    ui_loader_xml.o(.text) refers to xml_parser.o(.text) for xml_parser_create
    ui_loader_xml.o(.text) refers to ui_loader_xml.o(.constdata) for s_xml_ui_loader
    ui_loader_xml.o(.constdata) refers to ui_loader_xml.o(.text) for ui_loader_load_xml
    ui_serializer.o(.text) refers to str.o(.text) for str_from_value
    ui_serializer.o(.text) refers to ui_builder.o(.text) for ui_builder_on_widget_prop
    ui_serializer.o(.text) refers to utils.o(.text) for tk_snprintf
    ui_serializer.o(.text) refers to rt_memclr_w.o(.text) for __aeabi_memclr4
    ui_serializer.o(.text) refers to rt_memcpy_w.o(.text) for __aeabi_memcpy4
    ui_serializer.o(.text) refers to mem.o(.text) for tk_alloc
    ui_serializer.o(.text) refers to utf8.o(.text) for utf8_from_utf16
    ui_serializer.o(.text) refers to widget.o(.text) for widget_get_prop
    ui_serializer.o(.text) refers to ui_xml_writer.o(.text) for ui_xml_writer_init
    ui_xml_writer.o(.text) refers to str.o(.text) for str_append_char
    ui_xml_writer.o(.text) refers to rt_memclr_w.o(.text) for __aeabi_memclr4
    ui_xml_writer.o(.text) refers to utils.o(.text) for tk_snprintf
    ui_xml_writer.o(.text) refers to strlen.o(.text) for strlen
    window_open.o(.text) refers to ui_loader_default.o(.text) for default_ui_loader
    window_open.o(.text) refers to ui_builder_default.o(.text) for ui_builder_default
    window_open.o(.text) refers to assets_manager.o(.text) for assets_manager
    window_open.o(.text) refers to ui_loader.o(.text) for ui_loader_load
    window_open.o(.text) refers to widget.o(.text) for widget_on
    xml_builder.o(.text) refers to strcmpv7m.o(.text) for strcmp
    xml_parser.o(.text) refers to mem.o(.text) for tk_calloc
    xml_parser.o(.text) refers to xml_builder.o(.text) for xml_builder_on_comment
    xml_parser.o(.text) refers to strlen.o(.text) for strlen
    xml_parser.o(.text) refers to rt_ctype_table.o(.text) for __rt_ctype_table
    xml_parser.o(.text) refers to strncpy.o(.text) for strncpy
    xml_parser.o(.text) refers to fs.o(.text) for file_read
    color_tile.o(.text) refers to canvas.o(.text) for canvas_set_fill_color
    color_tile.o(.text) refers to strcmpv7m.o(.text) for strcmp
    color_tile.o(.text) refers to value.o(.text) for value_set_str
    color_tile.o(.text) refers to color_parser.o(.text) for color_parse_simple
    color_tile.o(.text) refers to color.o(.text) for color_hex_str
    color_tile.o(.text) refers to widget.o(.text) for widget_invalidate
    color_tile.o(.text) refers to mem.o(.text) for tk_calloc
    color_tile.o(.text) refers to color_tile.o(.constdata) for s_color_tile_vtable
    color_tile.o(.constdata) refers to color_tile.o(.conststring) for .conststring
    color_tile.o(.constdata) refers to color_tile.o(.data) for s_color_tile_properties
    color_tile.o(.constdata) refers to color_tile.o(.text) for color_tile_create
    color_tile.o(.data) refers to color_tile.o(.conststring) for .conststring
    assets_manager.o(.text) refers to rt_memclr_w.o(.text) for __aeabi_memclr4
    assets_manager.o(.text) refers to mem.o(.text) for tk_free
    assets_manager.o(.text) refers to array.o(.text) for array_init
    assets_manager.o(.text) refers to strcmpv7m.o(.text) for strcmp
    assets_manager.o(.text) refers to assets_manager.o(.data) for s_assets_manager
    locale_info.o(.text) refers to strcmpv7m.o(.text) for strcmp
    locale_info.o(.text) refers to events.o(.text) for event_init
    locale_info.o(.text) refers to utils.o(.text) for tk_strncpy
    locale_info.o(.text) refers to assets_manager.o(.text) for assets_manager
    locale_info.o(.text) refers to emitter.o(.text) for emitter_dispatch
    locale_info.o(.text) refers to mem.o(.text) for tk_calloc
    locale_info.o(.text) refers to locale_info.o(.data) for s_locale
    path.o(.text) refers to rt_memclr.o(.text) for __aeabi_memclr
    path.o(.text) refers to strrchr.o(.text) for strrchr
    path.o(.text) refers to strlen.o(.text) for strlen
    path.o(.text) refers to utils.o(.text) for tk_strncpy
    path.o(.text) refers to fs_os.o(.text) for os_fs
    path.o(.text) refers to fs.o(.text) for fs_dir_exist
    path.o(.text) refers to strcmpv7m.o(.text) for strcmp
    path.o(.text) refers to rt_memcpy_v6.o(.text) for __aeabi_memcpy
    lcd_stm32_raw.o(.text) refers to lcd_driver.o(.text) for TFT_SetWindow
    lcd_stm32_raw.o(.text) refers to mem.o(.text) for tk_free
    lcd_stm32_raw.o(.text) refers to system_info.o(.text) for system_info
    main_loop_stm32_raw.o(.text) refers to lcd_stm32_raw.o(.text) for lcd_reg_create
    main_loop_stm32_raw.o(.text) refers to stm32f10x_tim.o(.text) for TIM_GetITStatus
    main_loop_stm32_raw.o(.text) refers to touch.o(.text) for TOUCH_Scan
    main_loop_stm32_raw.o(.text) refers to main_loop.o(.text) for main_loop
    main_loop_stm32_raw.o(.text) refers to main_loop_simple.o(.text) for main_loop_post_pointer_event
    main_loop_stm32_raw.o(.text) refers to font_manager.o(.text) for font_manager
    main_loop_stm32_raw.o(.text) refers to canvas.o(.text) for canvas_init
    main_loop_stm32_raw.o(.text) refers to touch.o(.data) for TouchData
    platform.o(.text) refers to misc.o(.text) for SysTick_CLKSourceConfig
    platform.o(.text) refers to mem.o(.text) for tk_mem_init
    platform.o(.text) refers to system_stm32f10x.o(.data) for SystemCoreClock
    platform.o(.text) refers to platform.o(.bss) for s_heam_mem
    mutex_null.o(.text) refers to mutex_null.o(.data) for s_tk_mutex_null
    sys_tick.o(.text) refers to sys_tick.o(.data) for g_sys_tick
    demo_main.o(.text) refers to awtk.o(.text) for tk_init
    demo_main.o(.text) refers to assets-mini.o(.text) for assets_init
    demo_main.o(.text) refers to demo1_app.o(.text) for application_init
    demo1_app.o(.text) refers to progress_bar.o(.text) for progress_bar_set_value
    demo1_app.o(.text) refers to dialog.o(.text) for dialog_quit
    demo1_app.o(.text) refers to mem.o(.text) for tk_mem_info_dump
    demo1_app.o(.text) refers to window.o(.text) for window_close
    demo1_app.o(.text) refers to widget.o(.text) for widget_set_text
    demo1_app.o(.text) refers to button_1.o(.text) for button_create
    demo1_app.o(.text) refers to label.o(.text) for label_create
    demo1_app.o(.text) refers to image.o(.text) for image_create
    demo1_app.o(.text) refers to timer.o(.text) for timer_add
    demo1_app.o(.text) refers to slider.o(.text) for slider_create
    demo1_app.o(.text) refers to check_button.o(.text) for check_button_create
    demo1_app.o(.text) refers to group_box.o(.text) for group_box_create
    assets-mini.o(.text) refers to assets_manager.o(.text) for assets_manager
    assets-mini.o(.text) refers to awtk.o(.text) for tk_init_assets
    assets-mini.o(.text) refers to assets-mini.o(.constdata) for font_default
    use_no_semi_2.o(.text) refers (Special) to use_no_semi.o(.text) for __use_no_semihosting_swi
    rt_ctype_table.o(.text) refers to rt_locale_intlibspace.o(.text) for __rt_locale
    rt_ctype_table.o(.text) refers to lc_ctype_c.o(locale$$code) for _get_lc_ctype
    llsdiv.o(.text) refers to lludivv7m.o(.text) for __aeabi_uldivmod
    tolower.o(.text) refers to rt_ctype_table.o(.text) for __rt_ctype_table
    toupper.o(.text) refers to rt_ctype_table.o(.text) for __rt_ctype_table
    __2printf.o(.text) refers to _printf_char_file.o(.text) for _printf_char_file
    __2printf.o(.text) refers to usart.o(.data) for __stdout
    noretval__2printf.o(.text) refers to _printf_char_file.o(.text) for _printf_char_file
    noretval__2printf.o(.text) refers to usart.o(.data) for __stdout
    __printf.o(.text) refers to _printf_percent.o(.ARM.Collect$$_printf_percent$$00000000) for _printf_percent
    _printf_dec.o(.text) refers to _printf_intcommon.o(.text) for _printf_int_common
    __printf_flags.o(.text) refers to _printf_percent.o(.ARM.Collect$$_printf_percent$$00000000) for _printf_percent
    __printf_flags.o(.text) refers to __printf_flags.o(.constdata) for .constdata
    __printf_ss.o(.text) refers to _printf_percent.o(.ARM.Collect$$_printf_percent$$00000000) for _printf_percent
    __printf_flags_ss.o(.text) refers to _printf_percent.o(.ARM.Collect$$_printf_percent$$00000000) for _printf_percent
    __printf_flags_ss.o(.text) refers to __printf_flags_ss.o(.constdata) for .constdata
    __printf_wp.o(.text) refers to __printf_wp.o(i._is_digit) for _is_digit
    __printf_wp.o(.text) refers to _printf_percent.o(.ARM.Collect$$_printf_percent$$00000000) for _printf_percent
    __printf_flags_wp.o(.text) refers to __printf_wp.o(i._is_digit) for _is_digit
    __printf_flags_wp.o(.text) refers to _printf_percent.o(.ARM.Collect$$_printf_percent$$00000000) for _printf_percent
    __printf_flags_wp.o(.text) refers to __printf_flags_wp.o(.constdata) for .constdata
    __printf_ss_wp.o(.text) refers to __printf_wp.o(i._is_digit) for _is_digit
    __printf_ss_wp.o(.text) refers to _printf_percent.o(.ARM.Collect$$_printf_percent$$00000000) for _printf_percent
    __printf_flags_ss_wp.o(.text) refers to __printf_wp.o(i._is_digit) for _is_digit
    __printf_flags_ss_wp.o(.text) refers to _printf_percent.o(.ARM.Collect$$_printf_percent$$00000000) for _printf_percent
    __printf_flags_ss_wp.o(.text) refers to __printf_flags_ss_wp.o(.constdata) for .constdata
    _printf_d.o(.ARM.Collect$$_printf_percent$$00000009) refers (Weak) to _printf_dec.o(.text) for _printf_int_dec
    _printf_percent.o(.ARM.Collect$$_printf_percent$$00000000) refers (Special) to _printf_percent_end.o(.ARM.Collect$$_printf_percent$$00000017) for _printf_percent_end
    vsscanf.o(.text) refers (Special) to _scanf_int.o(.text) for _scanf_int
    vsscanf.o(.text) refers (Special) to _scanf_longlong.o(.text) for _scanf_longlong
    vsscanf.o(.text) refers (Special) to _scanf_mbtowc.o(.text) for _scanf_mbtowc
    vsscanf.o(.text) refers (Special) to scanf1.o(x$fpl$scanf1) for _scanf_real
    vsscanf.o(.text) refers (Special) to _scanf_str.o(.text) for _scanf_string
    vsscanf.o(.text) refers (Special) to _scanf_wctomb.o(.text) for _scanf_wctomb
    vsscanf.o(.text) refers (Special) to _scanf_wstr.o(.text) for _scanf_wstring
    vsscanf.o(.text) refers to scanf_char.o(.text) for __vfscanf_char
    vsscanf.o(.text) refers to _sgetc.o(.text) for _sgetc
    rt_memcpy_v6.o(.text) refers to rt_memcpy_w.o(.text) for __aeabi_memcpy4
    rt_memmove_v6.o(.text) refers to rt_memcpy_v6.o(.text) for __aeabi_memcpy
    rt_memmove_v6.o(.text) refers to rt_memmove_w.o(.text) for __memmove_aligned
    rt_memclr.o(.text) refers to rt_memclr_w.o(.text) for _memset_w
    strncpy.o(.text) refers to rt_memclr.o(.text) for __aeabi_memclr
    __main.o(!!!main) refers to __rtentry.o(.ARM.Collect$$rtentry$$00000000) for __rt_entry
    d2f.o(x$fpl$d2f) refers (Special) to usenofp.o(x$fpl$usenofp) for __I$use$fp
    d2f.o(x$fpl$d2f) refers to fretinf.o(x$fpl$fretinf) for __fpl_fretinf
    d2f.o(x$fpl$d2f) refers to dnaninf.o(x$fpl$dnaninf) for __fpl_dnaninf
    daddsub_clz.o(x$fpl$dadd) refers (Special) to usenofp.o(x$fpl$usenofp) for __I$use$fp
    daddsub_clz.o(x$fpl$dadd) refers to daddsub_clz.o(x$fpl$dsub) for _dsub1
    daddsub_clz.o(x$fpl$dadd) refers to dretinf.o(x$fpl$dretinf) for __fpl_dretinf
    daddsub_clz.o(x$fpl$dadd) refers to dnaninf.o(x$fpl$dnaninf) for __fpl_dnaninf
    daddsub_clz.o(x$fpl$drsb) refers (Special) to usenofp.o(x$fpl$usenofp) for __I$use$fp
    daddsub_clz.o(x$fpl$drsb) refers to daddsub_clz.o(x$fpl$dadd) for _dadd1
    daddsub_clz.o(x$fpl$drsb) refers to daddsub_clz.o(x$fpl$dsub) for _dsub1
    daddsub_clz.o(x$fpl$dsub) refers (Special) to usenofp.o(x$fpl$usenofp) for __I$use$fp
    daddsub_clz.o(x$fpl$dsub) refers to daddsub_clz.o(x$fpl$dadd) for _dadd1
    daddsub_clz.o(x$fpl$dsub) refers to dnaninf.o(x$fpl$dnaninf) for __fpl_dnaninf
    ddiv.o(x$fpl$drdiv) refers (Special) to usenofp.o(x$fpl$usenofp) for __I$use$fp
    ddiv.o(x$fpl$drdiv) refers to ddiv.o(x$fpl$ddiv) for ddiv_entry
    ddiv.o(x$fpl$ddiv) refers (Special) to usenofp.o(x$fpl$usenofp) for __I$use$fp
    ddiv.o(x$fpl$ddiv) refers to dretinf.o(x$fpl$dretinf) for __fpl_dretinf
    ddiv.o(x$fpl$ddiv) refers to dnaninf.o(x$fpl$dnaninf) for __fpl_dnaninf
    deqf.o(x$fpl$deqf) refers (Special) to usenofp.o(x$fpl$usenofp) for __I$use$fp
    deqf.o(x$fpl$deqf) refers to dnaninf.o(x$fpl$dnaninf) for __fpl_dnaninf
    deqf.o(x$fpl$deqf) refers to dcmpi.o(x$fpl$dcmpinf) for __fpl_dcmp_Inf
    dfix.o(x$fpl$dfix) refers (Special) to usenofp.o(x$fpl$usenofp) for __I$use$fp
    dfix.o(x$fpl$dfix) refers to dnaninf.o(x$fpl$dnaninf) for __fpl_dnaninf
    dfix.o(x$fpl$dfixr) refers (Special) to usenofp.o(x$fpl$usenofp) for __I$use$fp
    dfix.o(x$fpl$dfixr) refers to dnaninf.o(x$fpl$dnaninf) for __fpl_dnaninf
    dfixll.o(x$fpl$llsfromd) refers (Special) to usenofp.o(x$fpl$usenofp) for __I$use$fp
    dfixll.o(x$fpl$llsfromd) refers to dnaninf.o(x$fpl$dnaninf) for __fpl_dnaninf
    dfixll.o(x$fpl$llsfromdr) refers (Special) to usenofp.o(x$fpl$usenofp) for __I$use$fp
    dfixll.o(x$fpl$llsfromdr) refers to dnaninf.o(x$fpl$dnaninf) for __fpl_dnaninf
    dfixu.o(x$fpl$dfixu) refers (Special) to usenofp.o(x$fpl$usenofp) for __I$use$fp
    dfixu.o(x$fpl$dfixu) refers to dnaninf.o(x$fpl$dnaninf) for __fpl_dnaninf
    dfixu.o(x$fpl$dfixur) refers (Special) to usenofp.o(x$fpl$usenofp) for __I$use$fp
    dfixu.o(x$fpl$dfixur) refers to dnaninf.o(x$fpl$dnaninf) for __fpl_dnaninf
    dflt_clz.o(x$fpl$dfltu) refers (Special) to usenofp.o(x$fpl$usenofp) for __I$use$fp
    dflt_clz.o(x$fpl$dflt) refers (Special) to usenofp.o(x$fpl$usenofp) for __I$use$fp
    dflt_clz.o(x$fpl$dfltn) refers (Special) to usenofp.o(x$fpl$usenofp) for __I$use$fp
    dfltll_clz.o(x$fpl$dfltll) refers (Special) to usenofp.o(x$fpl$usenofp) for __I$use$fp
    dfltll_clz.o(x$fpl$dfltull) refers (Special) to usenofp.o(x$fpl$usenofp) for __I$use$fp
    dleqf.o(x$fpl$dleqf) refers (Special) to usenofp.o(x$fpl$usenofp) for __I$use$fp
    dleqf.o(x$fpl$dleqf) refers to dnaninf.o(x$fpl$dnaninf) for __fpl_dnaninf
    dleqf.o(x$fpl$dleqf) refers to dcmpi.o(x$fpl$dcmpinf) for __fpl_dcmp_Inf
    dmul.o(x$fpl$dmul) refers (Special) to usenofp.o(x$fpl$usenofp) for __I$use$fp
    dmul.o(x$fpl$dmul) refers to dretinf.o(x$fpl$dretinf) for __fpl_dretinf
    dmul.o(x$fpl$dmul) refers to dnaninf.o(x$fpl$dnaninf) for __fpl_dnaninf
    drleqf.o(x$fpl$drleqf) refers (Special) to usenofp.o(x$fpl$usenofp) for __I$use$fp
    drleqf.o(x$fpl$drleqf) refers to dleqf.o(x$fpl$dleqf) for __fpl_dcmple_InfNaN
    f2d.o(x$fpl$f2d) refers (Special) to usenofp.o(x$fpl$usenofp) for __I$use$fp
    f2d.o(x$fpl$f2d) refers to fnaninf.o(x$fpl$fnaninf) for __fpl_fnaninf
    f2d.o(x$fpl$f2d) refers to dretinf.o(x$fpl$dretinf) for __fpl_dretinf
    faddsub_clz.o(x$fpl$fadd) refers (Special) to usenofp.o(x$fpl$usenofp) for __I$use$fp
    faddsub_clz.o(x$fpl$fadd) refers to faddsub_clz.o(x$fpl$fsub) for _fsub1
    faddsub_clz.o(x$fpl$fadd) refers to fretinf.o(x$fpl$fretinf) for __fpl_fretinf
    faddsub_clz.o(x$fpl$fadd) refers to fnaninf.o(x$fpl$fnaninf) for __fpl_fnaninf
    faddsub_clz.o(x$fpl$frsb) refers (Special) to usenofp.o(x$fpl$usenofp) for __I$use$fp
    faddsub_clz.o(x$fpl$frsb) refers to faddsub_clz.o(x$fpl$fadd) for _fadd1
    faddsub_clz.o(x$fpl$frsb) refers to faddsub_clz.o(x$fpl$fsub) for _fsub1
    faddsub_clz.o(x$fpl$fsub) refers (Special) to usenofp.o(x$fpl$usenofp) for __I$use$fp
    faddsub_clz.o(x$fpl$fsub) refers to faddsub_clz.o(x$fpl$fadd) for _fadd1
    faddsub_clz.o(x$fpl$fsub) refers to fnaninf.o(x$fpl$fnaninf) for __fpl_fnaninf
    fdiv.o(x$fpl$frdiv) refers (Special) to usenofp.o(x$fpl$usenofp) for __I$use$fp
    fdiv.o(x$fpl$frdiv) refers to fdiv.o(x$fpl$fdiv) for _fdiv1
    fdiv.o(x$fpl$fdiv) refers (Special) to usenofp.o(x$fpl$usenofp) for __I$use$fp
    fdiv.o(x$fpl$fdiv) refers to fretinf.o(x$fpl$fretinf) for __fpl_fretinf
    fdiv.o(x$fpl$fdiv) refers to fnaninf.o(x$fpl$fnaninf) for __fpl_fnaninf
    feqf.o(x$fpl$feqf) refers (Special) to usenofp.o(x$fpl$usenofp) for __I$use$fp
    feqf.o(x$fpl$feqf) refers to fnaninf.o(x$fpl$fnaninf) for __fpl_fnaninf
    feqf.o(x$fpl$feqf) refers to fcmpi.o(x$fpl$fcmpinf) for __fpl_fcmp_Inf
    ffix.o(x$fpl$ffix) refers (Special) to usenofp.o(x$fpl$usenofp) for __I$use$fp
    ffix.o(x$fpl$ffix) refers to fnaninf.o(x$fpl$fnaninf) for __fpl_fnaninf
    ffix.o(x$fpl$ffixr) refers (Special) to usenofp.o(x$fpl$usenofp) for __I$use$fp
    ffix.o(x$fpl$ffixr) refers to fnaninf.o(x$fpl$fnaninf) for __fpl_fnaninf
    ffixu.o(x$fpl$ffixu) refers (Special) to usenofp.o(x$fpl$usenofp) for __I$use$fp
    ffixu.o(x$fpl$ffixu) refers to fnaninf.o(x$fpl$fnaninf) for __fpl_fnaninf
    ffixu.o(x$fpl$ffixur) refers (Special) to usenofp.o(x$fpl$usenofp) for __I$use$fp
    ffixu.o(x$fpl$ffixur) refers to fnaninf.o(x$fpl$fnaninf) for __fpl_fnaninf
    fflt_clz.o(x$fpl$ffltu) refers (Special) to usenofp.o(x$fpl$usenofp) for __I$use$fp
    fflt_clz.o(x$fpl$fflt) refers (Special) to usenofp.o(x$fpl$usenofp) for __I$use$fp
    fflt_clz.o(x$fpl$ffltn) refers (Special) to usenofp.o(x$fpl$usenofp) for __I$use$fp
    ffltll_clz.o(x$fpl$ffltll) refers (Special) to usenofp.o(x$fpl$usenofp) for __I$use$fp
    fleqf.o(x$fpl$fleqf) refers (Special) to usenofp.o(x$fpl$usenofp) for __I$use$fp
    fleqf.o(x$fpl$fleqf) refers to fnaninf.o(x$fpl$fnaninf) for __fpl_fnaninf
    fleqf.o(x$fpl$fleqf) refers to fcmpi.o(x$fpl$fcmpinf) for __fpl_fcmp_Inf
    fmul.o(x$fpl$fmul) refers (Special) to usenofp.o(x$fpl$usenofp) for __I$use$fp
    fmul.o(x$fpl$fmul) refers to fretinf.o(x$fpl$fretinf) for __fpl_fretinf
    fmul.o(x$fpl$fmul) refers to fnaninf.o(x$fpl$fnaninf) for __fpl_fnaninf
    frleqf.o(x$fpl$frleqf) refers (Special) to usenofp.o(x$fpl$usenofp) for __I$use$fp
    frleqf.o(x$fpl$frleqf) refers to fleqf.o(x$fpl$fleqf) for __fpl_fcmple_InfNaN
    cos.o(i.__softfp_cos) refers (Special) to usenofp.o(x$fpl$usenofp) for __I$use$fp
    cos.o(i.__softfp_cos) refers to cos.o(i.cos) for cos
    cos.o(i.cos) refers (Special) to usenofp.o(x$fpl$usenofp) for __I$use$fp
    cos.o(i.cos) refers to _rserrno.o(.text) for __set_errno
    cos.o(i.cos) refers to dunder.o(i.__mathlib_dbl_invalid) for __mathlib_dbl_invalid
    cos.o(i.cos) refers to dunder.o(i.__mathlib_dbl_infnan) for __mathlib_dbl_infnan
    cos.o(i.cos) refers to rred.o(i.__ieee754_rem_pio2) for __ieee754_rem_pio2
    cos.o(i.cos) refers to sin_i.o(i.__kernel_sin) for __kernel_sin
    cos.o(i.cos) refers to cos_i.o(i.__kernel_cos) for __kernel_cos
    cos_x.o(i.____softfp_cos$lsc) refers (Special) to usenofp.o(x$fpl$usenofp) for __I$use$fp
    cos_x.o(i.____softfp_cos$lsc) refers to cos_x.o(i.__cos$lsc) for __cos$lsc
    cos_x.o(i.__cos$lsc) refers (Special) to usenofp.o(x$fpl$usenofp) for __I$use$fp
    cos_x.o(i.__cos$lsc) refers to _rserrno.o(.text) for __set_errno
    cos_x.o(i.__cos$lsc) refers to dunder.o(i.__mathlib_dbl_infnan) for __mathlib_dbl_infnan
    cos_x.o(i.__cos$lsc) refers to rred.o(i.__ieee754_rem_pio2) for __ieee754_rem_pio2
    cos_x.o(i.__cos$lsc) refers to sin_i.o(i.__kernel_sin) for __kernel_sin
    cos_x.o(i.__cos$lsc) refers to cos_i.o(i.__kernel_cos) for __kernel_cos
    floor.o(i.__softfp_floor) refers (Special) to usenofp.o(x$fpl$usenofp) for __I$use$fp
    floor.o(i.__softfp_floor) refers to floor.o(i.floor) for floor
    floor.o(i.floor) refers (Special) to usenofp.o(x$fpl$usenofp) for __I$use$fp
    floor.o(i.floor) refers to daddsub_clz.o(x$fpl$dadd) for __aeabi_dadd
    floor.o(i.floor) refers to drleqf.o(x$fpl$drleqf) for __aeabi_cdrcmple
    floor.o(i.floor) refers to daddsub_clz.o(x$fpl$drsb) for __aeabi_drsub
    pow.o(i.__softfp_pow) refers (Special) to usenofp.o(x$fpl$usenofp) for __I$use$fp
    pow.o(i.__softfp_pow) refers to pow.o(i.pow) for pow
    pow.o(i.pow) refers (Special) to usenofp.o(x$fpl$usenofp) for __I$use$fp
    pow.o(i.pow) refers to dunder.o(i.__mathlib_dbl_infnan2) for __mathlib_dbl_infnan2
    pow.o(i.pow) refers to _rserrno.o(.text) for __set_errno
    pow.o(i.pow) refers to dunder.o(i.__mathlib_dbl_divzero) for __mathlib_dbl_divzero
    pow.o(i.pow) refers to ddiv.o(x$fpl$ddiv) for __aeabi_ddiv
    pow.o(i.pow) refers to sqrt.o(i.sqrt) for sqrt
    pow.o(i.pow) refers to dmul.o(x$fpl$dmul) for __aeabi_dmul
    pow.o(i.pow) refers to dflt_clz.o(x$fpl$dflt) for __aeabi_i2d
    pow.o(i.pow) refers to dunder.o(i.__mathlib_dbl_invalid) for __mathlib_dbl_invalid
    pow.o(i.pow) refers to dunder.o(i.__mathlib_dbl_overflow) for __mathlib_dbl_overflow
    pow.o(i.pow) refers to dunder.o(i.__mathlib_dbl_underflow) for __mathlib_dbl_underflow
    pow.o(i.pow) refers to daddsub_clz.o(x$fpl$dsub) for __aeabi_dsub
    pow.o(i.pow) refers to scalbn.o(x$fpl$scalbn) for __ARM_scalbn
    pow.o(i.pow) refers to daddsub_clz.o(x$fpl$drsb) for __aeabi_drsub
    pow.o(i.pow) refers to daddsub_clz.o(x$fpl$dadd) for __aeabi_dadd
    pow.o(i.pow) refers to qnan.o(.constdata) for __mathlib_zero
    pow.o(i.pow) refers to poly.o(i.__kernel_poly) for __kernel_poly
    pow.o(i.pow) refers to drleqf.o(x$fpl$drleqf) for __aeabi_cdrcmple
    pow.o(i.pow) refers to pow.o(.constdata) for .constdata
    pow.o(i.pow) refers to fpclassify.o(i.__ARM_fpclassify) for __ARM_fpclassify
    pow.o(.constdata) refers (Special) to usenofp.o(x$fpl$usenofp) for __I$use$fp
    pow_x.o(i.____softfp_pow$lsc) refers (Special) to usenofp.o(x$fpl$usenofp) for __I$use$fp
    pow_x.o(i.____softfp_pow$lsc) refers to pow_x.o(i.__pow$lsc) for __pow$lsc
    pow_x.o(i.__pow$lsc) refers (Special) to usenofp.o(x$fpl$usenofp) for __I$use$fp
    pow_x.o(i.__pow$lsc) refers to dunder.o(i.__mathlib_dbl_infnan2) for __mathlib_dbl_infnan2
    pow_x.o(i.__pow$lsc) refers to _rserrno.o(.text) for __set_errno
    pow_x.o(i.__pow$lsc) refers to ddiv.o(x$fpl$ddiv) for __aeabi_ddiv
    pow_x.o(i.__pow$lsc) refers to sqrt.o(i.sqrt) for sqrt
    pow_x.o(i.__pow$lsc) refers to dmul.o(x$fpl$dmul) for __aeabi_dmul
    pow_x.o(i.__pow$lsc) refers to dflt_clz.o(x$fpl$dflt) for __aeabi_i2d
    pow_x.o(i.__pow$lsc) refers to daddsub_clz.o(x$fpl$dsub) for __aeabi_dsub
    pow_x.o(i.__pow$lsc) refers to scalbn.o(x$fpl$scalbn) for __ARM_scalbn
    pow_x.o(i.__pow$lsc) refers to daddsub_clz.o(x$fpl$drsb) for __aeabi_drsub
    pow_x.o(i.__pow$lsc) refers to daddsub_clz.o(x$fpl$dadd) for __aeabi_dadd
    pow_x.o(i.__pow$lsc) refers to qnan.o(.constdata) for __mathlib_zero
    pow_x.o(i.__pow$lsc) refers to poly.o(i.__kernel_poly) for __kernel_poly
    pow_x.o(i.__pow$lsc) refers to drleqf.o(x$fpl$drleqf) for __aeabi_cdrcmple
    pow_x.o(i.__pow$lsc) refers to pow_x.o(.constdata) for .constdata
    pow_x.o(.constdata) refers (Special) to usenofp.o(x$fpl$usenofp) for __I$use$fp
    sin.o(i.__softfp_sin) refers (Special) to usenofp.o(x$fpl$usenofp) for __I$use$fp
    sin.o(i.__softfp_sin) refers to sin.o(i.sin) for sin
    sin.o(i.sin) refers (Special) to usenofp.o(x$fpl$usenofp) for __I$use$fp
    sin.o(i.sin) refers to _rserrno.o(.text) for __set_errno
    sin.o(i.sin) refers to dunder.o(i.__mathlib_dbl_invalid) for __mathlib_dbl_invalid
    sin.o(i.sin) refers to dunder.o(i.__mathlib_dbl_infnan) for __mathlib_dbl_infnan
    sin.o(i.sin) refers to rred.o(i.__ieee754_rem_pio2) for __ieee754_rem_pio2
    sin.o(i.sin) refers to cos_i.o(i.__kernel_cos) for __kernel_cos
    sin.o(i.sin) refers to sin_i.o(i.__kernel_sin) for __kernel_sin
    sin_x.o(i.____softfp_sin$lsc) refers (Special) to usenofp.o(x$fpl$usenofp) for __I$use$fp
    sin_x.o(i.____softfp_sin$lsc) refers to sin_x.o(i.__sin$lsc) for __sin$lsc
    sin_x.o(i.__sin$lsc) refers (Special) to usenofp.o(x$fpl$usenofp) for __I$use$fp
    sin_x.o(i.__sin$lsc) refers to _rserrno.o(.text) for __set_errno
    sin_x.o(i.__sin$lsc) refers to dunder.o(i.__mathlib_dbl_infnan) for __mathlib_dbl_infnan
    sin_x.o(i.__sin$lsc) refers to rred.o(i.__ieee754_rem_pio2) for __ieee754_rem_pio2
    sin_x.o(i.__sin$lsc) refers to cos_i.o(i.__kernel_cos) for __kernel_cos
    sin_x.o(i.__sin$lsc) refers to sin_i.o(i.__kernel_sin) for __kernel_sin
    sqrt.o(i.__softfp_sqrt) refers (Special) to usenofp.o(x$fpl$usenofp) for __I$use$fp
    sqrt.o(i.__softfp_sqrt) refers to dsqrt_noumaal.o(x$fpl$dsqrt) for _dsqrt
    sqrt.o(i.__softfp_sqrt) refers to _rserrno.o(.text) for __set_errno
    sqrt.o(i.sqrt) refers (Special) to usenofp.o(x$fpl$usenofp) for __I$use$fp
    sqrt.o(i.sqrt) refers to dsqrt_noumaal.o(x$fpl$dsqrt) for _dsqrt
    sqrt.o(i.sqrt) refers to _rserrno.o(.text) for __set_errno
    sqrt_x.o(i.____softfp_sqrt$lsc) refers (Special) to usenofp.o(x$fpl$usenofp) for __I$use$fp
    sqrt_x.o(i.____softfp_sqrt$lsc) refers to dleqf.o(x$fpl$dleqf) for __aeabi_cdcmple
    sqrt_x.o(i.____softfp_sqrt$lsc) refers to _rserrno.o(.text) for __set_errno
    sqrt_x.o(i.____softfp_sqrt$lsc) refers to dsqrt_noumaal.o(x$fpl$dsqrt) for _dsqrt
    sqrt_x.o(i.__sqrt$lsc) refers (Special) to usenofp.o(x$fpl$usenofp) for __I$use$fp
    sqrt_x.o(i.__sqrt$lsc) refers to dleqf.o(x$fpl$dleqf) for __aeabi_cdcmple
    sqrt_x.o(i.__sqrt$lsc) refers to _rserrno.o(.text) for __set_errno
    sqrt_x.o(i.__sqrt$lsc) refers to dsqrt_noumaal.o(x$fpl$dsqrt) for _dsqrt
    __rtentry.o(.ARM.Collect$$rtentry$$00000000) refers (Special) to __rtentry2.o(.ARM.Collect$$rtentry$$0000000A) for __rt_entry_li
    __rtentry.o(.ARM.Collect$$rtentry$$00000000) refers (Special) to __rtentry2.o(.ARM.Collect$$rtentry$$0000000D) for __rt_entry_main
    __rtentry.o(.ARM.Collect$$rtentry$$00000000) refers (Special) to __rtentry2.o(.ARM.Collect$$rtentry$$0000000C) for __rt_entry_postli_1
    __rtentry.o(.ARM.Collect$$rtentry$$00000000) refers (Special) to __rtentry2.o(.ARM.Collect$$rtentry$$00000009) for __rt_entry_postsh_1
    __rtentry.o(.ARM.Collect$$rtentry$$00000000) refers (Special) to __rtentry2.o(.ARM.Collect$$rtentry$$00000002) for __rt_entry_presh_1
    __rtentry.o(.ARM.Collect$$rtentry$$00000000) refers (Special) to __rtentry4.o(.ARM.Collect$$rtentry$$00000004) for __rt_entry_sh
    aeabi_ldiv0_sigfpe.o(.text) refers to rt_div0.o(.text) for __rt_div0
    rt_locale.o(.text) refers to rt_locale.o(.bss) for __rt_locale_data
    rt_locale_intlibspace.o(.text) refers to libspace.o(.bss) for __libspace_start
    _rserrno.o(.text) refers to rt_errno_addr_intlibspace.o(.text) for __aeabi_errno_addr
    _printf_char_file.o(.text) refers to _printf_char_common.o(.text) for _printf_char_common
    _printf_char_file.o(.text) refers to ferror.o(.text) for ferror
    _printf_char_file.o(.text) refers to usart.o(.text) for fputc
    _scanf_longlong.o(.text) refers to _chval.o(.text) for _chval
    _scanf_int.o(.text) refers to _chval.o(.text) for _chval
    scanf_char.o(.text) refers to _scanf.o(.text) for __vfscanf
    scanf_char.o(.text) refers to isspace.o(.text) for isspace
    _scanf_mbtowc.o(.text) refers to _mbrtowc.o(.text) for _mbrtowc
    _scanf_wctomb.o(.text) refers to _wcrtomb.o(.text) for _wcrtomb
    _scanf_wctomb.o(.text) refers to _scanf_wcharmap.o(.text) for _scanf_wcharmap
    _scanf_wstr.o(.text) refers to _scanf_wcharmap.o(.text) for _scanf_wcharmap
    lc_ctype_c.o(locale$$data) refers (Special) to libinit2.o(.ARM.Collect$$libinit$$00000012) for __rt_lib_init_lc_ctype_2
    lc_ctype_c.o(locale$$code) refers (Special) to libinit2.o(.ARM.Collect$$libinit$$00000012) for __rt_lib_init_lc_ctype_2
    lc_ctype_c.o(locale$$code) refers to strcmpv7m.o(.text) for strcmp
    lc_ctype_c.o(locale$$code) refers to lc_ctype_c.o(locale$$data) for __lcctype_c_name
    rt_memmove_w.o(.text) refers to rt_memcpy_w.o(.text) for __aeabi_memcpy4
    dcmpi.o(x$fpl$dcmpinf) refers (Special) to usenofp.o(x$fpl$usenofp) for __I$use$fp
    dnaninf.o(x$fpl$dnaninf) refers (Special) to usenofp.o(x$fpl$usenofp) for __I$use$fp
    dretinf.o(x$fpl$dretinf) refers (Special) to usenofp.o(x$fpl$usenofp) for __I$use$fp
    dsqrt_noumaal.o(x$fpl$dsqrt) refers (Special) to usenofp.o(x$fpl$usenofp) for __I$use$fp
    dsqrt_noumaal.o(x$fpl$dsqrt) refers to dnaninf.o(x$fpl$dnaninf) for __fpl_dnaninf
    fcmpi.o(x$fpl$fcmpinf) refers (Special) to usenofp.o(x$fpl$usenofp) for __I$use$fp
    fnaninf.o(x$fpl$fnaninf) refers (Special) to usenofp.o(x$fpl$usenofp) for __I$use$fp
    fretinf.o(x$fpl$fretinf) refers (Special) to usenofp.o(x$fpl$usenofp) for __I$use$fp
    scalbn.o(x$fpl$scalbn) refers (Special) to usenofp.o(x$fpl$usenofp) for __I$use$fp
    scalbn.o(x$fpl$scalbn) refers to dcheck1.o(x$fpl$dcheck1) for __fpl_dcheck_NaN1
    scanf1.o(x$fpl$scanf1) refers to scanf_fp.o(.text) for _scanf_really_real
    cos_i.o(i.__kernel_cos) refers (Special) to usenofp.o(x$fpl$usenofp) for __I$use$fp
    cos_i.o(i.__kernel_cos) refers to dfix.o(x$fpl$dfix) for __aeabi_d2iz
    cos_i.o(i.__kernel_cos) refers to dmul.o(x$fpl$dmul) for __aeabi_dmul
    cos_i.o(i.__kernel_cos) refers to poly.o(i.__kernel_poly) for __kernel_poly
    cos_i.o(i.__kernel_cos) refers to daddsub_clz.o(x$fpl$dsub) for __aeabi_dsub
    cos_i.o(i.__kernel_cos) refers to scalbn.o(x$fpl$scalbn) for __ARM_scalbn
    cos_i.o(i.__kernel_cos) refers to daddsub_clz.o(x$fpl$drsb) for __aeabi_drsub
    cos_i.o(i.__kernel_cos) refers to cos_i.o(.constdata) for .constdata
    cos_i.o(.constdata) refers (Special) to usenofp.o(x$fpl$usenofp) for __I$use$fp
    dunder.o(i.__mathlib_dbl_divzero) refers to ddiv.o(x$fpl$ddiv) for __aeabi_ddiv
    dunder.o(i.__mathlib_dbl_infnan) refers to scalbn.o(x$fpl$scalbn) for __ARM_scalbn
    dunder.o(i.__mathlib_dbl_infnan2) refers to daddsub_clz.o(x$fpl$dadd) for __aeabi_dadd
    dunder.o(i.__mathlib_dbl_invalid) refers to ddiv.o(x$fpl$ddiv) for __aeabi_ddiv
    dunder.o(i.__mathlib_dbl_overflow) refers to scalbn.o(x$fpl$scalbn) for __ARM_scalbn
    dunder.o(i.__mathlib_dbl_posinfnan) refers to dmul.o(x$fpl$dmul) for __aeabi_dmul
    dunder.o(i.__mathlib_dbl_underflow) refers to scalbn.o(x$fpl$scalbn) for __ARM_scalbn
    fpclassify.o(i.__ARM_fpclassify) refers (Special) to usenofp.o(x$fpl$usenofp) for __I$use$fp
    poly.o(i.__kernel_poly) refers (Special) to usenofp.o(x$fpl$usenofp) for __I$use$fp
    poly.o(i.__kernel_poly) refers to dmul.o(x$fpl$dmul) for __aeabi_dmul
    poly.o(i.__kernel_poly) refers to daddsub_clz.o(x$fpl$dadd) for __aeabi_dadd
    qnan.o(.constdata) refers (Special) to usenofp.o(x$fpl$usenofp) for __I$use$fp
    rred.o(i.__ieee754_rem_pio2) refers (Special) to usenofp.o(x$fpl$usenofp) for __I$use$fp
    rred.o(i.__ieee754_rem_pio2) refers to daddsub_clz.o(x$fpl$dsub) for __aeabi_dsub
    rred.o(i.__ieee754_rem_pio2) refers to daddsub_clz.o(x$fpl$dadd) for __aeabi_dadd
    rred.o(i.__ieee754_rem_pio2) refers to dmul.o(x$fpl$dmul) for __aeabi_dmul
    rred.o(i.__ieee754_rem_pio2) refers to dfix.o(x$fpl$dfix) for __aeabi_d2iz
    rred.o(i.__ieee754_rem_pio2) refers to dflt_clz.o(x$fpl$dflt) for __aeabi_i2d
    rred.o(i.__ieee754_rem_pio2) refers to daddsub_clz.o(x$fpl$drsb) for __aeabi_drsub
    rred.o(i.__ieee754_rem_pio2) refers to dflt_clz.o(x$fpl$dfltu) for __aeabi_ui2d
    rred.o(i.__ieee754_rem_pio2) refers to scalbn.o(x$fpl$scalbn) for __ARM_scalbn
    rred.o(i.__ieee754_rem_pio2) refers to rred.o(.constdata) for .constdata
    rred.o(i.__use_accurate_range_reduction) refers (Special) to usenofp.o(x$fpl$usenofp) for __I$use$fp
    rred.o(.constdata) refers (Special) to usenofp.o(x$fpl$usenofp) for __I$use$fp
    sin_i.o(i.__kernel_sin) refers (Special) to usenofp.o(x$fpl$usenofp) for __I$use$fp
    sin_i.o(i.__kernel_sin) refers to fpclassify.o(i.__ARM_fpclassify) for __ARM_fpclassify
    sin_i.o(i.__kernel_sin) refers to dunder.o(i.__mathlib_dbl_underflow) for __mathlib_dbl_underflow
    sin_i.o(i.__kernel_sin) refers to dmul.o(x$fpl$dmul) for __aeabi_dmul
    sin_i.o(i.__kernel_sin) refers to poly.o(i.__kernel_poly) for __kernel_poly
    sin_i.o(i.__kernel_sin) refers to scalbn.o(x$fpl$scalbn) for __ARM_scalbn
    sin_i.o(i.__kernel_sin) refers to daddsub_clz.o(x$fpl$dsub) for __aeabi_dsub
    sin_i.o(i.__kernel_sin) refers to daddsub_clz.o(x$fpl$drsb) for __aeabi_drsub
    sin_i.o(i.__kernel_sin) refers to daddsub_clz.o(x$fpl$dadd) for __aeabi_dadd
    sin_i.o(i.__kernel_sin) refers to sin_i.o(.constdata) for .constdata
    sin_i.o(.constdata) refers (Special) to usenofp.o(x$fpl$usenofp) for __I$use$fp
    sin_i_x.o(i.____kernel_sin$lsc) refers (Special) to usenofp.o(x$fpl$usenofp) for __I$use$fp
    sin_i_x.o(i.____kernel_sin$lsc) refers to dmul.o(x$fpl$dmul) for __aeabi_dmul
    sin_i_x.o(i.____kernel_sin$lsc) refers to poly.o(i.__kernel_poly) for __kernel_poly
    sin_i_x.o(i.____kernel_sin$lsc) refers to scalbn.o(x$fpl$scalbn) for __ARM_scalbn
    sin_i_x.o(i.____kernel_sin$lsc) refers to daddsub_clz.o(x$fpl$dsub) for __aeabi_dsub
    sin_i_x.o(i.____kernel_sin$lsc) refers to daddsub_clz.o(x$fpl$drsb) for __aeabi_drsub
    sin_i_x.o(i.____kernel_sin$lsc) refers to daddsub_clz.o(x$fpl$dadd) for __aeabi_dadd
    sin_i_x.o(i.____kernel_sin$lsc) refers to sin_i_x.o(.constdata) for .constdata
    sin_i_x.o(.constdata) refers (Special) to usenofp.o(x$fpl$usenofp) for __I$use$fp
    libspace.o(.text) refers to libspace.o(.bss) for __libspace_start
    __rtentry2.o(.ARM.Collect$$rtentry$$00000008) refers to boardinit2.o(.text) for _platform_post_stackheap_init
    __rtentry2.o(.ARM.Collect$$rtentry$$0000000A) refers to libinit.o(.ARM.Collect$$libinit$$00000000) for __rt_lib_init
    __rtentry2.o(.ARM.Collect$$rtentry$$0000000B) refers to boardinit3.o(.text) for _platform_post_lib_init
    __rtentry2.o(.ARM.Collect$$rtentry$$0000000D) refers to main.o(.text) for main
    __rtentry2.o(.ARM.Collect$$rtentry$$0000000D) refers to exit.o(.text) for exit
    __rtentry2.o(.ARM.exidx) refers to __rtentry2.o(.ARM.Collect$$rtentry$$00000001) for .ARM.Collect$$rtentry$$00000001
    __rtentry2.o(.ARM.exidx) refers to __rtentry2.o(.ARM.Collect$$rtentry$$00000008) for .ARM.Collect$$rtentry$$00000008
    __rtentry2.o(.ARM.exidx) refers to __rtentry2.o(.ARM.Collect$$rtentry$$0000000A) for .ARM.Collect$$rtentry$$0000000A
    __rtentry2.o(.ARM.exidx) refers to __rtentry2.o(.ARM.Collect$$rtentry$$0000000B) for .ARM.Collect$$rtentry$$0000000B
    __rtentry2.o(.ARM.exidx) refers to __rtentry2.o(.ARM.Collect$$rtentry$$0000000D) for .ARM.Collect$$rtentry$$0000000D
    __rtentry4.o(.ARM.Collect$$rtentry$$00000004) refers to sys_stackheap_outer.o(.text) for __user_setup_stackheap
    __rtentry4.o(.ARM.exidx) refers to __rtentry4.o(.ARM.Collect$$rtentry$$00000004) for .ARM.Collect$$rtentry$$00000004
    rt_div0.o(.text) refers to defsig_fpe_outer.o(.text) for __rt_SIGFPE
    rt_errno_addr.o(.text) refers to rt_errno_addr.o(.bss) for __aeabi_errno_addr_data
    rt_errno_addr_intlibspace.o(.text) refers to libspace.o(.bss) for __libspace_start
    isspace.o(.text) refers to rt_ctype_table.o(.text) for __rt_ctype_table
    _printf_char_common.o(.text) refers to __printf.o(.text) for __printf
    _scanf.o(.text) refers (Weak) to scanf1.o(x$fpl$scanf1) for _scanf_real
    _scanf.o(.text) refers (Weak) to _scanf_longlong.o(.text) for _scanf_longlong
    _scanf.o(.text) refers (Weak) to _scanf_int.o(.text) for _scanf_int
    _scanf.o(.text) refers (Weak) to _scanf_wstr.o(.text) for _scanf_wstring
    _scanf.o(.text) refers (Weak) to _scanf_mbtowc.o(.text) for _scanf_mbtowc
    _scanf.o(.text) refers (Weak) to _scanf_str.o(.text) for _scanf_string
    _scanf.o(.text) refers (Weak) to _scanf_wctomb.o(.text) for _scanf_wctomb
    scanf_fp.o(.text) refers (Special) to usenofp.o(x$fpl$usenofp) for __I$use$fp
    scanf_fp.o(.text) refers (Special) to lc_numeric_c.o(locale$$code) for _get_lc_numeric
    scanf_fp.o(.text) refers to rt_errno_addr_intlibspace.o(.text) for __aeabi_errno_addr
    scanf_fp.o(.text) refers to istatus.o(x$fpl$ieeestatus) for __ieee_status
    scanf_fp.o(.text) refers to bigflt0.o(.text) for _btod_etento
    scanf_fp.o(.text) refers to btod.o(CL$$btod_emuld) for _btod_emuld
    scanf_fp.o(.text) refers to btod.o(CL$$btod_edivd) for _btod_edivd
    scanf_fp.o(.text) refers to rt_locale_intlibspace.o(.text) for __rt_locale
    scanf_fp.o(.text) refers to scanf2.o(x$fpl$scanf2) for _scanf_infnan
    scanf_fp.o(.text) refers to __printf_wp.o(i._is_digit) for _is_digit
    scanf_fp.o(.text) refers to fpconst.o(c$$dmax) for __dbl_max
    scanf_fp.o(.text) refers to fpconst.o(c$$dinf) for __huge_val
    scanf_fp.o(.text) refers to narrow.o(i.__mathlib_narrow) for __mathlib_narrow
    _mbrtowc.o(.text) refers to rt_ctype_table.o(.text) for __rt_ctype_table
    _wcrtomb.o(.text) refers to rt_ctype_table.o(.text) for __rt_ctype_table
    libinit2.o(.ARM.Collect$$libinit$$0000000F) refers (Weak) to rt_locale_intlibspace.o(.text) for __rt_locale
    libinit2.o(.ARM.Collect$$libinit$$00000010) refers to libinit2.o(.ARM.Collect$$libinit$$0000000F) for .ARM.Collect$$libinit$$0000000F
    libinit2.o(.ARM.Collect$$libinit$$00000012) refers to libinit2.o(.ARM.Collect$$libinit$$0000000F) for .ARM.Collect$$libinit$$0000000F
    libinit2.o(.ARM.Collect$$libinit$$00000012) refers (Weak) to lc_ctype_c.o(locale$$code) for _get_lc_ctype
    libinit2.o(.ARM.Collect$$libinit$$00000014) refers to libinit2.o(.ARM.Collect$$libinit$$0000000F) for .ARM.Collect$$libinit$$0000000F
    libinit2.o(.ARM.Collect$$libinit$$00000016) refers to libinit2.o(.ARM.Collect$$libinit$$0000000F) for .ARM.Collect$$libinit$$0000000F
    libinit2.o(.ARM.Collect$$libinit$$00000016) refers (Weak) to lc_numeric_c.o(locale$$code) for _get_lc_numeric
    libinit2.o(.ARM.Collect$$libinit$$00000018) refers to libinit2.o(.ARM.Collect$$libinit$$0000000F) for .ARM.Collect$$libinit$$0000000F
    libinit2.o(.ARM.Collect$$libinit$$00000026) refers to argv_veneer.o(.emb_text) for __ARM_argv_veneer
    libinit2.o(.ARM.Collect$$libinit$$00000027) refers to argv_veneer.o(.emb_text) for __ARM_argv_veneer
    dcheck1.o(x$fpl$dcheck1) refers (Special) to usenofp.o(x$fpl$usenofp) for __I$use$fp
    dcheck1.o(x$fpl$dcheck1) refers to retnan.o(x$fpl$retnan) for __fpl_return_NaN
    sys_stackheap_outer.o(.text) refers to libspace.o(.text) for __user_perproc_libspace
    sys_stackheap_outer.o(.text) refers to startup_stm32f10x_hd.o(.text) for __user_initial_stackheap
    bigflt0.o(.text) refers (Special) to usenofp.o(x$fpl$usenofp) for __I$use$fp
    bigflt0.o(.text) refers to btod.o(CL$$btod_emul) for _btod_emul
    bigflt0.o(.text) refers to btod.o(CL$$btod_ediv) for _btod_ediv
    bigflt0.o(.text) refers to bigflt0.o(.constdata) for .constdata
    bigflt0.o(.constdata) refers (Special) to usenofp.o(x$fpl$usenofp) for __I$use$fp
    btod.o(CL$$btod_d2e) refers (Special) to usenofp.o(x$fpl$usenofp) for __I$use$fp
    btod.o(CL$$btod_d2e) refers to btod.o(CL$$btod_d2e_norm_op1) for _d2e_norm_op1
    btod.o(CL$$btod_d2e_norm_op1) refers (Special) to usenofp.o(x$fpl$usenofp) for __I$use$fp
    btod.o(CL$$btod_d2e_norm_op1) refers to btod.o(CL$$btod_d2e_denorm_low) for _d2e_denorm_low
    btod.o(CL$$btod_d2e_denorm_low) refers (Special) to usenofp.o(x$fpl$usenofp) for __I$use$fp
    btod.o(CL$$btod_emul) refers (Special) to usenofp.o(x$fpl$usenofp) for __I$use$fp
    btod.o(CL$$btod_emul) refers to btod.o(CL$$btod_mult_common) for __btod_mult_common
    btod.o(CL$$btod_emul) refers to btod.o(CL$$btod_e2e) for _e2e
    btod.o(CL$$btod_ediv) refers (Special) to usenofp.o(x$fpl$usenofp) for __I$use$fp
    btod.o(CL$$btod_ediv) refers to btod.o(CL$$btod_div_common) for __btod_div_common
    btod.o(CL$$btod_ediv) refers to btod.o(CL$$btod_e2e) for _e2e
    btod.o(CL$$btod_emuld) refers (Special) to usenofp.o(x$fpl$usenofp) for __I$use$fp
    btod.o(CL$$btod_emuld) refers to btod.o(CL$$btod_mult_common) for __btod_mult_common
    btod.o(CL$$btod_emuld) refers to btod.o(CL$$btod_e2d) for _e2d
    btod.o(CL$$btod_edivd) refers (Special) to usenofp.o(x$fpl$usenofp) for __I$use$fp
    btod.o(CL$$btod_edivd) refers to btod.o(CL$$btod_div_common) for __btod_div_common
    btod.o(CL$$btod_edivd) refers to btod.o(CL$$btod_e2d) for _e2d
    btod.o(CL$$btod_e2e) refers (Special) to usenofp.o(x$fpl$usenofp) for __I$use$fp
    btod.o(CL$$btod_e2d) refers (Special) to usenofp.o(x$fpl$usenofp) for __I$use$fp
    btod.o(CL$$btod_e2d) refers to btod.o(CL$$btod_e2e) for _e2e
    btod.o(CL$$btod_mult_common) refers (Special) to usenofp.o(x$fpl$usenofp) for __I$use$fp
    btod.o(CL$$btod_div_common) refers (Special) to usenofp.o(x$fpl$usenofp) for __I$use$fp
    lc_numeric_c.o(locale$$data) refers (Special) to libinit2.o(.ARM.Collect$$libinit$$00000016) for __rt_lib_init_lc_numeric_2
    lc_numeric_c.o(locale$$code) refers (Special) to libinit2.o(.ARM.Collect$$libinit$$00000016) for __rt_lib_init_lc_numeric_2
    lc_numeric_c.o(locale$$code) refers to strcmpv7m.o(.text) for strcmp
    lc_numeric_c.o(locale$$code) refers to lc_numeric_c.o(locale$$data) for __lcnum_c_name
    exit.o(.text) refers to rtexit.o(.ARM.Collect$$rtexit$$00000000) for __rt_exit
    defsig_fpe_outer.o(.text) refers to defsig_fpe_inner.o(.text) for __rt_SIGFPE_inner
    defsig_fpe_outer.o(.text) refers to defsig_exit.o(.text) for __sig_exit
    defsig_fpe_formal.o(.text) refers to rt_raise.o(.text) for __rt_raise
    argv_veneer.o(.emb_text) refers to no_argv.o(.text) for __ARM_get_argv
    libinit.o(.ARM.Collect$$libinit$$00000000) refers (Special) to libinit2.o(.ARM.Collect$$libinit$$0000002E) for __rt_lib_init_alloca_1
    libinit.o(.ARM.Collect$$libinit$$00000000) refers (Special) to libinit2.o(.ARM.Collect$$libinit$$0000002C) for __rt_lib_init_argv_1
    libinit.o(.ARM.Collect$$libinit$$00000000) refers (Special) to libinit2.o(.ARM.Collect$$libinit$$0000001B) for __rt_lib_init_atexit_1
    libinit.o(.ARM.Collect$$libinit$$00000000) refers (Special) to libinit2.o(.ARM.Collect$$libinit$$00000021) for __rt_lib_init_clock_1
    libinit.o(.ARM.Collect$$libinit$$00000000) refers (Special) to libinit2.o(.ARM.Collect$$libinit$$00000032) for __rt_lib_init_cpp_1
    libinit.o(.ARM.Collect$$libinit$$00000000) refers (Special) to libinit2.o(.ARM.Collect$$libinit$$00000030) for __rt_lib_init_exceptions_1
    libinit.o(.ARM.Collect$$libinit$$00000000) refers (Special) to libinit2.o(.ARM.Collect$$libinit$$00000002) for __rt_lib_init_fp_1
    libinit.o(.ARM.Collect$$libinit$$00000000) refers (Special) to libinit2.o(.ARM.Collect$$libinit$$0000001F) for __rt_lib_init_fp_trap_1
    libinit.o(.ARM.Collect$$libinit$$00000000) refers (Special) to libinit2.o(.ARM.Collect$$libinit$$00000023) for __rt_lib_init_getenv_1
    libinit.o(.ARM.Collect$$libinit$$00000000) refers (Special) to libinit2.o(.ARM.Collect$$libinit$$0000000A) for __rt_lib_init_heap_1
    libinit.o(.ARM.Collect$$libinit$$00000000) refers (Special) to libinit2.o(.ARM.Collect$$libinit$$00000011) for __rt_lib_init_lc_collate_1
    libinit.o(.ARM.Collect$$libinit$$00000000) refers (Special) to libinit2.o(.ARM.Collect$$libinit$$00000013) for __rt_lib_init_lc_ctype_1
    libinit.o(.ARM.Collect$$libinit$$00000000) refers (Special) to libinit2.o(.ARM.Collect$$libinit$$00000015) for __rt_lib_init_lc_monetary_1
    libinit.o(.ARM.Collect$$libinit$$00000000) refers (Special) to libinit2.o(.ARM.Collect$$libinit$$00000017) for __rt_lib_init_lc_numeric_1
    libinit.o(.ARM.Collect$$libinit$$00000000) refers (Special) to libinit2.o(.ARM.Collect$$libinit$$00000019) for __rt_lib_init_lc_time_1
    libinit.o(.ARM.Collect$$libinit$$00000000) refers (Special) to libinit2.o(.ARM.Collect$$libinit$$00000004) for __rt_lib_init_preinit_1
    libinit.o(.ARM.Collect$$libinit$$00000000) refers (Special) to libinit2.o(.ARM.Collect$$libinit$$0000000E) for __rt_lib_init_rand_1
    libinit.o(.ARM.Collect$$libinit$$00000000) refers (Special) to libinit2.o(.ARM.Collect$$libinit$$00000033) for __rt_lib_init_return
    libinit.o(.ARM.Collect$$libinit$$00000000) refers (Special) to libinit2.o(.ARM.Collect$$libinit$$0000001D) for __rt_lib_init_signal_1
    libinit.o(.ARM.Collect$$libinit$$00000000) refers (Special) to libinit2.o(.ARM.Collect$$libinit$$00000025) for __rt_lib_init_stdio_1
    libinit.o(.ARM.Collect$$libinit$$00000000) refers (Special) to libinit2.o(.ARM.Collect$$libinit$$0000000C) for __rt_lib_init_user_alloc_1
    fpconst.o(c$$dinf) refers (Special) to usenofp.o(x$fpl$usenofp) for __I$use$fp
    fpconst.o(c$$dnan) refers (Special) to usenofp.o(x$fpl$usenofp) for __I$use$fp
    fpconst.o(c$$finf) refers (Special) to usenofp.o(x$fpl$usenofp) for __I$use$fp
    fpconst.o(c$$dmax) refers (Special) to usenofp.o(x$fpl$usenofp) for __I$use$fp
    istatus.o(x$fpl$ieeestatus) refers (Special) to usenofp.o(x$fpl$usenofp) for __I$use$fp
    retnan.o(x$fpl$retnan) refers (Special) to usenofp.o(x$fpl$usenofp) for __I$use$fp
    retnan.o(x$fpl$retnan) refers to trapv.o(x$fpl$trapveneer) for __fpl_cmpreturn
    scanf2.o(x$fpl$scanf2) refers to scanf_hexfp.o(.text) for _scanf_really_hex_real
    scanf2.o(x$fpl$scanf2) refers to scanf_infnan.o(.text) for _scanf_really_infnan
    scanf2b.o(x$fpl$scanf2) refers to scanf_hexfp.o(.text) for _scanf_really_hex_real
    scanf2b.o(x$fpl$scanf2) refers to scanf_infnan.o(.text) for _scanf_really_infnan
    narrow.o(i.__mathlib_narrow) refers (Special) to usenofp.o(x$fpl$usenofp) for __I$use$fp
    narrow.o(i.__mathlib_narrow) refers to narrow.o(i.__mathlib_tofloat) for __mathlib_tofloat
    narrow.o(i.__mathlib_tofloat) refers (Special) to usenofp.o(x$fpl$usenofp) for __I$use$fp
    narrow.o(i.__mathlib_tofloat) refers to frexp.o(i.frexp) for frexp
    narrow.o(i.__mathlib_tofloat) refers to deqf.o(x$fpl$deqf) for __aeabi_cdcmpeq
    narrow.o(i.__mathlib_tofloat) refers to d2f.o(x$fpl$d2f) for __aeabi_d2f
    narrow.o(i.__mathlib_tofloat) refers to _rserrno.o(.text) for __set_errno
    narrow.o(i.__mathlib_tofloat) refers to drleqf.o(x$fpl$drleqf) for __aeabi_cdrcmple
    narrow.o(i.__softfp___mathlib_tofloat) refers (Special) to usenofp.o(x$fpl$usenofp) for __I$use$fp
    narrow.o(i.__softfp___mathlib_tofloat) refers to narrow.o(i.__mathlib_tofloat) for __mathlib_tofloat
    rtexit.o(.ARM.Collect$$rtexit$$00000000) refers (Special) to rtexit2.o(.ARM.Collect$$rtexit$$00000004) for __rt_exit_exit
    rtexit.o(.ARM.Collect$$rtexit$$00000000) refers (Special) to rtexit2.o(.ARM.Collect$$rtexit$$00000003) for __rt_exit_ls
    rtexit.o(.ARM.Collect$$rtexit$$00000000) refers (Special) to rtexit2.o(.ARM.Collect$$rtexit$$00000002) for __rt_exit_prels_1
    rtexit.o(.ARM.exidx) refers (Special) to rtexit2.o(.ARM.Collect$$rtexit$$00000004) for __rt_exit_exit
    rtexit.o(.ARM.exidx) refers (Special) to rtexit2.o(.ARM.Collect$$rtexit$$00000003) for __rt_exit_ls
    rtexit.o(.ARM.exidx) refers (Special) to rtexit2.o(.ARM.Collect$$rtexit$$00000002) for __rt_exit_prels_1
    rtexit.o(.ARM.exidx) refers to rtexit.o(.ARM.Collect$$rtexit$$00000000) for .ARM.Collect$$rtexit$$00000000
    rt_raise.o(.text) refers to __raise.o(.text) for __raise
    rt_raise.o(.text) refers to usart.o(.text) for _sys_exit
    scanf_hexfp.o(.text) refers to _chval.o(.text) for _chval
    scanf_hexfp.o(.text) refers to llshl.o(.text) for __aeabi_llsl
    scanf_hexfp.o(.text) refers to ldexp.o(i.__support_ldexp) for __support_ldexp
    scanf_hexfp.o(.text) refers to narrow.o(i.__mathlib_narrow) for __mathlib_narrow
    defsig_exit.o(.text) refers to usart.o(.text) for _sys_exit
    defsig_fpe_inner.o(.text) refers to defsig_general.o(.text) for __default_signal_display
    _get_argv_nomalloc.o(.text) refers (Special) to hrguard.o(.text) for __heap_region$guard
    _get_argv_nomalloc.o(.text) refers to defsig_rtmem_outer.o(.text) for __rt_SIGRTMEM
    _get_argv_nomalloc.o(.text) refers to sys_command.o(.text) for _sys_command_string
    trapv.o(x$fpl$trapveneer) refers (Special) to usenofp.o(x$fpl$usenofp) for __I$use$fp
    frexp.o(i.__softfp_frexp) refers (Special) to usenofp.o(x$fpl$usenofp) for __I$use$fp
    frexp.o(i.__softfp_frexp) refers to scalbn.o(x$fpl$scalbn) for __ARM_scalbn
    frexp.o(i.frexp) refers (Special) to usenofp.o(x$fpl$usenofp) for __I$use$fp
    frexp.o(i.frexp) refers to scalbn.o(x$fpl$scalbn) for __ARM_scalbn
    sys_command.o(.text) refers (Special) to use_no_semi.o(.text) for __I$use$semihosting
    sys_command.o(.text) refers (Special) to indicate_semi.o(.text) for __semihosting_library_function
    rtexit2.o(.ARM.Collect$$rtexit$$00000003) refers to libshutdown.o(.ARM.Collect$$libshutdown$$00000000) for __rt_lib_shutdown
    rtexit2.o(.ARM.Collect$$rtexit$$00000004) refers to usart.o(.text) for _sys_exit
    rtexit2.o(.ARM.exidx) refers to rtexit2.o(.ARM.Collect$$rtexit$$00000001) for .ARM.Collect$$rtexit$$00000001
    rtexit2.o(.ARM.exidx) refers to rtexit2.o(.ARM.Collect$$rtexit$$00000003) for .ARM.Collect$$rtexit$$00000003
    rtexit2.o(.ARM.exidx) refers to rtexit2.o(.ARM.Collect$$rtexit$$00000004) for .ARM.Collect$$rtexit$$00000004
    __raise.o(.text) refers to defsig.o(CL$$defsig) for __default_signal_handler
    defsig_general.o(.text) refers to sys_wrch.o(.text) for _ttywrch
    defsig_rtmem_outer.o(.text) refers to defsig_rtmem_inner.o(.text) for __rt_SIGRTMEM_inner
    defsig_rtmem_outer.o(.text) refers to defsig_exit.o(.text) for __sig_exit
    defsig_rtmem_formal.o(.text) refers to rt_raise.o(.text) for __rt_raise
    ldexp.o(i.__softfp_ldexp) refers (Special) to usenofp.o(x$fpl$usenofp) for __I$use$fp
    ldexp.o(i.__softfp_ldexp) refers to ldexp.o(i.ldexp) for ldexp
    ldexp.o(i.__support_ldexp) refers (Special) to usenofp.o(x$fpl$usenofp) for __I$use$fp
    ldexp.o(i.__support_ldexp) refers to ldexp.o(i.ldexp) for ldexp
    ldexp.o(i.ldexp) refers (Special) to usenofp.o(x$fpl$usenofp) for __I$use$fp
    ldexp.o(i.ldexp) refers to deqf.o(x$fpl$deqf) for __aeabi_cdcmpeq
    ldexp.o(i.ldexp) refers to scalbn.o(x$fpl$scalbn) for __ARM_scalbn
    ldexp.o(i.ldexp) refers to _rserrno.o(.text) for __set_errno
    ldexp.o(i.ldexp) refers to dunder.o(i.__mathlib_dbl_underflow) for __mathlib_dbl_underflow
    ldexp.o(i.ldexp) refers to dunder.o(i.__mathlib_dbl_overflow) for __mathlib_dbl_overflow
    ldexp_x.o(i.____softfp_ldexp$lsc) refers (Special) to usenofp.o(x$fpl$usenofp) for __I$use$fp
    ldexp_x.o(i.____softfp_ldexp$lsc) refers to ldexp_x.o(i.__ldexp$lsc) for __ldexp$lsc
    ldexp_x.o(i.____support_ldexp$lsc) refers (Special) to usenofp.o(x$fpl$usenofp) for __I$use$fp
    ldexp_x.o(i.____support_ldexp$lsc) refers to ldexp_x.o(i.__ldexp$lsc) for __ldexp$lsc
    ldexp_x.o(i.__ldexp$lsc) refers (Special) to usenofp.o(x$fpl$usenofp) for __I$use$fp
    ldexp_x.o(i.__ldexp$lsc) refers to deqf.o(x$fpl$deqf) for __aeabi_cdcmpeq
    ldexp_x.o(i.__ldexp$lsc) refers to scalbn.o(x$fpl$scalbn) for __ARM_scalbn
    ldexp_x.o(i.__ldexp$lsc) refers to _rserrno.o(.text) for __set_errno
    ldexp_x.o(i.__ldexp$lsc) refers to qnan.o(.constdata) for __mathlib_zero
    sys_wrch.o(.text) refers (Special) to use_no_semi.o(.text) for __I$use$semihosting
    sys_wrch.o(.text) refers (Special) to indicate_semi.o(.text) for __semihosting_library_function
    defsig_rtmem_inner.o(.text) refers to defsig_general.o(.text) for __default_signal_display
    defsig.o(CL$$defsig) refers to defsig_fpe_inner.o(.text) for __rt_SIGFPE_inner
    defsig.o(CL$$defsig) refers to defsig_rtmem_inner.o(.text) for __rt_SIGRTMEM_inner
    libshutdown.o(.ARM.Collect$$libshutdown$$00000000) refers (Special) to libshutdown2.o(.ARM.Collect$$libshutdown$$00000002) for __rt_lib_shutdown_cpp_1
    libshutdown.o(.ARM.Collect$$libshutdown$$00000000) refers (Special) to libshutdown2.o(.ARM.Collect$$libshutdown$$00000007) for __rt_lib_shutdown_fp_trap_1
    libshutdown.o(.ARM.Collect$$libshutdown$$00000000) refers (Special) to libshutdown2.o(.ARM.Collect$$libshutdown$$0000000F) for __rt_lib_shutdown_heap_1
    libshutdown.o(.ARM.Collect$$libshutdown$$00000000) refers (Special) to libshutdown2.o(.ARM.Collect$$libshutdown$$00000010) for __rt_lib_shutdown_return
    libshutdown.o(.ARM.Collect$$libshutdown$$00000000) refers (Special) to libshutdown2.o(.ARM.Collect$$libshutdown$$0000000A) for __rt_lib_shutdown_signal_1
    libshutdown.o(.ARM.Collect$$libshutdown$$00000000) refers (Special) to libshutdown2.o(.ARM.Collect$$libshutdown$$00000004) for __rt_lib_shutdown_stdio_1
    libshutdown.o(.ARM.Collect$$libshutdown$$00000000) refers (Special) to libshutdown2.o(.ARM.Collect$$libshutdown$$0000000C) for __rt_lib_shutdown_user_alloc_1
    defsig_abrt_inner.o(.text) refers to defsig_general.o(.text) for __default_signal_display
    defsig_rtred_inner.o(.text) refers to defsig_general.o(.text) for __default_signal_display
    defsig_stak_inner.o(.text) refers to defsig_general.o(.text) for __default_signal_display
    defsig_pvfn_inner.o(.text) refers to defsig_general.o(.text) for __default_signal_display
    defsig_cppl_inner.o(.text) refers to defsig_general.o(.text) for __default_signal_display
    defsig_segv_inner.o(.text) refers to defsig_general.o(.text) for __default_signal_display
    defsig_other.o(.text) refers to defsig_general.o(.text) for __default_signal_display


==============================================================================

Removing Unused input sections from the image.

    Removing sys.o(.text), (12 bytes).
    Removing core_cm3.o(.emb_text), (32 bytes).
    Removing stm32f10x_exti.o(.text), (284 bytes).
    Removing stm32f10x_iwdg.o(.text), (64 bytes).
    Removing stm32f10x_wwdg.o(.text), (136 bytes).
    Removing stm32f10x_dma.o(.text), (596 bytes).
    Removing stm32f10x_flash.o(.text), (1468 bytes).
    Removing stm32f10x_sdio.o(.text), (468 bytes).
    Removing lcd_driver.o(.data), (2 bytes).
    Removing velocity.o(.text), (504 bytes).
    Removing input_engine_null.o(.text), (224 bytes).
    Removing easing.o(.text), (2404 bytes).
    Removing easing.o(.constdata), (96 bytes).
    Removing glyph_cache.o(.text), (382 bytes).
    Removing line_break.o(.text), (76 bytes).
    Removing line_break.o(.constwstring), (44 bytes).
    Removing line_break.o(.data), (4 bytes).
    Removing matrix.o(.text), (1176 bytes).
    Removing rom_fs.o(.text), (270 bytes).
    Removing suggest_words.o(.text), (412 bytes).
    Removing vgcanvas.o(.text), (1976 bytes).
    Removing widget_animator.o(.text), (704 bytes).
    Removing widget_animator_move.o(.text), (224 bytes).
    Removing widget_animator_opacity.o(.text), (184 bytes).
    Removing widget_animator_rotation.o(.text), (184 bytes).
    Removing widget_animator_scale.o(.text), (240 bytes).
    Removing widget_animator_scroll.o(.text), (288 bytes).
    Removing widget_animator_value.o(.text), (184 bytes).
    Removing ui_binary_writer.o(.text), (156 bytes).
    Removing ui_loader_xml.o(.text), (448 bytes).
    Removing ui_loader_xml.o(.constdata), (4 bytes).
    Removing ui_serializer.o(.text), (696 bytes).
    Removing ui_xml_writer.o(.text), (980 bytes).
    Removing xml_builder.o(.text), (266 bytes).
    Removing xml_parser.o(.text), (1624 bytes).

35 unused section(s) (total 16812 bytes) removed from the image.

==============================================================================

Image Symbol Table

    Local Symbols

    Symbol Name                              Value     Ov Type        Size  Object(Section)

    ../clib/angel/boardlib.s                 0x00000000   Number         0  boardinit3.o ABSOLUTE
    ../clib/angel/boardlib.s                 0x00000000   Number         0  boardinit2.o ABSOLUTE
    ../clib/angel/boardlib.s                 0x00000000   Number         0  boardinit1.o ABSOLUTE
    ../clib/angel/boardlib.s                 0x00000000   Number         0  boardshut.o ABSOLUTE
    ../clib/angel/dclz77c.s                  0x00000000   Number         0  __dclz77c.o ABSOLUTE
    ../clib/angel/handlers.s                 0x00000000   Number         0  __scatter_zi.o ABSOLUTE
    ../clib/angel/kernel.s                   0x00000000   Number         0  __rtentry.o ABSOLUTE
    ../clib/angel/kernel.s                   0x00000000   Number         0  __rtentry2.o ABSOLUTE
    ../clib/angel/kernel.s                   0x00000000   Number         0  rtexit2.o ABSOLUTE
    ../clib/angel/kernel.s                   0x00000000   Number         0  __rtentry4.o ABSOLUTE
    ../clib/angel/kernel.s                   0x00000000   Number         0  rtexit.o ABSOLUTE
    ../clib/angel/rt.s                       0x00000000   Number         0  aeabi_ldiv0_sigfpe.o ABSOLUTE
    ../clib/angel/rt.s                       0x00000000   Number         0  rt_raise.o ABSOLUTE
    ../clib/angel/rt.s                       0x00000000   Number         0  rt_locale_intlibspace.o ABSOLUTE
    ../clib/angel/rt.s                       0x00000000   Number         0  rt_errno_addr.o ABSOLUTE
    ../clib/angel/rt.s                       0x00000000   Number         0  rt_ctype_table.o ABSOLUTE
    ../clib/angel/rt.s                       0x00000000   Number         0  rt_errno_addr_intlibspace.o ABSOLUTE
    ../clib/angel/rt.s                       0x00000000   Number         0  rt_locale.o ABSOLUTE
    ../clib/angel/rt.s                       0x00000000   Number         0  aeabi_ldiv0.o ABSOLUTE
    ../clib/angel/rt.s                       0x00000000   Number         0  rt_div0.o ABSOLUTE
    ../clib/angel/scatter.s                  0x00000000   Number         0  __scatter.o ABSOLUTE
    ../clib/angel/startup.s                  0x00000000   Number         0  __main.o ABSOLUTE
    ../clib/angel/sys.s                      0x00000000   Number         0  use_no_semi_2.o ABSOLUTE
    ../clib/angel/sys.s                      0x00000000   Number         0  libspace.o ABSOLUTE
    ../clib/angel/sys.s                      0x00000000   Number         0  indicate_semi.o ABSOLUTE
    ../clib/angel/sys.s                      0x00000000   Number         0  use_no_semi.o ABSOLUTE
    ../clib/angel/sys.s                      0x00000000   Number         0  sys_stackheap_outer.o ABSOLUTE
    ../clib/angel/sysapp.c                   0x00000000   Number         0  sys_wrch.o ABSOLUTE
    ../clib/angel/sysapp.c                   0x00000000   Number         0  sys_command.o ABSOLUTE
    ../clib/armsys.c                         0x00000000   Number         0  argv_veneer.o ABSOLUTE
    ../clib/armsys.c                         0x00000000   Number         0  no_argv.o ABSOLUTE
    ../clib/armsys.c                         0x00000000   Number         0  _get_argv_nomalloc.o ABSOLUTE
    ../clib/armsys.c                         0x00000000   Number         0  argv_veneer.o ABSOLUTE
    ../clib/bigflt.c                         0x00000000   Number         0  bigflt0.o ABSOLUTE
    ../clib/btod.s                           0x00000000   Number         0  btod.o ABSOLUTE
    ../clib/ctype.c                          0x00000000   Number         0  isspace.o ABSOLUTE
    ../clib/ctype.c                          0x00000000   Number         0  toupper.o ABSOLUTE
    ../clib/ctype.c                          0x00000000   Number         0  tolower.o ABSOLUTE
    ../clib/fenv.c                           0x00000000   Number         0  _rserrno.o ABSOLUTE
    ../clib/heapalloc.c                      0x00000000   Number         0  hrguard.o ABSOLUTE
    ../clib/heapaux.c                        0x00000000   Number         0  heapauxi.o ABSOLUTE
    ../clib/libinit.s                        0x00000000   Number         0  libshutdown.o ABSOLUTE
    ../clib/libinit.s                        0x00000000   Number         0  libinit2.o ABSOLUTE
    ../clib/libinit.s                        0x00000000   Number         0  libshutdown2.o ABSOLUTE
    ../clib/libinit.s                        0x00000000   Number         0  libinit.o ABSOLUTE
    ../clib/locale.c                         0x00000000   Number         0  _mbrtowc.o ABSOLUTE
    ../clib/locale.c                         0x00000000   Number         0  _wcrtomb.o ABSOLUTE
    ../clib/locale.s                         0x00000000   Number         0  lc_ctype_c.o ABSOLUTE
    ../clib/locale.s                         0x00000000   Number         0  lc_numeric_c.o ABSOLUTE
    ../clib/longlong.s                       0x00000000   Number         0  lludivv7m.o ABSOLUTE
    ../clib/longlong.s                       0x00000000   Number         0  llsdiv.o ABSOLUTE
    ../clib/longlong.s                       0x00000000   Number         0  llushr.o ABSOLUTE
    ../clib/longlong.s                       0x00000000   Number         0  llshl.o ABSOLUTE
    ../clib/memcpset.s                       0x00000000   Number         0  rt_memmove_w.o ABSOLUTE
    ../clib/memcpset.s                       0x00000000   Number         0  rt_memclr.o ABSOLUTE
    ../clib/memcpset.s                       0x00000000   Number         0  rt_memmove_v6.o ABSOLUTE
    ../clib/memcpset.s                       0x00000000   Number         0  rt_memcpy_w.o ABSOLUTE
    ../clib/memcpset.s                       0x00000000   Number         0  rt_memcpy_v6.o ABSOLUTE
    ../clib/memcpset.s                       0x00000000   Number         0  strcmpv7m.o ABSOLUTE
    ../clib/memcpset.s                       0x00000000   Number         0  strncpy.o ABSOLUTE
    ../clib/memcpset.s                       0x00000000   Number         0  rt_memclr_w.o ABSOLUTE
    ../clib/printf.c                         0x00000000   Number         0  __printf_ss.o ABSOLUTE
    ../clib/printf.c                         0x00000000   Number         0  __printf_nopercent.o ABSOLUTE
    ../clib/printf.c                         0x00000000   Number         0  __printf_wp.o ABSOLUTE
    ../clib/printf.c                         0x00000000   Number         0  __printf_flags_wp.o ABSOLUTE
    ../clib/printf.c                         0x00000000   Number         0  __printf_ss_wp.o ABSOLUTE
    ../clib/printf.c                         0x00000000   Number         0  __printf_flags_ss.o ABSOLUTE
    ../clib/printf.c                         0x00000000   Number         0  __printf_flags_ss_wp.o ABSOLUTE
    ../clib/printf.c                         0x00000000   Number         0  _printf_intcommon.o ABSOLUTE
    ../clib/printf.c                         0x00000000   Number         0  _printf_char_file.o ABSOLUTE
    ../clib/printf.c                         0x00000000   Number         0  _printf_char_common.o ABSOLUTE
    ../clib/printf.c                         0x00000000   Number         0  noretval__2printf.o ABSOLUTE
    ../clib/printf.c                         0x00000000   Number         0  __2printf.o ABSOLUTE
    ../clib/printf.c                         0x00000000   Number         0  _printf_dec.o ABSOLUTE
    ../clib/printf.c                         0x00000000   Number         0  __printf_flags.o ABSOLUTE
    ../clib/printf.c                         0x00000000   Number         0  __printf.o ABSOLUTE
    ../clib/printf_percent.s                 0x00000000   Number         0  _printf_percent.o ABSOLUTE
    ../clib/printf_percent.s                 0x00000000   Number         0  _printf_d.o ABSOLUTE
    ../clib/printf_percent.s                 0x00000000   Number         0  _printf_percent_end.o ABSOLUTE
    ../clib/scanf.c                          0x00000000   Number         0  _scanf_longlong.o ABSOLUTE
    ../clib/scanf.c                          0x00000000   Number         0  scanf_hexfp.o ABSOLUTE
    ../clib/scanf.c                          0x00000000   Number         0  _scanf_int.o ABSOLUTE
    ../clib/scanf.c                          0x00000000   Number         0  vsscanf.o ABSOLUTE
    ../clib/scanf.c                          0x00000000   Number         0  _sgetc.o ABSOLUTE
    ../clib/scanf.c                          0x00000000   Number         0  _chval.o ABSOLUTE
    ../clib/scanf.c                          0x00000000   Number         0  _scanf.o ABSOLUTE
    ../clib/scanf.c                          0x00000000   Number         0  scanf_char.o ABSOLUTE
    ../clib/scanf.c                          0x00000000   Number         0  _scanf_mbtowc.o ABSOLUTE
    ../clib/scanf.c                          0x00000000   Number         0  _scanf_wctomb.o ABSOLUTE
    ../clib/scanf.c                          0x00000000   Number         0  _scanf_wstr.o ABSOLUTE
    ../clib/scanf.c                          0x00000000   Number         0  _scanf_wcharmap.o ABSOLUTE
    ../clib/scanf.c                          0x00000000   Number         0  scanf_infnan.o ABSOLUTE
    ../clib/scanf.c                          0x00000000   Number         0  scanf_fp.o ABSOLUTE
    ../clib/scanf.c                          0x00000000   Number         0  _scanf_str.o ABSOLUTE
    ../clib/signal.c                         0x00000000   Number         0  defsig_segv_inner.o ABSOLUTE
    ../clib/signal.c                         0x00000000   Number         0  defsig_rtmem_inner.o ABSOLUTE
    ../clib/signal.c                         0x00000000   Number         0  defsig_pvfn_inner.o ABSOLUTE
    ../clib/signal.c                         0x00000000   Number         0  defsig_stak_inner.o ABSOLUTE
    ../clib/signal.c                         0x00000000   Number         0  defsig_rtred_inner.o ABSOLUTE
    ../clib/signal.c                         0x00000000   Number         0  defsig_abrt_inner.o ABSOLUTE
    ../clib/signal.c                         0x00000000   Number         0  defsig_cppl_inner.o ABSOLUTE
    ../clib/signal.c                         0x00000000   Number         0  defsig_fpe_formal.o ABSOLUTE
    ../clib/signal.c                         0x00000000   Number         0  defsig_fpe_outer.o ABSOLUTE
    ../clib/signal.c                         0x00000000   Number         0  defsig_rtmem_formal.o ABSOLUTE
    ../clib/signal.c                         0x00000000   Number         0  defsig_rtmem_outer.o ABSOLUTE
    ../clib/signal.c                         0x00000000   Number         0  defsig_other.o ABSOLUTE
    ../clib/signal.c                         0x00000000   Number         0  defsig_fpe_inner.o ABSOLUTE
    ../clib/signal.c                         0x00000000   Number         0  __raise.o ABSOLUTE
    ../clib/signal.c                         0x00000000   Number         0  defsig_general.o ABSOLUTE
    ../clib/signal.c                         0x00000000   Number         0  defsig_exit.o ABSOLUTE
    ../clib/signal.s                         0x00000000   Number         0  defsig.o ABSOLUTE
    ../clib/stdio.c                          0x00000000   Number         0  ferror_locked.o ABSOLUTE
    ../clib/stdio.c                          0x00000000   Number         0  ferror.o ABSOLUTE
    ../clib/stdlib.c                         0x00000000   Number         0  bsearchnoex.o ABSOLUTE
    ../clib/stdlib.c                         0x00000000   Number         0  exit.o ABSOLUTE
    ../clib/string.c                         0x00000000   Number         0  strlen.o ABSOLUTE
    ../clib/string.c                         0x00000000   Number         0  strrchr.o ABSOLUTE
    ../clib/string.c                         0x00000000   Number         0  strcpy.o ABSOLUTE
    ../clib/string.c                         0x00000000   Number         0  strstr.o ABSOLUTE
    ../clib/string.c                         0x00000000   Number         0  strchr.o ABSOLUTE
    ../clib/string.c                         0x00000000   Number         0  memcmp.o ABSOLUTE
    ../clib/string.c                         0x00000000   Number         0  strncmp.o ABSOLUTE
    ../clib/string.c                         0x00000000   Number         0  wcslen.o ABSOLUTE
    ../clib/string.c                         0x00000000   Number         0  wcschr.o ABSOLUTE
    ../clib/string.c                         0x00000000   Number         0  wcscmp.o ABSOLUTE
    ../clib/string.c                         0x00000000   Number         0  wcscpy.o ABSOLUTE
    ../fplib/d2f.s                           0x00000000   Number         0  d2f.o ABSOLUTE
    ../fplib/daddsub.s                       0x00000000   Number         0  daddsub_clz.o ABSOLUTE
    ../fplib/dcheck1.s                       0x00000000   Number         0  dcheck1.o ABSOLUTE
    ../fplib/dcmpi.s                         0x00000000   Number         0  dcmpi.o ABSOLUTE
    ../fplib/ddiv.s                          0x00000000   Number         0  ddiv.o ABSOLUTE
    ../fplib/deqf.s                          0x00000000   Number         0  deqf.o ABSOLUTE
    ../fplib/dfix.s                          0x00000000   Number         0  dfix.o ABSOLUTE
    ../fplib/dfixll.s                        0x00000000   Number         0  dfixll.o ABSOLUTE
    ../fplib/dfixu.s                         0x00000000   Number         0  dfixu.o ABSOLUTE
    ../fplib/dflt.s                          0x00000000   Number         0  dflt_clz.o ABSOLUTE
    ../fplib/dfltll.s                        0x00000000   Number         0  dfltll_clz.o ABSOLUTE
    ../fplib/dleqf.s                         0x00000000   Number         0  dleqf.o ABSOLUTE
    ../fplib/dmul.s                          0x00000000   Number         0  dmul.o ABSOLUTE
    ../fplib/dnaninf.s                       0x00000000   Number         0  dnaninf.o ABSOLUTE
    ../fplib/dretinf.s                       0x00000000   Number         0  dretinf.o ABSOLUTE
    ../fplib/drleqf.s                        0x00000000   Number         0  drleqf.o ABSOLUTE
    ../fplib/dsqrt.s                         0x00000000   Number         0  dsqrt_noumaal.o ABSOLUTE
    ../fplib/f2d.s                           0x00000000   Number         0  f2d.o ABSOLUTE
    ../fplib/faddsub.s                       0x00000000   Number         0  faddsub_clz.o ABSOLUTE
    ../fplib/fcmpi.s                         0x00000000   Number         0  fcmpi.o ABSOLUTE
    ../fplib/fdiv.s                          0x00000000   Number         0  fdiv.o ABSOLUTE
    ../fplib/feqf.s                          0x00000000   Number         0  feqf.o ABSOLUTE
    ../fplib/ffix.s                          0x00000000   Number         0  ffix.o ABSOLUTE
    ../fplib/ffixu.s                         0x00000000   Number         0  ffixu.o ABSOLUTE
    ../fplib/fflt.s                          0x00000000   Number         0  fflt_clz.o ABSOLUTE
    ../fplib/ffltll.s                        0x00000000   Number         0  ffltll_clz.o ABSOLUTE
    ../fplib/fleqf.s                         0x00000000   Number         0  fleqf.o ABSOLUTE
    ../fplib/fmul.s                          0x00000000   Number         0  fmul.o ABSOLUTE
    ../fplib/fnaninf.s                       0x00000000   Number         0  fnaninf.o ABSOLUTE
    ../fplib/fpconst.s                       0x00000000   Number         0  fpconst.o ABSOLUTE
    ../fplib/fpinit.s                        0x00000000   Number         0  fpinit.o ABSOLUTE
    ../fplib/fretinf.s                       0x00000000   Number         0  fretinf.o ABSOLUTE
    ../fplib/frleqf.s                        0x00000000   Number         0  frleqf.o ABSOLUTE
    ../fplib/istatus.s                       0x00000000   Number         0  istatus.o ABSOLUTE
    ../fplib/retnan.s                        0x00000000   Number         0  retnan.o ABSOLUTE
    ../fplib/scalbn.s                        0x00000000   Number         0  scalbn.o ABSOLUTE
    ../fplib/scanf1.s                        0x00000000   Number         0  scanf1.o ABSOLUTE
    ../fplib/scanf2.s                        0x00000000   Number         0  scanf2.o ABSOLUTE
    ../fplib/scanf2a.s                       0x00000000   Number         0  scanf2a.o ABSOLUTE
    ../fplib/scanf2b.s                       0x00000000   Number         0  scanf2b.o ABSOLUTE
    ../fplib/trapv.s                         0x00000000   Number         0  trapv.o ABSOLUTE
    ../fplib/usenofp.s                       0x00000000   Number         0  usenofp.o ABSOLUTE
    ../mathlib/cos.c                         0x00000000   Number         0  cos_x.o ABSOLUTE
    ../mathlib/cos.c                         0x00000000   Number         0  cos.o ABSOLUTE
    ../mathlib/cos_i.c                       0x00000000   Number         0  cos_i.o ABSOLUTE
    ../mathlib/dunder.c                      0x00000000   Number         0  dunder.o ABSOLUTE
    ../mathlib/floor.c                       0x00000000   Number         0  floor.o ABSOLUTE
    ../mathlib/fpclassify.c                  0x00000000   Number         0  fpclassify.o ABSOLUTE
    ../mathlib/frexp.c                       0x00000000   Number         0  frexp.o ABSOLUTE
    ../mathlib/ldexp.c                       0x00000000   Number         0  ldexp_x.o ABSOLUTE
    ../mathlib/ldexp.c                       0x00000000   Number         0  ldexp.o ABSOLUTE
    ../mathlib/narrow.c                      0x00000000   Number         0  narrow.o ABSOLUTE
    ../mathlib/poly.c                        0x00000000   Number         0  poly.o ABSOLUTE
    ../mathlib/pow.c                         0x00000000   Number         0  pow.o ABSOLUTE
    ../mathlib/pow.c                         0x00000000   Number         0  pow_x.o ABSOLUTE
    ../mathlib/qnan.c                        0x00000000   Number         0  qnan.o ABSOLUTE
    ../mathlib/rred.c                        0x00000000   Number         0  rred.o ABSOLUTE
    ../mathlib/sin.c                         0x00000000   Number         0  sin.o ABSOLUTE
    ../mathlib/sin.c                         0x00000000   Number         0  sin_x.o ABSOLUTE
    ../mathlib/sin_i.c                       0x00000000   Number         0  sin_i.o ABSOLUTE
    ../mathlib/sin_i.c                       0x00000000   Number         0  sin_i_x.o ABSOLUTE
    ../mathlib/sqrt.c                        0x00000000   Number         0  sqrt.o ABSOLUTE
    ../mathlib/sqrt.c                        0x00000000   Number         0  sqrt_x.o ABSOLUTE
    ..\SYSTEM\sys\sys.c                      0x00000000   Number         0  sys.o ABSOLUTE
    ..\SYSTEM\usart\usart.c                  0x00000000   Number         0  usart.o ABSOLUTE
    ..\\core\\core_cm3.c                     0x00000000   Number         0  core_cm3.o ABSOLUTE
    ..\app\button\button.c                   0x00000000   Number         0  button.o ABSOLUTE
    ..\app\gui\gui.c                         0x00000000   Number         0  gui.o ABSOLUTE
    ..\app\lcd\lcd_driver.c                  0x00000000   Number         0  lcd_driver.o ABSOLUTE
    ..\app\led\led.c                         0x00000000   Number         0  led.o ABSOLUTE
    ..\app\rtc\rtc.c                         0x00000000   Number         0  rtc.o ABSOLUTE
    ..\app\tim\tim.c                         0x00000000   Number         0  tim.o ABSOLUTE
    ..\app\touch\flash.c                     0x00000000   Number         0  flash.o ABSOLUTE
    ..\app\touch\spi.c                       0x00000000   Number         0  spi.o ABSOLUTE
    ..\app\touch\touch.c                     0x00000000   Number         0  touch.o ABSOLUTE
    ..\awtk-port\lcd_stm32_raw.c             0x00000000   Number         0  lcd_stm32_raw.o ABSOLUTE
    ..\awtk-port\main_loop_stm32_raw.c       0x00000000   Number         0  main_loop_stm32_raw.o ABSOLUTE
    ..\awtk-port\platform.c                  0x00000000   Number         0  platform.o ABSOLUTE
    ..\awtk\demos\assets-mini.c              0x00000000   Number         0  assets-mini.o ABSOLUTE
    ..\awtk\demos\demo1_app.c                0x00000000   Number         0  demo1_app.o ABSOLUTE
    ..\awtk\demos\demo_main.c                0x00000000   Number         0  demo_main.o ABSOLUTE
    ..\awtk\src\awtk.c                       0x00000000   Number         0  awtk.o ABSOLUTE
    ..\awtk\src\base\array.c                 0x00000000   Number         0  array.o ABSOLUTE
    ..\awtk\src\base\assets_manager.c        0x00000000   Number         0  assets_manager.o ABSOLUTE
    ..\awtk\src\base\bitmap.c                0x00000000   Number         0  bitmap.o ABSOLUTE
    ..\awtk\src\base\buffer.c                0x00000000   Number         0  buffer.o ABSOLUTE
    ..\awtk\src\base\button.c                0x00000000   Number         0  button_1.o ABSOLUTE
    ..\awtk\src\base\button_group.c          0x00000000   Number         0  button_group.o ABSOLUTE
    ..\awtk\src\base\canvas.c                0x00000000   Number         0  canvas.o ABSOLUTE
    ..\awtk\src\base\check_button.c          0x00000000   Number         0  check_button.o ABSOLUTE
    ..\awtk\src\base\color.c                 0x00000000   Number         0  color.o ABSOLUTE
    ..\awtk\src\base\color_parser.c          0x00000000   Number         0  color_parser.o ABSOLUTE
    ..\awtk\src\base\color_tile.c            0x00000000   Number         0  color_tile.o ABSOLUTE
    ..\awtk\src\base\combo_box.c             0x00000000   Number         0  combo_box.o ABSOLUTE
    ..\awtk\src\base\combo_box_item.c        0x00000000   Number         0  combo_box_item.o ABSOLUTE
    ..\awtk\src\base\custom_props.c          0x00000000   Number         0  custom_props.o ABSOLUTE
    ..\awtk\src\base\dialog.c                0x00000000   Number         0  dialog.o ABSOLUTE
    ..\awtk\src\base\dialog_client.c         0x00000000   Number         0  dialog_client.o ABSOLUTE
    ..\awtk\src\base\dialog_title.c          0x00000000   Number         0  dialog_title.o ABSOLUTE
    ..\awtk\src\base\dragger.c               0x00000000   Number         0  dragger.o ABSOLUTE
    ..\awtk\src\base\easing.c                0x00000000   Number         0  easing.o ABSOLUTE
    ..\awtk\src\base\edit.c                  0x00000000   Number         0  edit.o ABSOLUTE
    ..\awtk\src\base\emitter.c               0x00000000   Number         0  emitter.o ABSOLUTE
    ..\awtk\src\base\enums.c                 0x00000000   Number         0  enums.o ABSOLUTE
    ..\awtk\src\base\event_queue.c           0x00000000   Number         0  event_queue.o ABSOLUTE
    ..\awtk\src\base\events.c                0x00000000   Number         0  events.o ABSOLUTE
    ..\awtk\src\base\font.c                  0x00000000   Number         0  font.o ABSOLUTE
    ..\awtk\src\base\font_manager.c          0x00000000   Number         0  font_manager.o ABSOLUTE
    ..\awtk\src\base\fs.c                    0x00000000   Number         0  fs.o ABSOLUTE
    ..\awtk\src\base\glyph_cache.c           0x00000000   Number         0  glyph_cache.o ABSOLUTE
    ..\awtk\src\base\group_box.c             0x00000000   Number         0  group_box.o ABSOLUTE
    ..\awtk\src\base\idle.c                  0x00000000   Number         0  idle.o ABSOLUTE
    ..\awtk\src\base\image.c                 0x00000000   Number         0  image.o ABSOLUTE
    ..\awtk\src\base\image_loader.c          0x00000000   Number         0  image_loader.o ABSOLUTE
    ..\awtk\src\base\image_manager.c         0x00000000   Number         0  image_manager.o ABSOLUTE
    ..\awtk\src\base\input_engine.c          0x00000000   Number         0  input_engine.o ABSOLUTE
    ..\awtk\src\base\input_method.c          0x00000000   Number         0  input_method.o ABSOLUTE
    ..\awtk\src\base\label.c                 0x00000000   Number         0  label.o ABSOLUTE
    ..\awtk\src\base\layout.c                0x00000000   Number         0  layout.o ABSOLUTE
    ..\awtk\src\base\lcd.c                   0x00000000   Number         0  lcd.o ABSOLUTE
    ..\awtk\src\base\line_break.c            0x00000000   Number         0  line_break.o ABSOLUTE
    ..\awtk\src\base\locale_info.c           0x00000000   Number         0  locale_info.o ABSOLUTE
    ..\awtk\src\base\main_loop.c             0x00000000   Number         0  main_loop.o ABSOLUTE
    ..\awtk\src\base\matrix.c                0x00000000   Number         0  matrix.o ABSOLUTE
    ..\awtk\src\base\mem.c                   0x00000000   Number         0  mem.o ABSOLUTE
    ..\awtk\src\base\pages.c                 0x00000000   Number         0  pages.o ABSOLUTE
    ..\awtk\src\base\path.c                  0x00000000   Number         0  path.o ABSOLUTE
    ..\awtk\src\base\popup.c                 0x00000000   Number         0  popup.o ABSOLUTE
    ..\awtk\src\base\progress_bar.c          0x00000000   Number         0  progress_bar.o ABSOLUTE
    ..\awtk\src\base\rect.c                  0x00000000   Number         0  rect.o ABSOLUTE
    ..\awtk\src\base\rom_fs.c                0x00000000   Number         0  rom_fs.o ABSOLUTE
    ..\awtk\src\base\slider.c                0x00000000   Number         0  slider.o ABSOLUTE
    ..\awtk\src\base\spin_box.c              0x00000000   Number         0  spin_box.o ABSOLUTE
    ..\awtk\src\base\str.c                   0x00000000   Number         0  str.o ABSOLUTE
    ..\awtk\src\base\suggest_words.c         0x00000000   Number         0  suggest_words.o ABSOLUTE
    ..\awtk\src\base\system_info.c           0x00000000   Number         0  system_info.o ABSOLUTE
    ..\awtk\src\base\tab_button.c            0x00000000   Number         0  tab_button.o ABSOLUTE
    ..\awtk\src\base\tab_button_group.c      0x00000000   Number         0  tab_button_group.o ABSOLUTE
    ..\awtk\src\base\tab_control.c           0x00000000   Number         0  tab_control.o ABSOLUTE
    ..\awtk\src\base\theme.c                 0x00000000   Number         0  theme.o ABSOLUTE
    ..\awtk\src\base\time.c                  0x00000000   Number         0  time.o ABSOLUTE
    ..\awtk\src\base\timer.c                 0x00000000   Number         0  timer.o ABSOLUTE
    ..\awtk\src\base\tokenizer.c             0x00000000   Number         0  tokenizer.o ABSOLUTE
    ..\awtk\src\base\ui_builder.c            0x00000000   Number         0  ui_builder.o ABSOLUTE
    ..\awtk\src\base\utf8.c                  0x00000000   Number         0  utf8.o ABSOLUTE
    ..\awtk\src\base\utils.c                 0x00000000   Number         0  utils.o ABSOLUTE
    ..\awtk\src\base\value.c                 0x00000000   Number         0  value.o ABSOLUTE
    ..\awtk\src\base\velocity.c              0x00000000   Number         0  velocity.o ABSOLUTE
    ..\awtk\src\base\vgcanvas.c              0x00000000   Number         0  vgcanvas.o ABSOLUTE
    ..\awtk\src\base\view.c                  0x00000000   Number         0  view.o ABSOLUTE
    ..\awtk\src\base\widget.c                0x00000000   Number         0  widget.o ABSOLUTE
    ..\awtk\src\base\widget_animator.c       0x00000000   Number         0  widget_animator.o ABSOLUTE
    ..\awtk\src\base\widget_factory.c        0x00000000   Number         0  widget_factory.o ABSOLUTE
    ..\awtk\src\base\widget_vtable.c         0x00000000   Number         0  widget_vtable.o ABSOLUTE
    ..\awtk\src\base\window.c                0x00000000   Number         0  window.o ABSOLUTE
    ..\awtk\src\base\window_animator.c       0x00000000   Number         0  window_animator.o ABSOLUTE
    ..\awtk\src\base\window_manager.c        0x00000000   Number         0  window_manager.o ABSOLUTE
    ..\awtk\src\base\wstr.c                  0x00000000   Number         0  wstr.o ABSOLUTE
    ..\awtk\src\font\font_bitmap.c           0x00000000   Number         0  font_bitmap.o ABSOLUTE
    ..\awtk\src\input_engines\input_engine_null.c 0x00000000   Number         0  input_engine_null.o ABSOLUTE
    ..\awtk\src\input_methods\input_method_creator.c 0x00000000   Number         0  input_method_creator.o ABSOLUTE
    ..\awtk\src\main_loop\main_loop_simple.c 0x00000000   Number         0  main_loop_simple.o ABSOLUTE
    ..\awtk\src\platforms\raw\fs_os.c        0x00000000   Number         0  fs_os.o ABSOLUTE
    ..\awtk\src\platforms\raw\mutex_null.c   0x00000000   Number         0  mutex_null.o ABSOLUTE
    ..\awtk\src\platforms\raw\sys_tick.c     0x00000000   Number         0  sys_tick.o ABSOLUTE
    ..\awtk\src\ui_loader\ui_binary_writer.c 0x00000000   Number         0  ui_binary_writer.o ABSOLUTE
    ..\awtk\src\ui_loader\ui_builder_default.c 0x00000000   Number         0  ui_builder_default.o ABSOLUTE
    ..\awtk\src\ui_loader\ui_loader.c        0x00000000   Number         0  ui_loader.o ABSOLUTE
    ..\awtk\src\ui_loader\ui_loader_default.c 0x00000000   Number         0  ui_loader_default.o ABSOLUTE
    ..\awtk\src\ui_loader\ui_loader_xml.c    0x00000000   Number         0  ui_loader_xml.o ABSOLUTE
    ..\awtk\src\ui_loader\ui_serializer.c    0x00000000   Number         0  ui_serializer.o ABSOLUTE
    ..\awtk\src\ui_loader\ui_xml_writer.c    0x00000000   Number         0  ui_xml_writer.o ABSOLUTE
    ..\awtk\src\ui_loader\window_open.c      0x00000000   Number         0  window_open.o ABSOLUTE
    ..\awtk\src\widget_animators\widget_animator_move.c 0x00000000   Number         0  widget_animator_move.o ABSOLUTE
    ..\awtk\src\widget_animators\widget_animator_opacity.c 0x00000000   Number         0  widget_animator_opacity.o ABSOLUTE
    ..\awtk\src\widget_animators\widget_animator_rotation.c 0x00000000   Number         0  widget_animator_rotation.o ABSOLUTE
    ..\awtk\src\widget_animators\widget_animator_scale.c 0x00000000   Number         0  widget_animator_scale.o ABSOLUTE
    ..\awtk\src\widget_animators\widget_animator_scroll.c 0x00000000   Number         0  widget_animator_scroll.o ABSOLUTE
    ..\awtk\src\widget_animators\widget_animator_value.c 0x00000000   Number         0  widget_animator_value.o ABSOLUTE
    ..\awtk\src\window_animators\window_animator_null.c 0x00000000   Number         0  window_animator_null.o ABSOLUTE
    ..\awtk\src\xml\xml_builder.c            0x00000000   Number         0  xml_builder.o ABSOLUTE
    ..\awtk\src\xml\xml_parser.c             0x00000000   Number         0  xml_parser.o ABSOLUTE
    ..\core\core_cm3.c                       0x00000000   Number         0  core_cm3.o ABSOLUTE
    ..\core\startup_stm32f10x_hd.s           0x00000000   Number         0  startup_stm32f10x_hd.o ABSOLUTE
    ..\stm32f10x_fwlib\src\misc.c            0x00000000   Number         0  misc.o ABSOLUTE
    ..\stm32f10x_fwlib\src\stm32f10x_bkp.c   0x00000000   Number         0  stm32f10x_bkp.o ABSOLUTE
    ..\stm32f10x_fwlib\src\stm32f10x_dma.c   0x00000000   Number         0  stm32f10x_dma.o ABSOLUTE
    ..\stm32f10x_fwlib\src\stm32f10x_exti.c  0x00000000   Number         0  stm32f10x_exti.o ABSOLUTE
    ..\stm32f10x_fwlib\src\stm32f10x_flash.c 0x00000000   Number         0  stm32f10x_flash.o ABSOLUTE
    ..\stm32f10x_fwlib\src\stm32f10x_fsmc.c  0x00000000   Number         0  stm32f10x_fsmc.o ABSOLUTE
    ..\stm32f10x_fwlib\src\stm32f10x_gpio.c  0x00000000   Number         0  stm32f10x_gpio.o ABSOLUTE
    ..\stm32f10x_fwlib\src\stm32f10x_iwdg.c  0x00000000   Number         0  stm32f10x_iwdg.o ABSOLUTE
    ..\stm32f10x_fwlib\src\stm32f10x_pwr.c   0x00000000   Number         0  stm32f10x_pwr.o ABSOLUTE
    ..\stm32f10x_fwlib\src\stm32f10x_rcc.c   0x00000000   Number         0  stm32f10x_rcc.o ABSOLUTE
    ..\stm32f10x_fwlib\src\stm32f10x_rtc.c   0x00000000   Number         0  stm32f10x_rtc.o ABSOLUTE
    ..\stm32f10x_fwlib\src\stm32f10x_sdio.c  0x00000000   Number         0  stm32f10x_sdio.o ABSOLUTE
    ..\stm32f10x_fwlib\src\stm32f10x_spi.c   0x00000000   Number         0  stm32f10x_spi.o ABSOLUTE
    ..\stm32f10x_fwlib\src\stm32f10x_tim.c   0x00000000   Number         0  stm32f10x_tim.o ABSOLUTE
    ..\stm32f10x_fwlib\src\stm32f10x_usart.c 0x00000000   Number         0  stm32f10x_usart.o ABSOLUTE
    ..\stm32f10x_fwlib\src\stm32f10x_wwdg.c  0x00000000   Number         0  stm32f10x_wwdg.o ABSOLUTE
    dc.s                                     0x00000000   Number         0  dc.o ABSOLUTE
    main.c                                   0x00000000   Number         0  main.o ABSOLUTE
    stm32f10x_it.c                           0x00000000   Number         0  stm32f10x_it.o ABSOLUTE
    system_stm32f10x.c                       0x00000000   Number         0  system_stm32f10x.o ABSOLUTE
    RESET                                    0x08000000   Section      304  startup_stm32f10x_hd.o(RESET)
    !!!main                                  0x08000130   Section        8  __main.o(!!!main)
    !!!scatter                               0x08000138   Section       52  __scatter.o(!!!scatter)
    !!dclz77c                                0x0800016c   Section      100  __dclz77c.o(!!dclz77c)
    !!handler_zi                             0x080001d0   Section       28  __scatter_zi.o(!!handler_zi)
    .ARM.Collect$$_printf_percent$$00000000  0x080001ec   Section        0  _printf_percent.o(.ARM.Collect$$_printf_percent$$00000000)
    .ARM.Collect$$_printf_percent$$00000009  0x080001ec   Section        6  _printf_d.o(.ARM.Collect$$_printf_percent$$00000009)
    .ARM.Collect$$_printf_percent$$00000017  0x080001f2   Section        4  _printf_percent_end.o(.ARM.Collect$$_printf_percent$$00000017)
    .ARM.Collect$$libinit$$00000000          0x080001f6   Section        2  libinit.o(.ARM.Collect$$libinit$$00000000)
    .ARM.Collect$$libinit$$00000002          0x080001f8   Section        0  libinit2.o(.ARM.Collect$$libinit$$00000002)
    .ARM.Collect$$libinit$$00000004          0x080001f8   Section        0  libinit2.o(.ARM.Collect$$libinit$$00000004)
    .ARM.Collect$$libinit$$0000000A          0x080001f8   Section        0  libinit2.o(.ARM.Collect$$libinit$$0000000A)
    .ARM.Collect$$libinit$$0000000C          0x080001f8   Section        0  libinit2.o(.ARM.Collect$$libinit$$0000000C)
    .ARM.Collect$$libinit$$0000000E          0x080001f8   Section        0  libinit2.o(.ARM.Collect$$libinit$$0000000E)
    .ARM.Collect$$libinit$$0000000F          0x080001f8   Section        6  libinit2.o(.ARM.Collect$$libinit$$0000000F)
    .ARM.Collect$$libinit$$00000011          0x080001fe   Section        0  libinit2.o(.ARM.Collect$$libinit$$00000011)
    .ARM.Collect$$libinit$$00000012          0x080001fe   Section       12  libinit2.o(.ARM.Collect$$libinit$$00000012)
    .ARM.Collect$$libinit$$00000013          0x0800020a   Section        0  libinit2.o(.ARM.Collect$$libinit$$00000013)
    .ARM.Collect$$libinit$$00000015          0x0800020a   Section        0  libinit2.o(.ARM.Collect$$libinit$$00000015)
    .ARM.Collect$$libinit$$00000016          0x0800020a   Section       10  libinit2.o(.ARM.Collect$$libinit$$00000016)
    .ARM.Collect$$libinit$$00000017          0x08000214   Section        0  libinit2.o(.ARM.Collect$$libinit$$00000017)
    .ARM.Collect$$libinit$$00000019          0x08000214   Section        0  libinit2.o(.ARM.Collect$$libinit$$00000019)
    .ARM.Collect$$libinit$$0000001B          0x08000214   Section        0  libinit2.o(.ARM.Collect$$libinit$$0000001B)
    .ARM.Collect$$libinit$$0000001D          0x08000214   Section        0  libinit2.o(.ARM.Collect$$libinit$$0000001D)
    .ARM.Collect$$libinit$$0000001F          0x08000214   Section        0  libinit2.o(.ARM.Collect$$libinit$$0000001F)
    .ARM.Collect$$libinit$$00000021          0x08000214   Section        0  libinit2.o(.ARM.Collect$$libinit$$00000021)
    .ARM.Collect$$libinit$$00000023          0x08000214   Section        0  libinit2.o(.ARM.Collect$$libinit$$00000023)
    .ARM.Collect$$libinit$$00000025          0x08000214   Section        0  libinit2.o(.ARM.Collect$$libinit$$00000025)
    .ARM.Collect$$libinit$$0000002C          0x08000214   Section        0  libinit2.o(.ARM.Collect$$libinit$$0000002C)
    .ARM.Collect$$libinit$$0000002E          0x08000214   Section        0  libinit2.o(.ARM.Collect$$libinit$$0000002E)
    .ARM.Collect$$libinit$$00000030          0x08000214   Section        0  libinit2.o(.ARM.Collect$$libinit$$00000030)
    .ARM.Collect$$libinit$$00000032          0x08000214   Section        0  libinit2.o(.ARM.Collect$$libinit$$00000032)
    .ARM.Collect$$libinit$$00000033          0x08000214   Section        2  libinit2.o(.ARM.Collect$$libinit$$00000033)
    .ARM.Collect$$libshutdown$$00000000      0x08000216   Section        2  libshutdown.o(.ARM.Collect$$libshutdown$$00000000)
    .ARM.Collect$$libshutdown$$00000002      0x08000218   Section        0  libshutdown2.o(.ARM.Collect$$libshutdown$$00000002)
    .ARM.Collect$$libshutdown$$00000004      0x08000218   Section        0  libshutdown2.o(.ARM.Collect$$libshutdown$$00000004)
    .ARM.Collect$$libshutdown$$00000007      0x08000218   Section        0  libshutdown2.o(.ARM.Collect$$libshutdown$$00000007)
    .ARM.Collect$$libshutdown$$0000000A      0x08000218   Section        0  libshutdown2.o(.ARM.Collect$$libshutdown$$0000000A)
    .ARM.Collect$$libshutdown$$0000000C      0x08000218   Section        0  libshutdown2.o(.ARM.Collect$$libshutdown$$0000000C)
    .ARM.Collect$$libshutdown$$0000000F      0x08000218   Section        0  libshutdown2.o(.ARM.Collect$$libshutdown$$0000000F)
    .ARM.Collect$$libshutdown$$00000010      0x08000218   Section        2  libshutdown2.o(.ARM.Collect$$libshutdown$$00000010)
    .ARM.Collect$$rtentry$$00000000          0x0800021a   Section        0  __rtentry.o(.ARM.Collect$$rtentry$$00000000)
    .ARM.Collect$$rtentry$$00000002          0x0800021a   Section        0  __rtentry2.o(.ARM.Collect$$rtentry$$00000002)
    .ARM.Collect$$rtentry$$00000004          0x0800021a   Section        6  __rtentry4.o(.ARM.Collect$$rtentry$$00000004)
    .ARM.Collect$$rtentry$$00000009          0x08000220   Section        0  __rtentry2.o(.ARM.Collect$$rtentry$$00000009)
    .ARM.Collect$$rtentry$$0000000A          0x08000220   Section        4  __rtentry2.o(.ARM.Collect$$rtentry$$0000000A)
    .ARM.Collect$$rtentry$$0000000C          0x08000224   Section        0  __rtentry2.o(.ARM.Collect$$rtentry$$0000000C)
    .ARM.Collect$$rtentry$$0000000D          0x08000224   Section        8  __rtentry2.o(.ARM.Collect$$rtentry$$0000000D)
    .ARM.Collect$$rtexit$$00000000           0x0800022c   Section        2  rtexit.o(.ARM.Collect$$rtexit$$00000000)
    .ARM.Collect$$rtexit$$00000002           0x0800022e   Section        0  rtexit2.o(.ARM.Collect$$rtexit$$00000002)
    .ARM.Collect$$rtexit$$00000003           0x0800022e   Section        4  rtexit2.o(.ARM.Collect$$rtexit$$00000003)
    .ARM.Collect$$rtexit$$00000004           0x08000232   Section        6  rtexit2.o(.ARM.Collect$$rtexit$$00000004)
    .text                                    0x08000238   Section        0  stm32f10x_it.o(.text)
    .text                                    0x08000250   Section        0  system_stm32f10x.o(.text)
    SetSysClockTo72                          0x08000251   Thumb Code   214  system_stm32f10x.o(.text)
    SetSysClock                              0x08000327   Thumb Code     8  system_stm32f10x.o(.text)
    .text                                    0x08000430   Section        0  main.o(.text)
    .text                                    0x08000474   Section        0  usart.o(.text)
    .text                                    0x0800059c   Section       64  startup_stm32f10x_hd.o(.text)
    .text                                    0x080005dc   Section        0  misc.o(.text)
    .text                                    0x080006b8   Section        0  stm32f10x_gpio.o(.text)
    .text                                    0x08000a14   Section        0  stm32f10x_rcc.o(.text)
    .text                                    0x08000db8   Section        0  stm32f10x_usart.o(.text)
    .text                                    0x080011c0   Section        0  stm32f10x_tim.o(.text)
    TI4_Config                               0x08001667   Thumb Code   130  stm32f10x_tim.o(.text)
    TI3_Config                               0x080016fb   Thumb Code   122  stm32f10x_tim.o(.text)
    TI2_Config                               0x0800178f   Thumb Code   130  stm32f10x_tim.o(.text)
    TI1_Config                               0x08001823   Thumb Code   108  stm32f10x_tim.o(.text)
    .text                                    0x08001fdc   Section        0  stm32f10x_fsmc.o(.text)
    .text                                    0x080025e8   Section        0  stm32f10x_bkp.o(.text)
    .text                                    0x080026ac   Section        0  stm32f10x_rtc.o(.text)
    .text                                    0x080027f4   Section        0  stm32f10x_pwr.o(.text)
    .text                                    0x080028c0   Section        0  stm32f10x_spi.o(.text)
    .text                                    0x08002bcc   Section        0  led.o(.text)
    .text                                    0x08002c70   Section        0  lcd_driver.o(.text)
    .text                                    0x08002f28   Section        0  button.o(.text)
    .text                                    0x08003028   Section        0  tim.o(.text)
    .text                                    0x08003264   Section        0  rtc.o(.text)
    .text                                    0x080036c4   Section        0  touch.o(.text)
    .text                                    0x08003b04   Section        0  spi.o(.text)
    .text                                    0x08003ce0   Section        0  gui.o(.text)
    .text                                    0x08004110   Section        0  flash.o(.text)
    FLASH_CheckBusy                          0x080041c7   Thumb Code    84  flash.o(.text)
    FLASH_WriteEnable                        0x08004289   Thumb Code    50  flash.o(.text)
    FLASH_SectorErase                        0x080042bb   Thumb Code    82  flash.o(.text)
    FLASH_WritePage                          0x08004347   Thumb Code   158  flash.o(.text)
    .text                                    0x080044ac   Section        0  array.o(.text)
    array_extend                             0x0800450b   Thumb Code    56  array.o(.text)
    .text                                    0x0800472a   Section        0  bitmap.o(.text)
    .text                                    0x080047fe   Section        0  buffer.o(.text)
    .text                                    0x08004af4   Section        0  button_1.o(.text)
    button_on_paint_self                     0x08004af5   Thumb Code    20  button_1.o(.text)
    button_on_repeat                         0x08004b09   Thumb Code    86  button_1.o(.text)
    button_on_event                          0x08004b5f   Thumb Code   226  button_1.o(.text)
    button_get_prop                          0x08004c51   Thumb Code    66  button_1.o(.text)
    button_set_prop                          0x08004c93   Thumb Code    70  button_1.o(.text)
    button_destroy                           0x08004cd9   Thumb Code    24  button_1.o(.text)
    .text                                    0x08004d50   Section        0  canvas.o(.text)
    canvas_measure_text_default              0x0800599f   Thumb Code   114  canvas.o(.text)
    canvas_draw_hline_impl                   0x08005a7d   Thumb Code   102  canvas.o(.text)
    canvas_draw_vline_impl                   0x08005b09   Thumb Code    92  canvas.o(.text)
    canvas_draw_line_impl                    0x08005b8b   Thumb Code   156  canvas.o(.text)
    canvas_do_draw_points                    0x08005c59   Thumb Code   114  canvas.o(.text)
    canvas_draw_points_impl                  0x08005ccb   Thumb Code    72  canvas.o(.text)
    canvas_fill_rect_impl                    0x08005d8b   Thumb Code   136  canvas.o(.text)
    canvas_stroke_rect_impl                  0x08005e41   Thumb Code   114  canvas.o(.text)
    canvas_draw_glyph                        0x08005ee1   Thumb Code   160  canvas.o(.text)
    canvas_draw_char_impl                    0x08005f81   Thumb Code    62  canvas.o(.text)
    canvas_draw_text_impl                    0x08005fe5   Thumb Code   196  canvas.o(.text)
    canvas_do_draw_image                     0x080060f7   Thumb Code   332  canvas.o(.text)
    canvas_draw_fps                          0x08006c05   Thumb Code   214  canvas.o(.text)
    .text                                    0x0800756c   Section        0  check_button.o(.text)
    check_button_set_value_only              0x0800756d   Thumb Code    76  check_button.o(.text)
    check_button_on_event                    0x0800762f   Thumb Code    98  check_button.o(.text)
    check_button_on_paint_self               0x08007691   Thumb Code    20  check_button.o(.text)
    check_button_get_prop                    0x080076a5   Thumb Code    68  check_button.o(.text)
    check_button_set_prop                    0x080076e9   Thumb Code    70  check_button.o(.text)
    .text                                    0x080077e8   Section        0  color.o(.text)
    .text                                    0x0800783c   Section        0  dialog.o(.text)
    dialog_on_paint_self                     0x0800783d   Thumb Code    28  dialog.o(.text)
    dialog_get_prop                          0x08007859   Thumb Code   144  dialog.o(.text)
    dialog_set_prop                          0x080078e9   Thumb Code   148  dialog.o(.text)
    dialog_destroy                           0x0800797d   Thumb Code    34  dialog.o(.text)
    dialog_on_add_child                      0x0800799f   Thumb Code    90  dialog.o(.text)
    dialog_close                             0x08007b07   Thumb Code    20  dialog.o(.text)
    dialog_idle_close                        0x08007b1b   Thumb Code    12  dialog.o(.text)
    .text                                    0x08007c14   Section        0  emitter.o(.text)
    emitter_item_destroy                     0x08007c45   Thumb Code    36  emitter.o(.text)
    emitter_remove                           0x08007c69   Thumb Code    56  emitter.o(.text)
    .text                                    0x08007ec8   Section        0  enums.o(.text)
    .text                                    0x08007fec   Section        0  font.o(.text)
    .text                                    0x08008084   Section        0  font_manager.o(.text)
    .text                                    0x08008184   Section        0  group_box.o(.text)
    group_box_on_paint_self                  0x08008185   Thumb Code    20  group_box.o(.text)
    .text                                    0x080081ec   Section        0  image.o(.text)
    image_on_event                           0x080081ed   Thumb Code   152  image.o(.text)
    image_on_paint_self                      0x08008285   Thumb Code   220  image.o(.text)
    image_get_prop                           0x08008361   Thumb Code   400  image.o(.text)
    image_set_image                          0x08008503   Thumb Code    46  image.o(.text)
    image_set_prop                           0x08008561   Thumb Code   464  image.o(.text)
    .text                                    0x080088a4   Section        0  image_manager.o(.text)
    bitmap_cache_cmp_time                    0x08008ab5   Thumb Code    20  image_manager.o(.text)
    bitmap_cache_destroy                     0x08008ac9   Thumb Code    30  image_manager.o(.text)
    .text                                    0x08008b7c   Section        0  label.o(.text)
    label_on_paint_self                      0x08008b7d   Thumb Code    20  label.o(.text)
    .text                                    0x08008bd0   Section        0  lcd.o(.text)
    .text                                    0x08008f98   Section        0  main_loop.o(.text)
    .text                                    0x080090ac   Section        0  mem.o(.text)
    node_merge2                              0x080091e3   Thumb Code    48  mem.o(.text)
    node_merge                               0x08009213   Thumb Code    60  mem.o(.text)
    .text                                    0x08009410   Section        0  progress_bar.o(.text)
    progress_bar_on_paint_self               0x08009411   Thumb Code   714  progress_bar.o(.text)
    progress_bar_get_prop                    0x0800973d   Thumb Code   148  progress_bar.o(.text)
    progress_bar_set_prop                    0x080097d1   Thumb Code   158  progress_bar.o(.text)
    .text                                    0x080098e0   Section        0  rect.o(.text)
    .text                                    0x08009b20   Section        0  theme.o(.text)
    .text                                    0x08009d00   Section        0  utf8.o(.text)
    .text                                    0x0800a004   Section        0  value.o(.text)
    .text                                    0x0800a624   Section        0  widget.o(.text)
    widget_set_dirty                         0x0800a625   Thumb Code    76  widget.o(.text)
    widget_get_style_data                    0x0800ab23   Thumb Code   152  widget.o(.text)
    widget_destroy_only                      0x0800b10f   Thumb Code   172  widget.o(.text)
    widget_lookup_child                      0x0800b29f   Thumb Code    98  widget.o(.text)
    widget_lookup_all                        0x0800b311   Thumb Code   114  widget.o(.text)
    widget_lookup_by_type_child              0x0800b3a1   Thumb Code   100  widget.o(.text)
    widget_lookup_by_type_all                0x0800b405   Thumb Code   116  widget.o(.text)
    widget_set_visible_self                  0x0800b497   Thumb Code    48  widget.o(.text)
    widget_set_visible_recursive             0x0800b4c7   Thumb Code    76  widget.o(.text)
    widget_dispatch_leave_event              0x0800bdd9   Thumb Code    38  widget.o(.text)
    widget_dispatch_blur_event               0x0800bdff   Thumb Code    60  widget.o(.text)
    .text                                    0x0800c644   Section        0  widget_vtable.o(.text)
    point_to_local                           0x0800c7ed   Thumb Code    94  widget_vtable.o(.text)
    .text                                    0x0800c90c   Section        0  window.o(.text)
    window_on_paint_self                     0x0800c90d   Thumb Code    20  window.o(.text)
    window_get_prop                          0x0800c921   Thumb Code   104  window.o(.text)
    window_set_prop                          0x0800c989   Thumb Code   144  window.o(.text)
    window_destroy                           0x0800ca19   Thumb Code    38  window.o(.text)
    .text                                    0x0800cad8   Section        0  window_manager.o(.text)
    window_manager_find_prev_window          0x0800cad9   Thumb Code    94  window_manager.o(.text)
    window_manager_create_animator           0x0800cb37   Thumb Code   192  window_manager.o(.text)
    window_manager_check_if_need_open_animation 0x0800cbf7   Thumb Code    72  window_manager.o(.text)
    window_manager_idle_dispatch_window_open 0x0800cc3f   Thumb Code    58  window_manager.o(.text)
    window_manager_check_if_need_close_animation 0x0800cc79   Thumb Code    18  window_manager.o(.text)
    window_manager_do_open_window            0x0800cc8b   Thumb Code    40  window_manager.o(.text)
    window_manger_layout_child               0x0800ccb3   Thumb Code   142  window_manager.o(.text)
    window_manager_idle_destroy_window       0x0800cd99   Thumb Code    16  window_manager.o(.text)
    window_manager_calc_dirty_rect           0x0800cf5b   Thumb Code    48  window_manager.o(.text)
    window_manager_inc_fps                   0x0800cf8b   Thumb Code    18  window_manager.o(.text)
    window_manager_paint_normal              0x0800cf9d   Thumb Code   152  window_manager.o(.text)
    window_manager_paint_animation           0x0800d035   Thumb Code   160  window_manager.o(.text)
    window_manager_update_fps                0x0800d0d5   Thumb Code    70  window_manager.o(.text)
    wm_on_locale_changed                     0x0800d173   Thumb Code    78  window_manager.o(.text)
    window_manager_invalidate                0x0800d20f   Thumb Code    28  window_manager.o(.text)
    wm_on_remove_child                       0x0800d369   Thumb Code    60  window_manager.o(.text)
    window_manger_layout_children            0x0800d3a5   Thumb Code    64  window_manager.o(.text)
    window_manager_update_key_status         0x0800d423   Thumb Code    68  window_manager.o(.text)
    window_manager_shift_key                 0x0800d467   Thumb Code   116  window_manager.o(.text)
    .text                                    0x0800d764   Section        0  wstr.o(.text)
    wstr_extend                              0x0800d831   Thumb Code    54  wstr.o(.text)
    double_fraction_nr                       0x0800dbe7   Thumb Code   156  wstr.o(.text)
    wstr_fraction_nr                         0x0800dc83   Thumb Code    42  wstr.o(.text)
    .text                                    0x0800dde8   Section        0  font_bitmap.o(.text)
    find_glyph                               0x0800dde9   Thumb Code    56  font_bitmap.o(.text)
    font_bitmap_find_glyph                   0x0800de21   Thumb Code    92  font_bitmap.o(.text)
    font_bitmap_match                        0x0800de7d   Thumb Code    50  font_bitmap.o(.text)
    font_bitmap_destroy                      0x0800deaf   Thumb Code    18  font_bitmap.o(.text)
    font_bitmap_get_baseline                 0x0800dec1   Thumb Code    14  font_bitmap.o(.text)
    .text                                    0x0800df3c   Section        0  utils.o(.text)
    tk_strtol_internal                       0x0800df87   Thumb Code   198  utils.o(.text)
    tk_itoa_simple                           0x0800e19f   Thumb Code   144  utils.o(.text)
    stbsp__clamp_callback                    0x0800e245   Thumb Code    86  utils.o(.text)
    stbsp__lead_sign                         0x0800e29b   Thumb Code    52  utils.o(.text)
    stbsp__raise_to_power10                  0x0800e2cf   Thumb Code  2776  utils.o(.text)
    stbsp__real_to_str                       0x0800eda7   Thumb Code   952  utils.o(.text)
    stbsp__real_to_parts                     0x0800f15f   Thumb Code    72  utils.o(.text)
    stbsp_vsprintfcb                         0x0800f1a7   Thumb Code  5270  utils.o(.text)
    stbsp_vsnprintf                          0x0801063d   Thumb Code    76  utils.o(.text)
    stbsp_set_separators                     0x0801085b   Thumb Code    10  utils.o(.text)
    stbsp_sprintf                            0x08010865   Thumb Code    40  utils.o(.text)
    stbsp_snprintf                           0x0801088d   Thumb Code    38  utils.o(.text)
    stbsp_vsprintf                           0x080108b3   Thumb Code    28  utils.o(.text)
    .text                                    0x08010a9c   Section        0  events.o(.text)
    .text                                    0x08010b70   Section        0  timer.o(.text)
    timer_info_destroy                       0x08010b71   Thumb Code    26  timer.o(.text)
    timer_info_compare_id                    0x08010cab   Thumb Code    26  timer.o(.text)
    .text                                    0x08010f38   Section        0  layout.o(.text)
    .text                                    0x08011898   Section        0  event_queue.o(.text)
    .text                                    0x080119e4   Section        0  slider.o(.text)
    slider_get_dragger_rect                  0x080119e5   Thumb Code   168  slider.o(.text)
    slider_on_paint_self                     0x08011a8d   Thumb Code   722  slider.o(.text)
    slider_set_value_internal                0x08011d5f   Thumb Code   156  slider.o(.text)
    slider_on_event                          0x08011dfb   Thumb Code   418  slider.o(.text)
    slider_get_prop                          0x08011ffd   Thumb Code   228  slider.o(.text)
    slider_set_prop                          0x080120e1   Thumb Code   246  slider.o(.text)
    .text                                    0x08012260   Section        0  window_animator.o(.text)
    .text                                    0x08012398   Section        0  window_animator_null.o(.text)
    .text                                    0x080123a8   Section        0  idle.o(.text)
    idle_info_destroy                        0x080123a9   Thumb Code    26  idle.o(.text)
    idle_info_compare_id                     0x080124d7   Thumb Code    26  idle.o(.text)
    .text                                    0x080126ac   Section        0  time.o(.text)
    .text                                    0x080126c4   Section        0  system_info.o(.text)
    .text                                    0x08012710   Section        0  image_loader.o(.text)
    .text                                    0x0801273c   Section        0  str.o(.text)
    str_extend                               0x0801273d   Thumb Code    48  str.o(.text)
    str_count_sub_str                        0x08012c7b   Thumb Code   102  str.o(.text)
    .text                                    0x08012f10   Section        0  main_loop_simple.o(.text)
    main_loop_simple_queue_event             0x08012f11   Thumb Code    40  main_loop_simple.o(.text)
    main_loop_simple_recv_event              0x08012f39   Thumb Code    34  main_loop_simple.o(.text)
    main_loop_dispatch_events                0x08013069   Thumb Code   118  main_loop_simple.o(.text)
    main_loop_dispatch_input                 0x080130df   Thumb Code    22  main_loop_simple.o(.text)
    main_loop_simple_run                     0x080130f5   Thumb Code    58  main_loop_simple.o(.text)
    .text                                    0x080131b8   Section        0  pages.o(.text)
    pages_find_target                        0x0801323f   Thumb Code    30  pages.o(.text)
    pages_on_paint_children                  0x0801325d   Thumb Code    38  pages.o(.text)
    pages_get_prop                           0x08013283   Thumb Code    92  pages.o(.text)
    pages_set_prop                           0x080132df   Thumb Code    96  pages.o(.text)
    .text                                    0x080133a0   Section        0  edit.o(.text)
    edit_dispatch_event                      0x080133a1   Thumb Code    28  edit.o(.text)
    edit_update_caret                        0x080133bd   Thumb Code    86  edit.o(.text)
    edit_get_display_text                    0x08013413   Thumb Code   336  edit.o(.text)
    edit_delete_prev_char                    0x08013625   Thumb Code    22  edit.o(.text)
    edit_delete_next_char                    0x0801363b   Thumb Code    22  edit.o(.text)
    edit_input_char                          0x08013651   Thumb Code   402  edit.o(.text)
    edit_commit_str                          0x080137e3   Thumb Code    46  edit.o(.text)
    edit_on_key_down                         0x08013811   Thumb Code    70  edit.o(.text)
    edit_on_key_up                           0x08013857   Thumb Code     6  edit.o(.text)
    edit_auto_fix                            0x0801397b   Thumb Code   192  edit.o(.text)
    edit_update_status                       0x08013a3b   Thumb Code    50  edit.o(.text)
    edit_add_int                             0x08013a6d   Thumb Code   106  edit.o(.text)
    edit_add_float                           0x08013ad7   Thumb Code   206  edit.o(.text)
    edit_on_inc                              0x08014603   Thumb Code    14  edit.o(.text)
    edit_on_dec                              0x08014611   Thumb Code    14  edit.o(.text)
    edit_on_clear                            0x0801461f   Thumb Code    14  edit.o(.text)
    edit_hook_button                         0x0801462d   Thumb Code   150  edit.o(.text)
    edit_destroy                             0x080146c3   Thumb Code    38  edit.o(.text)
    edit_hook_children_button                0x080146e9   Thumb Code    22  edit.o(.text)
    .text                                    0x08014800   Section        0  view.o(.text)
    .text                                    0x08014854   Section        0  widget_factory.o(.text)
    widget_factory_find_builtin_creator      0x08014855   Thumb Code    56  widget_factory.o(.text)
    .text                                    0x08014a08   Section        0  tokenizer.o(.text)
    tokenizer_skip_separator                 0x08014a4f   Thumb Code    54  tokenizer.o(.text)
    tokenizer_skip_non_separator             0x08014a85   Thumb Code    54  tokenizer.o(.text)
    .text                                    0x08014b90   Section        0  input_method.o(.text)
    .text                                    0x08014dbc   Section        0  input_engine.o(.text)
    .text                                    0x08014e3c   Section        0  spin_box.o(.text)
    .text                                    0x08014f94   Section        0  dragger.o(.text)
    dragger_on_paint_self                    0x08014f95   Thumb Code    20  dragger.o(.text)
    dragger_move                             0x08014fa9   Thumb Code   128  dragger.o(.text)
    dragger_on_event                         0x08015029   Thumb Code   236  dragger.o(.text)
    dragger_get_prop                         0x08015139   Thumb Code   180  dragger.o(.text)
    dragger_set_prop                         0x080151ed   Thumb Code   180  dragger.o(.text)
    .text                                    0x08015314   Section        0  dialog_client.o(.text)
    dialog_client_on_paint_self              0x08015315   Thumb Code    20  dialog_client.o(.text)
    .text                                    0x08015394   Section        0  dialog_title.o(.text)
    dialog_title_on_paint_self               0x08015395   Thumb Code    20  dialog_title.o(.text)
    .text                                    0x0801540c   Section        0  custom_props.o(.text)
    value_free                               0x0801549b   Thumb Code    58  custom_props.o(.text)
    value_assign                             0x080154d5   Thumb Code    70  custom_props.o(.text)
    custom_props_extend                      0x0801551b   Thumb Code    54  custom_props.o(.text)
    .text                                    0x0801563c   Section        0  awtk.o(.text)
    tk_add_font                              0x0801563d   Thumb Code    46  awtk.o(.text)
    tk_exit                                  0x08015829   Thumb Code    18  awtk.o(.text)
    tk_quit_idle                             0x0801584d   Thumb Code    16  awtk.o(.text)
    .text                                    0x080158e4   Section        0  input_method_creator.o(.text)
    input_method_null_request                0x080158e5   Thumb Code     6  input_method_creator.o(.text)
    input_method_null_destroy                0x080158eb   Thumb Code    32  input_method_creator.o(.text)
    .text                                    0x08015948   Section        0  button_group.o(.text)
    button_group_on_paint_self               0x08015949   Thumb Code    20  button_group.o(.text)
    .text                                    0x080159b0   Section        0  color_parser.o(.text)
    compare_color                            0x080159b1   Thumb Code    16  color_parser.o(.text)
    map_name_to_value                        0x080159c1   Thumb Code    38  color_parser.o(.text)
    color_parse_rgba                         0x080159e7   Thumb Code   136  color_parser.o(.text)
    color_parse_hex                          0x08015a6f   Thumb Code   114  color_parser.o(.text)
    .text                                    0x08015c3c   Section        0  combo_box.o(.text)
    combo_box_destroy                        0x08015c95   Thumb Code    44  combo_box.o(.text)
    combo_box_get_prop                       0x08015cc1   Thumb Code   146  combo_box.o(.text)
    combo_box_set_prop                       0x08015ef9   Thumb Code   162  combo_box.o(.text)
    combo_box_on_item_click                  0x08015feb   Thumb Code   106  combo_box.o(.text)
    combo_box_visit_item                     0x08016055   Thumb Code   172  combo_box.o(.text)
    combo_box_hook_items                     0x08016101   Thumb Code    18  combo_box.o(.text)
    combo_box_create_popup_items             0x08016113   Thumb Code    66  combo_box.o(.text)
    combo_box_create_popup                   0x08016175   Thumb Code   138  combo_box.o(.text)
    combo_box_on_button_click                0x080161ff   Thumb Code   140  combo_box.o(.text)
    .text                                    0x080163b8   Section        0  combo_box_item.o(.text)
    combo_box_item_on_paint_self             0x080163b9   Thumb Code    20  combo_box_item.o(.text)
    combo_box_item_set_selected_only         0x080163cd   Thumb Code    56  combo_box_item.o(.text)
    combo_box_item_on_event                  0x08016467   Thumb Code   164  combo_box_item.o(.text)
    combo_box_item_set_prop                  0x0801651b   Thumb Code   114  combo_box_item.o(.text)
    combo_box_item_get_prop                  0x0801658d   Thumb Code   156  combo_box_item.o(.text)
    .text                                    0x080166a8   Section        0  fs.o(.text)
    .text                                    0x08016a24   Section        0  popup.o(.text)
    popup_on_paint_self                      0x08016a25   Thumb Code    20  popup.o(.text)
    popup_get_prop                           0x08016a39   Thumb Code   184  popup.o(.text)
    popup_set_prop                           0x08016af1   Thumb Code   224  popup.o(.text)
    popup_destroy                            0x08016bd1   Thumb Code    38  popup.o(.text)
    popup_on_event                           0x08016bf7   Thumb Code   138  popup.o(.text)
    .text                                    0x08016d34   Section        0  tab_button.o(.text)
    tab_button_get_pages                     0x08016d35   Thumb Code    58  tab_button.o(.text)
    tab_button_set_value_only                0x08016d6f   Thumb Code    56  tab_button.o(.text)
    tab_button_on_event                      0x08016e31   Thumb Code    84  tab_button.o(.text)
    tab_button_on_paint_self                 0x08016e85   Thumb Code    40  tab_button.o(.text)
    tab_button_get_min_w                     0x08016ead   Thumb Code    64  tab_button.o(.text)
    tab_button_get_prop                      0x08016eed   Thumb Code   240  tab_button.o(.text)
    tab_button_set_prop                      0x0801702d   Thumb Code   158  tab_button.o(.text)
    .text                                    0x0801716c   Section        0  tab_button_group.o(.text)
    tab_button_group_on_layout_children_non_compact 0x0801716d   Thumb Code   134  tab_button_group.o(.text)
    tab_button_group_on_layout_children_compact 0x080171f3   Thumb Code   126  tab_button_group.o(.text)
    tab_button_group_on_layout_children      0x08017271   Thumb Code    44  tab_button_group.o(.text)
    tab_button_group_on_paint_self           0x0801729d   Thumb Code    20  tab_button_group.o(.text)
    tab_button_group_get_pages               0x080172b1   Thumb Code    26  tab_button_group.o(.text)
    tab_button_group_on_paint_active_button  0x080172cb   Thumb Code   280  tab_button_group.o(.text)
    tab_button_group_on_paint_border         0x080173e3   Thumb Code     6  tab_button_group.o(.text)
    tab_button_group_on_paint_done           0x080173e9   Thumb Code    90  tab_button_group.o(.text)
    tab_button_group_get_prop                0x08017443   Thumb Code    68  tab_button_group.o(.text)
    tab_button_group_set_prop                0x08017487   Thumb Code    68  tab_button_group.o(.text)
    .text                                    0x0801753c   Section        0  tab_control.o(.text)
    tab_control_on_paint_self                0x0801753d   Thumb Code    20  tab_control.o(.text)
    .text                                    0x080175a4   Section        0  ui_builder.o(.text)
    .text                                    0x08017648   Section        0  ui_builder_default.o(.text)
    ui_builder_default_on_widget_start       0x08017649   Thumb Code   152  ui_builder_default.o(.text)
    ui_builder_default_on_widget_prop        0x080176e1   Thumb Code    52  ui_builder_default.o(.text)
    ui_builder_default_on_widget_prop_end    0x08017715   Thumb Code     6  ui_builder_default.o(.text)
    ui_builder_default_on_widget_end         0x0801771b   Thumb Code    12  ui_builder_default.o(.text)
    ui_builder_default_on_end                0x08017727   Thumb Code    66  ui_builder_default.o(.text)
    .text                                    0x080177b0   Section        0  ui_loader.o(.text)
    .text                                    0x080177e0   Section        0  ui_loader_default.o(.text)
    .text                                    0x080178f4   Section        0  window_open.o(.text)
    on_window_open                           0x080178f5   Thumb Code    12  window_open.o(.text)
    window_open_impl                         0x08017901   Thumb Code    94  window_open.o(.text)
    .text                                    0x08017990   Section        0  color_tile.o(.text)
    color_tile_on_paint_self                 0x08017991   Thumb Code    60  color_tile.o(.text)
    color_tile_get_prop                      0x080179cd   Thumb Code   108  color_tile.o(.text)
    color_tile_set_prop                      0x08017a95   Thumb Code   114  color_tile.o(.text)
    .text                                    0x08017bbc   Section        0  assets_manager.o(.text)
    asset_info_destroy                       0x08017bc9   Thumb Code    36  assets_manager.o(.text)
    asset_info_unref                         0x08017bed   Thumb Code    38  assets_manager.o(.text)
    asset_info_ref                           0x08017c13   Thumb Code    22  assets_manager.o(.text)
    asset_cache_cmp_type                     0x08017d3b   Thumb Code    26  assets_manager.o(.text)
    .text                                    0x08017dec   Section        0  locale_info.o(.text)
    .text                                    0x08018030   Section        0  path.o(.text)
    .text                                    0x0801836c   Section        0  lcd_stm32_raw.o(.text)
    blend_color                              0x0801836d   Thumb Code    76  lcd_stm32_raw.o(.text)
    lcd_reg_set_window                       0x080183b9   Thumb Code    30  lcd_stm32_raw.o(.text)
    lcd_reg_begin_frame                      0x080183d7   Thumb Code    20  lcd_stm32_raw.o(.text)
    lcd_reg_draw_hline                       0x080183eb   Thumb Code    78  lcd_stm32_raw.o(.text)
    lcd_reg_draw_vline                       0x08018439   Thumb Code    78  lcd_stm32_raw.o(.text)
    lcd_reg_draw_points                      0x08018487   Thumb Code    76  lcd_stm32_raw.o(.text)
    lcd_reg_fill_rect                        0x080184d3   Thumb Code    92  lcd_stm32_raw.o(.text)
    lcd_reg_draw_glyph                       0x0801852f   Thumb Code   238  lcd_stm32_raw.o(.text)
    lcd_reg_draw_image                       0x0801861d   Thumb Code   478  lcd_stm32_raw.o(.text)
    lcd_reg_end_frame                        0x080187fb   Thumb Code     6  lcd_stm32_raw.o(.text)
    lcd_reg_destroy                          0x08018801   Thumb Code    18  lcd_stm32_raw.o(.text)
    .text                                    0x080188a4   Section        0  main_loop_stm32_raw.o(.text)
    platform_create_lcd                      0x080188ab   Thumb Code    16  main_loop_stm32_raw.o(.text)
    main_loop_raw_dispatch                   0x08018901   Thumb Code    14  main_loop_stm32_raw.o(.text)
    main_loop_raw_destroy                    0x0801890f   Thumb Code    16  main_loop_stm32_raw.o(.text)
    main_loop_raw_init_canvas                0x0801891f   Thumb Code    42  main_loop_stm32_raw.o(.text)
    .text                                    0x0801897c   Section        0  platform.o(.text)
    .text                                    0x080189e0   Section        0  mutex_null.o(.text)
    .text                                    0x080189fc   Section        0  sys_tick.o(.text)
    .text                                    0x08018a48   Section        0  fs_os.o(.text)
    .text                                    0x08018a4c   Section        0  demo_main.o(.text)
    .text                                    0x08018a74   Section        0  demo1_app.o(.text)
    on_timer                                 0x08018a75   Thumb Code    36  demo1_app.o(.text)
    on_inc                                   0x08018a99   Thumb Code    42  demo1_app.o(.text)
    on_dec                                   0x08018ac3   Thumb Code    42  demo1_app.o(.text)
    on_ok                                    0x08018aed   Thumb Code    24  demo1_app.o(.text)
    on_close                                 0x08018b05   Thumb Code    16  demo1_app.o(.text)
    on_cancel                                0x08018b15   Thumb Code    24  demo1_app.o(.text)
    on_show_dialog                           0x08018b2d   Thumb Code   166  demo1_app.o(.text)
    .text                                    0x08018fac   Section        0  assets-mini.o(.text)
    .text                                    0x08019148   Section        2  use_no_semi_2.o(.text)
    .text                                    0x0801914c   Section       16  rt_ctype_table.o(.text)
    .text                                    0x0801915c   Section      238  lludivv7m.o(.text)
    .text                                    0x0801924a   Section       38  llushr.o(.text)
    .text                                    0x08019270   Section       72  llsdiv.o(.text)
    .text                                    0x080192b8   Section        0  tolower.o(.text)
    .text                                    0x080192d2   Section        0  toupper.o(.text)
    .text                                    0x080192f0   Section        0  noretval__2printf.o(.text)
    .text                                    0x08019308   Section        0  __printf.o(.text)
    .text                                    0x08019370   Section        0  _printf_dec.o(.text)
    .text                                    0x080193e8   Section        0  vsscanf.o(.text)
    .text                                    0x0801941c   Section        0  bsearchnoex.o(.text)
    .text                                    0x0801946c   Section        0  strchr.o(.text)
    .text                                    0x08019480   Section        0  strstr.o(.text)
    .text                                    0x080194a4   Section        0  memcmp.o(.text)
    .text                                    0x080194fc   Section        0  strcpy.o(.text)
    .text                                    0x08019544   Section        0  strrchr.o(.text)
    .text                                    0x0801955a   Section        0  strlen.o(.text)
    .text                                    0x08019598   Section        0  wcscpy.o(.text)
    .text                                    0x080195aa   Section        0  wcscmp.o(.text)
    .text                                    0x080195c2   Section        0  wcschr.o(.text)
    .text                                    0x080195d8   Section        0  wcslen.o(.text)
    .text                                    0x080195ea   Section        0  strncmp.o(.text)
    .text                                    0x08019680   Section      138  rt_memcpy_v6.o(.text)
    .text                                    0x0801970a   Section      132  rt_memmove_v6.o(.text)
    .text                                    0x0801978e   Section      100  rt_memcpy_w.o(.text)
    .text                                    0x080197f2   Section       68  rt_memclr.o(.text)
    .text                                    0x08019836   Section       78  rt_memclr_w.o(.text)
    .text                                    0x08019884   Section       86  strncpy.o(.text)
    .text                                    0x080198dc   Section      128  strcmpv7m.o(.text)
    .text                                    0x0801995c   Section        0  heapauxi.o(.text)
    .text                                    0x08019962   Section        2  use_no_semi.o(.text)
    .text                                    0x08019964   Section        8  rt_locale_intlibspace.o(.text)
    .text                                    0x0801996c   Section        0  _rserrno.o(.text)
    .text                                    0x08019982   Section        0  _printf_intcommon.o(.text)
    .text                                    0x08019a34   Section        0  _printf_char_file.o(.text)
    .text                                    0x08019a58   Section        0  _scanf_longlong.o(.text)
    .text                                    0x08019bae   Section        0  _scanf_int.o(.text)
    .text                                    0x08019cfa   Section        0  _scanf_str.o(.text)
    .text                                    0x08019ddc   Section        0  scanf_char.o(.text)
    _scanf_char_input                        0x08019ddd   Thumb Code    12  scanf_char.o(.text)
    .text                                    0x08019e08   Section        0  _sgetc.o(.text)
    .text                                    0x08019e48   Section        0  _scanf_mbtowc.o(.text)
    .text                                    0x08019f5c   Section        0  _scanf_wctomb.o(.text)
    .text                                    0x0801a044   Section        0  _scanf_wstr.o(.text)
    .text                                    0x0801a114   Section      122  rt_memmove_w.o(.text)
    .text                                    0x0801a190   Section        8  libspace.o(.text)
    .text                                    0x0801a198   Section        8  rt_errno_addr_intlibspace.o(.text)
    .text                                    0x0801a1a0   Section        0  isspace.o(.text)
    .text                                    0x0801a1b4   Section        0  _printf_char_common.o(.text)
    _printf_input_char                       0x0801a1b5   Thumb Code    10  _printf_char_common.o(.text)
    .text                                    0x0801a1e4   Section        0  _chval.o(.text)
    .text                                    0x0801a200   Section        0  _scanf.o(.text)
    .text                                    0x0801a574   Section        0  scanf_fp.o(.text)
    _fp_value                                0x0801a575   Thumb Code   588  scanf_fp.o(.text)
    .text                                    0x0801aa6c   Section        0  _scanf_wcharmap.o(.text)
    .text                                    0x0801aa8a   Section        0  ferror.o(.text)
    .text                                    0x0801aa92   Section        0  _mbrtowc.o(.text)
    .text                                    0x0801aace   Section        0  _wcrtomb.o(.text)
    .text                                    0x0801ab0e   Section       74  sys_stackheap_outer.o(.text)
    .text                                    0x0801ab58   Section        0  bigflt0.o(.text)
    .text                                    0x0801ac3c   Section        0  exit.o(.text)
    .text                                    0x0801ac50   Section        0  scanf_hexfp.o(.text)
    .text                                    0x0801af70   Section        0  scanf_infnan.o(.text)
    .text                                    0x0801b0a4   Section       38  llshl.o(.text)
    CL$$btod_div_common                      0x0801b0ca   Section      824  btod.o(CL$$btod_div_common)
    CL$$btod_e2d                             0x0801b404   Section      132  btod.o(CL$$btod_e2d)
    CL$$btod_e2e                             0x0801b488   Section      220  btod.o(CL$$btod_e2e)
    CL$$btod_ediv                            0x0801b564   Section       42  btod.o(CL$$btod_ediv)
    CL$$btod_edivd                           0x0801b58e   Section       42  btod.o(CL$$btod_edivd)
    CL$$btod_emul                            0x0801b5b8   Section       42  btod.o(CL$$btod_emul)
    CL$$btod_emuld                           0x0801b5e2   Section       42  btod.o(CL$$btod_emuld)
    CL$$btod_mult_common                     0x0801b60c   Section      580  btod.o(CL$$btod_mult_common)
    i.__mathlib_dbl_overflow                 0x0801b850   Section        0  dunder.o(i.__mathlib_dbl_overflow)
    i.__mathlib_dbl_underflow                0x0801b860   Section        0  dunder.o(i.__mathlib_dbl_underflow)
    i.__mathlib_narrow                       0x0801b870   Section        0  narrow.o(i.__mathlib_narrow)
    i.__mathlib_tofloat                      0x0801b880   Section        0  narrow.o(i.__mathlib_tofloat)
    i.__support_ldexp                        0x0801b93c   Section        0  ldexp.o(i.__support_ldexp)
    i._is_digit                              0x0801b952   Section        0  __printf_wp.o(i._is_digit)
    i.floor                                  0x0801b960   Section        0  floor.o(i.floor)
    i.frexp                                  0x0801ba3c   Section        0  frexp.o(i.frexp)
    i.ldexp                                  0x0801ba94   Section        0  ldexp.o(i.ldexp)
    locale$$code                             0x0801bb08   Section       44  lc_ctype_c.o(locale$$code)
    locale$$code                             0x0801bb34   Section       44  lc_numeric_c.o(locale$$code)
    x$fpl$d2f                                0x0801bb60   Section       98  d2f.o(x$fpl$d2f)
    x$fpl$dadd                               0x0801bbc4   Section      336  daddsub_clz.o(x$fpl$dadd)
    _dadd1                                   0x0801bbd5   Thumb Code     0  daddsub_clz.o(x$fpl$dadd)
    x$fpl$dcheck1                            0x0801bd14   Section       16  dcheck1.o(x$fpl$dcheck1)
    x$fpl$dcmpinf                            0x0801bd24   Section       24  dcmpi.o(x$fpl$dcmpinf)
    x$fpl$ddiv                               0x0801bd3c   Section      688  ddiv.o(x$fpl$ddiv)
    ddiv_entry                               0x0801bd43   Thumb Code     0  ddiv.o(x$fpl$ddiv)
    x$fpl$deqf                               0x0801bfec   Section      120  deqf.o(x$fpl$deqf)
    x$fpl$dfix                               0x0801c064   Section       94  dfix.o(x$fpl$dfix)
    x$fpl$dfixu                              0x0801c0c4   Section       90  dfixu.o(x$fpl$dfixu)
    x$fpl$dflt                               0x0801c11e   Section       46  dflt_clz.o(x$fpl$dflt)
    x$fpl$dfltll                             0x0801c14c   Section      162  dfltll_clz.o(x$fpl$dfltll)
    x$fpl$dfltu                              0x0801c1ee   Section       38  dflt_clz.o(x$fpl$dfltu)
    x$fpl$dleqf                              0x0801c214   Section      120  dleqf.o(x$fpl$dleqf)
    x$fpl$dmul                               0x0801c28c   Section      340  dmul.o(x$fpl$dmul)
    x$fpl$dnaninf                            0x0801c3e0   Section      156  dnaninf.o(x$fpl$dnaninf)
    x$fpl$dretinf                            0x0801c47c   Section       12  dretinf.o(x$fpl$dretinf)
    x$fpl$drleqf                             0x0801c488   Section      108  drleqf.o(x$fpl$drleqf)
    x$fpl$drsb                               0x0801c4f4   Section       22  daddsub_clz.o(x$fpl$drsb)
    x$fpl$dsub                               0x0801c50c   Section      468  daddsub_clz.o(x$fpl$dsub)
    _dsub1                                   0x0801c51d   Thumb Code     0  daddsub_clz.o(x$fpl$dsub)
    x$fpl$f2d                                0x0801c6e0   Section       86  f2d.o(x$fpl$f2d)
    x$fpl$fadd                               0x0801c738   Section      196  faddsub_clz.o(x$fpl$fadd)
    _fadd1                                   0x0801c747   Thumb Code     0  faddsub_clz.o(x$fpl$fadd)
    x$fpl$fcmpinf                            0x0801c7fc   Section       24  fcmpi.o(x$fpl$fcmpinf)
    x$fpl$fdiv                               0x0801c814   Section      388  fdiv.o(x$fpl$fdiv)
    _fdiv1                                   0x0801c815   Thumb Code     0  fdiv.o(x$fpl$fdiv)
    x$fpl$feqf                               0x0801c998   Section      104  feqf.o(x$fpl$feqf)
    x$fpl$ffix                               0x0801ca00   Section       54  ffix.o(x$fpl$ffix)
    x$fpl$ffixu                              0x0801ca38   Section       62  ffixu.o(x$fpl$ffixu)
    x$fpl$fflt                               0x0801ca78   Section       48  fflt_clz.o(x$fpl$fflt)
    x$fpl$ffltll                             0x0801caa8   Section       96  ffltll_clz.o(x$fpl$ffltll)
    x$fpl$ffltu                              0x0801cb08   Section       38  fflt_clz.o(x$fpl$ffltu)
    x$fpl$fleqf                              0x0801cb30   Section      104  fleqf.o(x$fpl$fleqf)
    x$fpl$fmul                               0x0801cb98   Section      258  fmul.o(x$fpl$fmul)
    x$fpl$fnaninf                            0x0801cc9a   Section      140  fnaninf.o(x$fpl$fnaninf)
    x$fpl$fretinf                            0x0801cd26   Section       10  fretinf.o(x$fpl$fretinf)
    x$fpl$frleqf                             0x0801cd30   Section       98  frleqf.o(x$fpl$frleqf)
    x$fpl$frsb                               0x0801cd92   Section       20  faddsub_clz.o(x$fpl$frsb)
    x$fpl$fsub                               0x0801cda8   Section      234  faddsub_clz.o(x$fpl$fsub)
    _fsub1                                   0x0801cdb7   Thumb Code     0  faddsub_clz.o(x$fpl$fsub)
    x$fpl$ieeestatus                         0x0801ce92   Section        6  istatus.o(x$fpl$ieeestatus)
    x$fpl$llsfromd                           0x0801ce98   Section      194  dfixll.o(x$fpl$llsfromd)
    x$fpl$retnan                             0x0801cf5a   Section      100  retnan.o(x$fpl$retnan)
    x$fpl$scalbn                             0x0801cfbe   Section       92  scalbn.o(x$fpl$scalbn)
    x$fpl$scanf1                             0x0801d01a   Section        4  scanf1.o(x$fpl$scanf1)
    x$fpl$scanf2                             0x0801d01e   Section        8  scanf2.o(x$fpl$scanf2)
    x$fpl$trapveneer                         0x0801d026   Section       48  trapv.o(x$fpl$trapveneer)
    .constdata                               0x0801d056   Section       24  rtc.o(.constdata)
    x$fpl$usenofp                            0x0801d056   Section        0  usenofp.o(x$fpl$usenofp)
    .constdata                               0x0801d06e   Section     2376  gui.o(.constdata)
    .constdata                               0x0801d9b8   Section       96  button_1.o(.constdata)
    s_button_vtable                          0x0801d9b8   Data          96  button_1.o(.constdata)
    .constdata                               0x0801da18   Section      192  check_button.o(.constdata)
    s_check_button_vtable                    0x0801da18   Data          96  check_button.o(.constdata)
    s_radio_button_vtable                    0x0801da78   Data          96  check_button.o(.constdata)
    .constdata                               0x0801dad8   Section       96  dialog.o(.constdata)
    s_dialog_vtable                          0x0801dad8   Data          96  dialog.o(.constdata)
    .constdata                               0x0801db38   Section      780  enums.o(.constdata)
    style_id_name_value                      0x0801db38   Data         216  enums.o(.constdata)
    widget_state_name_value                  0x0801dc10   Data         120  enums.o(.constdata)
    align_v_name_value                       0x0801dc88   Data          36  enums.o(.constdata)
    input_type_name_value                    0x0801dcac   Data         108  enums.o(.constdata)
    align_h_name_value                       0x0801dd18   Data          36  enums.o(.constdata)
    asset_type_value                         0x0801dd3c   Data          84  enums.o(.constdata)
    image_draw_type_name_value               0x0801dd90   Data         180  enums.o(.constdata)
    .constdata                               0x0801de44   Section       96  group_box.o(.constdata)
    s_group_box_vtable                       0x0801de44   Data          96  group_box.o(.constdata)
    .constdata                               0x0801dea4   Section       96  image.o(.constdata)
    s_image_vtable                           0x0801dea4   Data          96  image.o(.constdata)
    .constdata                               0x0801df04   Section       96  label.o(.constdata)
    s_label_vtable                           0x0801df04   Data          96  label.o(.constdata)
    .constdata                               0x0801df64   Section       96  progress_bar.o(.constdata)
    s_progress_bar_vtable                    0x0801df64   Data          96  progress_bar.o(.constdata)
    .constdata                               0x0801dfc4   Section      260  utf8.o(.constdata)
    utf8_skip_data                           0x0801dfc4   Data         256  utf8.o(.constdata)
    .constdata                               0x0801e0c8   Section       96  widget_vtable.o(.constdata)
    s_vtable                                 0x0801e0c8   Data          96  widget_vtable.o(.constdata)
    .constdata                               0x0801e128   Section       96  window.o(.constdata)
    s_window_vtable                          0x0801e128   Data          96  window.o(.constdata)
    .constdata                               0x0801e188   Section      134  window_manager.o(.constdata)
    s_window_manager_vtable                  0x0801e188   Data          96  window_manager.o(.constdata)
    key_shift                                0x0801e1e8   Data          38  window_manager.o(.constdata)
    .constdata                               0x0801e210   Section     1112  utils.o(.constdata)
    stbsp__bot                               0x0801e210   Data         184  utils.o(.constdata)
    stbsp__negbot                            0x0801e2c8   Data         176  utils.o(.constdata)
    stbsp__negboterr                         0x0801e378   Data         176  utils.o(.constdata)
    stbsp__top                               0x0801e428   Data         104  utils.o(.constdata)
    stbsp__negtop                            0x0801e490   Data         104  utils.o(.constdata)
    stbsp__toperr                            0x0801e4f8   Data         104  utils.o(.constdata)
    stbsp__negtoperr                         0x0801e560   Data         104  utils.o(.constdata)
    stbsp__powten                            0x0801e5c8   Data         160  utils.o(.constdata)
    .constdata                               0x0801e668   Section       96  slider.o(.constdata)
    s_slider_vtable                          0x0801e668   Data          96  slider.o(.constdata)
    .constdata                               0x0801e6c8   Section       96  pages.o(.constdata)
    s_pages_vtable                           0x0801e6c8   Data          96  pages.o(.constdata)
    .constdata                               0x0801e728   Section       96  edit.o(.constdata)
    s_edit_vtable                            0x0801e728   Data          96  edit.o(.constdata)
    .constdata                               0x0801e788   Section       96  view.o(.constdata)
    s_view_vtable                            0x0801e788   Data          96  view.o(.constdata)
    .constdata                               0x0801e7e8   Section      900  widget_factory.o(.constdata)
    s_builtin_creators                       0x0801e7e8   Data         900  widget_factory.o(.constdata)
    .constdata                               0x0801eb6c   Section       96  spin_box.o(.constdata)
    s_spin_box_vtable                        0x0801eb6c   Data          96  spin_box.o(.constdata)
    .constdata                               0x0801ebcc   Section       96  dragger.o(.constdata)
    s_dragger_vtable                         0x0801ebcc   Data          96  dragger.o(.constdata)
    .constdata                               0x0801ec2c   Section       96  dialog_client.o(.constdata)
    s_dialog_client_vtable                   0x0801ec2c   Data          96  dialog_client.o(.constdata)
    .constdata                               0x0801ec8c   Section       96  dialog_title.o(.constdata)
    s_dialog_title_vtable                    0x0801ec8c   Data          96  dialog_title.o(.constdata)
    .constdata                               0x0801ecec   Section       96  button_group.o(.constdata)
    s_button_group_vtable                    0x0801ecec   Data          96  button_group.o(.constdata)
    .constdata                               0x0801ed4c   Section       96  combo_box.o(.constdata)
    s_combo_box_vtable                       0x0801ed4c   Data          96  combo_box.o(.constdata)
    .constdata                               0x0801edac   Section       96  combo_box_item.o(.constdata)
    s_combo_box_item_vtable                  0x0801edac   Data          96  combo_box_item.o(.constdata)
    .constdata                               0x0801ee0c   Section       96  popup.o(.constdata)
    s_popup_vtable                           0x0801ee0c   Data          96  popup.o(.constdata)
    .constdata                               0x0801ee6c   Section       96  tab_button.o(.constdata)
    s_tab_button_vtable                      0x0801ee6c   Data          96  tab_button.o(.constdata)
    .constdata                               0x0801eecc   Section       96  tab_button_group.o(.constdata)
    s_tab_button_group_vtable                0x0801eecc   Data          96  tab_button_group.o(.constdata)
    .constdata                               0x0801ef2c   Section       96  tab_control.o(.constdata)
    s_tab_control_vtable                     0x0801ef2c   Data          96  tab_control.o(.constdata)
    .constdata                               0x0801ef8c   Section        4  ui_loader_default.o(.constdata)
    s_default_ui_loader                      0x0801ef8c   Data           4  ui_loader_default.o(.constdata)
    .constdata                               0x0801ef90   Section       96  color_tile.o(.constdata)
    s_color_tile_vtable                      0x0801ef90   Data          96  color_tile.o(.constdata)
    .constdata                               0x0801eff0   Section    116676  assets-mini.o(.constdata)
    .constdata                               0x0803b7b4   Section      148  bigflt0.o(.constdata)
    tenpwrs_x                                0x0803b7b4   Data          60  bigflt0.o(.constdata)
    tenpwrs_i                                0x0803b7f0   Data          64  bigflt0.o(.constdata)
    .conststring                             0x0803b848   Section       15  button_1.o(.conststring)
    .conststring                             0x0803b858   Section       37  check_button.o(.conststring)
    .conststring                             0x0803b880   Section       35  dialog.o(.conststring)
    .conststring                             0x0803b8a4   Section      618  enums.o(.conststring)
    .conststring                             0x0803bb10   Section       10  group_box.o(.conststring)
    .conststring                             0x0803bb1c   Section       85  image.o(.conststring)
    .conststring                             0x0803bb74   Section        6  label.o(.conststring)
    .conststring                             0x0803bb7c   Section       38  progress_bar.o(.conststring)
    .conststring                             0x0803bba4   Section        7  window.o(.conststring)
    .conststring                             0x0803bbac   Section       15  window_manager.o(.conststring)
    .conststring                             0x0803bbbc   Section       24  slider.o(.conststring)
    .conststring                             0x0803bbd4   Section        6  pages.o(.conststring)
    .conststring                             0x0803bbdc   Section      125  edit.o(.conststring)
    .conststring                             0x0803bc5c   Section        5  view.o(.conststring)
    .conststring                             0x0803bc64   Section        9  spin_box.o(.conststring)
    .conststring                             0x0803bc70   Section       38  dragger.o(.conststring)
    .conststring                             0x0803bc98   Section       14  dialog_client.o(.conststring)
    .conststring                             0x0803bca8   Section       13  dialog_title.o(.conststring)
    .conststring                             0x0803bcb8   Section     2657  color_parser.o(.conststring)
    .conststring                             0x0803c71c   Section       38  combo_box.o(.conststring)
    .conststring                             0x0803c744   Section       15  combo_box_item.o(.conststring)
    .conststring                             0x0803c754   Section       54  popup.o(.conststring)
    .conststring                             0x0803c78c   Section       11  tab_button.o(.conststring)
    .conststring                             0x0803c798   Section       17  tab_button_group.o(.conststring)
    .conststring                             0x0803c7ac   Section       12  tab_control.o(.conststring)
    .conststring                             0x0803c7b8   Section       11  color_tile.o(.conststring)
    c$$dinf                                  0x0803c7e4   Section        8  fpconst.o(c$$dinf)
    c$$dmax                                  0x0803c7ec   Section        8  fpconst.o(c$$dmax)
    locale$$data                             0x0803c7f4   Section      272  lc_ctype_c.o(locale$$data)
    __lcctype_c_name                         0x0803c7f8   Data           2  lc_ctype_c.o(locale$$data)
    __lcctype_c_start                        0x0803c800   Data           0  lc_ctype_c.o(locale$$data)
    locale$$data                             0x0803c904   Section       28  lc_numeric_c.o(locale$$data)
    __lcctype_c_end                          0x0803c904   Data           0  lc_ctype_c.o(locale$$data)
    __lcnum_c_name                           0x0803c908   Data           2  lc_numeric_c.o(locale$$data)
    __lcnum_c_start                          0x0803c910   Data           0  lc_numeric_c.o(locale$$data)
    __lcnum_c_point                          0x0803c91c   Data           0  lc_numeric_c.o(locale$$data)
    __lcnum_c_thousands                      0x0803c91e   Data           0  lc_numeric_c.o(locale$$data)
    __lcnum_c_grouping                       0x0803c91f   Data           0  lc_numeric_c.o(locale$$data)
    __lcnum_c_end                            0x0803c920   Data           0  lc_numeric_c.o(locale$$data)
    .data                                    0x20000000   Section       20  system_stm32f10x.o(.data)
    .data                                    0x20000014   Section        6  usart.o(.data)
    .data                                    0x2000001a   Section       20  stm32f10x_rcc.o(.data)
    APBAHBPrescTable                         0x2000001a   Data          16  stm32f10x_rcc.o(.data)
    ADCPrescTable                            0x2000002a   Data           4  stm32f10x_rcc.o(.data)
    .data                                    0x2000002e   Section        1  led.o(.data)
    i                                        0x2000002e   Data           1  led.o(.data)
    .data                                    0x2000002f   Section        1  button.o(.data)
    key_up                                   0x2000002f   Data           1  button.o(.data)
    .data                                    0x20000030   Section        4  tim.o(.data)
    .data                                    0x20000034   Section       10  rtc.o(.data)
    daycnt                                   0x2000003c   Data           2  rtc.o(.data)
    .data                                    0x2000003e   Section        8  touch.o(.data)
    .data                                    0x20000048   Section        8  button_1.o(.data)
    s_button_properties                      0x20000048   Data           8  button_1.o(.data)
    .data                                    0x20000050   Section        8  check_button.o(.data)
    s_check_button_properties                0x20000050   Data           8  check_button.o(.data)
    .data                                    0x20000058   Section       16  dialog.o(.data)
    s_dialog_properties                      0x20000058   Data          16  dialog.o(.data)
    .data                                    0x20000068   Section        4  font_manager.o(.data)
    s_font_manager                           0x20000068   Data           4  font_manager.o(.data)
    .data                                    0x2000006c   Section       40  image.o(.data)
    s_image_clone_properties                 0x2000006c   Data          40  image.o(.data)
    .data                                    0x20000094   Section        4  image_manager.o(.data)
    s_image_manager                          0x20000094   Data           4  image_manager.o(.data)
    .data                                    0x20000098   Section        4  main_loop.o(.data)
    s_default_main_loop                      0x20000098   Data           4  main_loop.o(.data)
    .data                                    0x2000009c   Section       16  progress_bar.o(.data)
    s_progress_bar_clone_properties          0x2000009c   Data          16  progress_bar.o(.data)
    .data                                    0x200000ac   Section        4  theme.o(.data)
    s_theme                                  0x200000ac   Data           4  theme.o(.data)
    .data                                    0x200000b0   Section        4  window_manager.o(.data)
    s_window_manager                         0x200000b0   Data           4  window_manager.o(.data)
    .data                                    0x200000b4   Section      241  utils.o(.data)
    stbsp__period                            0x200000b4   Data           1  utils.o(.data)
    stbsp__comma                             0x200000b5   Data           1  utils.o(.data)
    stbsp__digitpair                         0x200000b6   Data         201  utils.o(.data)
    hex                                      0x2000017f   Data          19  utils.o(.data)
    hexu                                     0x20000192   Data          19  utils.o(.data)
    .data                                    0x200001a8   Section        4  timer.o(.data)
    s_timer_manager                          0x200001a8   Data           4  timer.o(.data)
    .data                                    0x200001ac   Section       24  slider.o(.data)
    s_slider_properties                      0x200001ac   Data          24  slider.o(.data)
    .data                                    0x200001c4   Section        4  idle.o(.data)
    s_idle_manager                           0x200001c4   Data           4  idle.o(.data)
    .data                                    0x200001c8   Section        8  pages.o(.data)
    s_pages_clone_properties                 0x200001c8   Data           8  pages.o(.data)
    .data                                    0x200001d0   Section       56  edit.o(.data)
    .data                                    0x20000208   Section        4  widget_factory.o(.data)
    s_widget_factory                         0x20000208   Data           4  widget_factory.o(.data)
    .data                                    0x2000020c   Section        4  input_method.o(.data)
    s_input_method                           0x2000020c   Data           4  input_method.o(.data)
    .data                                    0x20000210   Section       20  dragger.o(.data)
    s_dragger_clone_properties               0x20000210   Data          20  dragger.o(.data)
    .data                                    0x20000224   Section     1120  color_parser.o(.data)
    colors_map                               0x20000224   Data        1120  color_parser.o(.data)
    .data                                    0x20000684   Section       60  combo_box.o(.data)
    .data                                    0x200006c0   Section       24  popup.o(.data)
    s_popup_clone_properties                 0x200006c0   Data          24  popup.o(.data)
    .data                                    0x200006d8   Section        8  tab_button.o(.data)
    s_tab_button_clone_properties            0x200006d8   Data           8  tab_button.o(.data)
    .data                                    0x200006e0   Section       12  color_tile.o(.data)
    s_color_tile_properties                  0x200006e0   Data          12  color_tile.o(.data)
    .data                                    0x200006ec   Section        4  assets_manager.o(.data)
    s_assets_manager                         0x200006ec   Data           4  assets_manager.o(.data)
    .data                                    0x200006f0   Section        4  locale_info.o(.data)
    s_locale                                 0x200006f0   Data           4  locale_info.o(.data)
    .data                                    0x200006f4   Section        4  mutex_null.o(.data)
    s_tk_mutex_null                          0x200006f4   Data           4  mutex_null.o(.data)
    .data                                    0x200006f8   Section        4  sys_tick.o(.data)
    g_sys_tick                               0x200006f8   Data           4  sys_tick.o(.data)
    .bss                                     0x200006fc   Section      200  usart.o(.bss)
    .bss                                     0x200007c4   Section       10  rtc.o(.bss)
    .bss                                     0x200007d0   Section       12  touch.o(.bss)
    TouchAdj                                 0x200007d0   Data          12  touch.o(.bss)
    .bss                                     0x200007dc   Section     4096  flash.o(.bss)
    flashBuff                                0x200007dc   Data        4096  flash.o(.bss)
    .bss                                     0x200017dc   Section       16  mem.o(.bss)
    s_mem_info                               0x200017dc   Data          16  mem.o(.bss)
    .bss                                     0x200017ec   Section       28  system_info.o(.bss)
    info                                     0x200017ec   Data          28  system_info.o(.bss)
    .bss                                     0x20001808   Section      140  main_loop_simple.o(.bss)
    s_main_loop_simple                       0x20001808   Data         140  main_loop_simple.o(.bss)
    .bss                                     0x20001894   Section       36  ui_builder_default.o(.bss)
    s_ui_builder                             0x20001894   Data          36  ui_builder_default.o(.bss)
    .bss                                     0x200018b8   Section     8192  platform.o(.bss)
    s_heam_mem                               0x200018b8   Data        8192  platform.o(.bss)
    .bss                                     0x200038b8   Section       96  libspace.o(.bss)
    HEAP                                     0x20003918   Section      512  startup_stm32f10x_hd.o(HEAP)
    Heap_Mem                                 0x20003918   Data         512  startup_stm32f10x_hd.o(HEAP)
    STACK                                    0x20003b18   Section     1024  startup_stm32f10x_hd.o(STACK)
    Stack_Mem                                0x20003b18   Data        1024  startup_stm32f10x_hd.o(STACK)
    __initial_sp                             0x20003f18   Data           0  startup_stm32f10x_hd.o(STACK)

    Global Symbols

    Symbol Name                              Value     Ov Type        Size  Object(Section)

    BuildAttributes$$THM_ISAv4$P$D$K$B$S$PE$A:L22UL41UL21$X:L11$S22US41US21$IEEE1$IW$USESV6$~STKCKD$USESV7$~SHL$OTIME$ROPI$IEEEX$EBA8$UX$STANDARDLIB$REQ8$PRES8$EABIv2 0x00000000   Number         0  anon$$obj.o ABSOLUTE
    __ARM_use_no_argv                        0x00000000   Number         0  main.o ABSOLUTE
    __ARM_exceptions_init                     - Undefined Weak Reference
    __alloca_initialize                       - Undefined Weak Reference
    __arm_preinit_                            - Undefined Weak Reference
    __cpp_initialize__aeabi_                  - Undefined Weak Reference
    __cxa_finalize                            - Undefined Weak Reference
    __sigvec_lookup                           - Undefined Weak Reference
    _atexit_init                              - Undefined Weak Reference
    _call_atexit_fns                          - Undefined Weak Reference
    _clock_init                               - Undefined Weak Reference
    _fp_trap_init                             - Undefined Weak Reference
    _fp_trap_shutdown                         - Undefined Weak Reference
    _get_lc_collate                           - Undefined Weak Reference
    _get_lc_monetary                          - Undefined Weak Reference
    _get_lc_time                              - Undefined Weak Reference
    _getenv_init                              - Undefined Weak Reference
    _handle_redirection                       - Undefined Weak Reference
    _init_alloc                               - Undefined Weak Reference
    _init_user_alloc                          - Undefined Weak Reference
    _initio                                   - Undefined Weak Reference
    _mutex_acquire                            - Undefined Weak Reference
    _mutex_release                            - Undefined Weak Reference
    _printf_post_padding                      - Undefined Weak Reference
    _printf_pre_padding                       - Undefined Weak Reference
    _printf_truncate_signed                   - Undefined Weak Reference
    _printf_truncate_unsigned                 - Undefined Weak Reference
    _rand_init                                - Undefined Weak Reference
    _signal_finish                            - Undefined Weak Reference
    _signal_init                              - Undefined Weak Reference
    _terminate_alloc                          - Undefined Weak Reference
    _terminate_user_alloc                     - Undefined Weak Reference
    _terminateio                              - Undefined Weak Reference
    __Vectors_Size                           0x00000130   Number         0  startup_stm32f10x_hd.o ABSOLUTE
    __Vectors                                0x08000000   Data           4  startup_stm32f10x_hd.o(RESET)
    __Vectors_End                            0x08000130   Data           0  startup_stm32f10x_hd.o(RESET)
    __main                                   0x08000131   Thumb Code     8  __main.o(!!!main)
    __scatterload                            0x08000139   Thumb Code     0  __scatter.o(!!!scatter)
    __scatterload_rt2                        0x08000139   Thumb Code    44  __scatter.o(!!!scatter)
    __scatterload_rt2_thumb_only             0x08000139   Thumb Code     0  __scatter.o(!!!scatter)
    __scatterload_null                       0x08000147   Thumb Code     0  __scatter.o(!!!scatter)
    __decompress                             0x0800016d   Thumb Code   100  __dclz77c.o(!!dclz77c)
    __decompress2                            0x0800016d   Thumb Code     0  __dclz77c.o(!!dclz77c)
    __scatterload_zeroinit                   0x080001d1   Thumb Code    28  __scatter_zi.o(!!handler_zi)
    _printf_d                                0x080001ed   Thumb Code     0  _printf_d.o(.ARM.Collect$$_printf_percent$$00000009)
    _printf_percent                          0x080001ed   Thumb Code     0  _printf_percent.o(.ARM.Collect$$_printf_percent$$00000000)
    _printf_percent_end                      0x080001f3   Thumb Code     0  _printf_percent_end.o(.ARM.Collect$$_printf_percent$$00000017)
    __rt_lib_init                            0x080001f7   Thumb Code     0  libinit.o(.ARM.Collect$$libinit$$00000000)
    __rt_lib_init_fp_1                       0x080001f9   Thumb Code     0  libinit2.o(.ARM.Collect$$libinit$$00000002)
    __rt_lib_init_heap_1                     0x080001f9   Thumb Code     0  libinit2.o(.ARM.Collect$$libinit$$0000000A)
    __rt_lib_init_lc_common                  0x080001f9   Thumb Code     0  libinit2.o(.ARM.Collect$$libinit$$0000000F)
    __rt_lib_init_preinit_1                  0x080001f9   Thumb Code     0  libinit2.o(.ARM.Collect$$libinit$$00000004)
    __rt_lib_init_rand_1                     0x080001f9   Thumb Code     0  libinit2.o(.ARM.Collect$$libinit$$0000000E)
    __rt_lib_init_user_alloc_1               0x080001f9   Thumb Code     0  libinit2.o(.ARM.Collect$$libinit$$0000000C)
    __rt_lib_init_lc_collate_1               0x080001ff   Thumb Code     0  libinit2.o(.ARM.Collect$$libinit$$00000011)
    __rt_lib_init_lc_ctype_2                 0x080001ff   Thumb Code     0  libinit2.o(.ARM.Collect$$libinit$$00000012)
    __rt_lib_init_lc_ctype_1                 0x0800020b   Thumb Code     0  libinit2.o(.ARM.Collect$$libinit$$00000013)
    __rt_lib_init_lc_monetary_1              0x0800020b   Thumb Code     0  libinit2.o(.ARM.Collect$$libinit$$00000015)
    __rt_lib_init_lc_numeric_2               0x0800020b   Thumb Code     0  libinit2.o(.ARM.Collect$$libinit$$00000016)
    __rt_lib_init_alloca_1                   0x08000215   Thumb Code     0  libinit2.o(.ARM.Collect$$libinit$$0000002E)
    __rt_lib_init_argv_1                     0x08000215   Thumb Code     0  libinit2.o(.ARM.Collect$$libinit$$0000002C)
    __rt_lib_init_atexit_1                   0x08000215   Thumb Code     0  libinit2.o(.ARM.Collect$$libinit$$0000001B)
    __rt_lib_init_clock_1                    0x08000215   Thumb Code     0  libinit2.o(.ARM.Collect$$libinit$$00000021)
    __rt_lib_init_cpp_1                      0x08000215   Thumb Code     0  libinit2.o(.ARM.Collect$$libinit$$00000032)
    __rt_lib_init_exceptions_1               0x08000215   Thumb Code     0  libinit2.o(.ARM.Collect$$libinit$$00000030)
    __rt_lib_init_fp_trap_1                  0x08000215   Thumb Code     0  libinit2.o(.ARM.Collect$$libinit$$0000001F)
    __rt_lib_init_getenv_1                   0x08000215   Thumb Code     0  libinit2.o(.ARM.Collect$$libinit$$00000023)
    __rt_lib_init_lc_numeric_1               0x08000215   Thumb Code     0  libinit2.o(.ARM.Collect$$libinit$$00000017)
    __rt_lib_init_lc_time_1                  0x08000215   Thumb Code     0  libinit2.o(.ARM.Collect$$libinit$$00000019)
    __rt_lib_init_return                     0x08000215   Thumb Code     0  libinit2.o(.ARM.Collect$$libinit$$00000033)
    __rt_lib_init_signal_1                   0x08000215   Thumb Code     0  libinit2.o(.ARM.Collect$$libinit$$0000001D)
    __rt_lib_init_stdio_1                    0x08000215   Thumb Code     0  libinit2.o(.ARM.Collect$$libinit$$00000025)
    __rt_lib_shutdown                        0x08000217   Thumb Code     0  libshutdown.o(.ARM.Collect$$libshutdown$$00000000)
    __rt_lib_shutdown_cpp_1                  0x08000219   Thumb Code     0  libshutdown2.o(.ARM.Collect$$libshutdown$$00000002)
    __rt_lib_shutdown_fp_trap_1              0x08000219   Thumb Code     0  libshutdown2.o(.ARM.Collect$$libshutdown$$00000007)
    __rt_lib_shutdown_heap_1                 0x08000219   Thumb Code     0  libshutdown2.o(.ARM.Collect$$libshutdown$$0000000F)
    __rt_lib_shutdown_return                 0x08000219   Thumb Code     0  libshutdown2.o(.ARM.Collect$$libshutdown$$00000010)
    __rt_lib_shutdown_signal_1               0x08000219   Thumb Code     0  libshutdown2.o(.ARM.Collect$$libshutdown$$0000000A)
    __rt_lib_shutdown_stdio_1                0x08000219   Thumb Code     0  libshutdown2.o(.ARM.Collect$$libshutdown$$00000004)
    __rt_lib_shutdown_user_alloc_1           0x08000219   Thumb Code     0  libshutdown2.o(.ARM.Collect$$libshutdown$$0000000C)
    __rt_entry                               0x0800021b   Thumb Code     0  __rtentry.o(.ARM.Collect$$rtentry$$00000000)
    __rt_entry_presh_1                       0x0800021b   Thumb Code     0  __rtentry2.o(.ARM.Collect$$rtentry$$00000002)
    __rt_entry_sh                            0x0800021b   Thumb Code     0  __rtentry4.o(.ARM.Collect$$rtentry$$00000004)
    __rt_entry_li                            0x08000221   Thumb Code     0  __rtentry2.o(.ARM.Collect$$rtentry$$0000000A)
    __rt_entry_postsh_1                      0x08000221   Thumb Code     0  __rtentry2.o(.ARM.Collect$$rtentry$$00000009)
    __rt_entry_main                          0x08000225   Thumb Code     0  __rtentry2.o(.ARM.Collect$$rtentry$$0000000D)
    __rt_entry_postli_1                      0x08000225   Thumb Code     0  __rtentry2.o(.ARM.Collect$$rtentry$$0000000C)
    __rt_exit                                0x0800022d   Thumb Code     0  rtexit.o(.ARM.Collect$$rtexit$$00000000)
    __rt_exit_ls                             0x0800022f   Thumb Code     0  rtexit2.o(.ARM.Collect$$rtexit$$00000003)
    __rt_exit_prels_1                        0x0800022f   Thumb Code     0  rtexit2.o(.ARM.Collect$$rtexit$$00000002)
    __rt_exit_exit                           0x08000233   Thumb Code     0  rtexit2.o(.ARM.Collect$$rtexit$$00000004)
    NMI_Handler                              0x08000239   Thumb Code     2  stm32f10x_it.o(.text)
    HardFault_Handler                        0x0800023b   Thumb Code     4  stm32f10x_it.o(.text)
    MemManage_Handler                        0x0800023f   Thumb Code     4  stm32f10x_it.o(.text)
    BusFault_Handler                         0x08000243   Thumb Code     4  stm32f10x_it.o(.text)
    UsageFault_Handler                       0x08000247   Thumb Code     4  stm32f10x_it.o(.text)
    SVC_Handler                              0x0800024b   Thumb Code     2  stm32f10x_it.o(.text)
    DebugMon_Handler                         0x0800024d   Thumb Code     2  stm32f10x_it.o(.text)
    PendSV_Handler                           0x0800024f   Thumb Code     2  stm32f10x_it.o(.text)
    SystemInit                               0x0800032f   Thumb Code    78  system_stm32f10x.o(.text)
    SystemCoreClockUpdate                    0x0800037d   Thumb Code   142  system_stm32f10x.o(.text)
    main                                     0x08000431   Thumb Code    68  main.o(.text)
    _sys_exit                                0x08000475   Thumb Code     4  usart.o(.text)
    fputc                                    0x08000479   Thumb Code     2  usart.o(.text)
    uart_init                                0x0800047b   Thumb Code   152  usart.o(.text)
    USART1_IRQHandler                        0x08000513   Thumb Code   122  usart.o(.text)
    Reset_Handler                            0x0800059d   Thumb Code     8  startup_stm32f10x_hd.o(.text)
    ADC1_2_IRQHandler                        0x080005b7   Thumb Code     0  startup_stm32f10x_hd.o(.text)
    ADC3_IRQHandler                          0x080005b7   Thumb Code     0  startup_stm32f10x_hd.o(.text)
    CAN1_RX1_IRQHandler                      0x080005b7   Thumb Code     0  startup_stm32f10x_hd.o(.text)
    CAN1_SCE_IRQHandler                      0x080005b7   Thumb Code     0  startup_stm32f10x_hd.o(.text)
    DMA1_Channel1_IRQHandler                 0x080005b7   Thumb Code     0  startup_stm32f10x_hd.o(.text)
    DMA1_Channel2_IRQHandler                 0x080005b7   Thumb Code     0  startup_stm32f10x_hd.o(.text)
    DMA1_Channel3_IRQHandler                 0x080005b7   Thumb Code     0  startup_stm32f10x_hd.o(.text)
    DMA1_Channel4_IRQHandler                 0x080005b7   Thumb Code     0  startup_stm32f10x_hd.o(.text)
    DMA1_Channel5_IRQHandler                 0x080005b7   Thumb Code     0  startup_stm32f10x_hd.o(.text)
    DMA1_Channel6_IRQHandler                 0x080005b7   Thumb Code     0  startup_stm32f10x_hd.o(.text)
    DMA1_Channel7_IRQHandler                 0x080005b7   Thumb Code     0  startup_stm32f10x_hd.o(.text)
    DMA2_Channel1_IRQHandler                 0x080005b7   Thumb Code     0  startup_stm32f10x_hd.o(.text)
    DMA2_Channel2_IRQHandler                 0x080005b7   Thumb Code     0  startup_stm32f10x_hd.o(.text)
    DMA2_Channel3_IRQHandler                 0x080005b7   Thumb Code     0  startup_stm32f10x_hd.o(.text)
    DMA2_Channel4_5_IRQHandler               0x080005b7   Thumb Code     0  startup_stm32f10x_hd.o(.text)
    EXTI0_IRQHandler                         0x080005b7   Thumb Code     0  startup_stm32f10x_hd.o(.text)
    EXTI15_10_IRQHandler                     0x080005b7   Thumb Code     0  startup_stm32f10x_hd.o(.text)
    EXTI1_IRQHandler                         0x080005b7   Thumb Code     0  startup_stm32f10x_hd.o(.text)
    EXTI2_IRQHandler                         0x080005b7   Thumb Code     0  startup_stm32f10x_hd.o(.text)
    EXTI3_IRQHandler                         0x080005b7   Thumb Code     0  startup_stm32f10x_hd.o(.text)
    EXTI4_IRQHandler                         0x080005b7   Thumb Code     0  startup_stm32f10x_hd.o(.text)
    EXTI9_5_IRQHandler                       0x080005b7   Thumb Code     0  startup_stm32f10x_hd.o(.text)
    FLASH_IRQHandler                         0x080005b7   Thumb Code     0  startup_stm32f10x_hd.o(.text)
    FSMC_IRQHandler                          0x080005b7   Thumb Code     0  startup_stm32f10x_hd.o(.text)
    I2C1_ER_IRQHandler                       0x080005b7   Thumb Code     0  startup_stm32f10x_hd.o(.text)
    I2C1_EV_IRQHandler                       0x080005b7   Thumb Code     0  startup_stm32f10x_hd.o(.text)
    I2C2_ER_IRQHandler                       0x080005b7   Thumb Code     0  startup_stm32f10x_hd.o(.text)
    I2C2_EV_IRQHandler                       0x080005b7   Thumb Code     0  startup_stm32f10x_hd.o(.text)
    PVD_IRQHandler                           0x080005b7   Thumb Code     0  startup_stm32f10x_hd.o(.text)
    RCC_IRQHandler                           0x080005b7   Thumb Code     0  startup_stm32f10x_hd.o(.text)
    RTCAlarm_IRQHandler                      0x080005b7   Thumb Code     0  startup_stm32f10x_hd.o(.text)
    SDIO_IRQHandler                          0x080005b7   Thumb Code     0  startup_stm32f10x_hd.o(.text)
    SPI1_IRQHandler                          0x080005b7   Thumb Code     0  startup_stm32f10x_hd.o(.text)
    SPI2_IRQHandler                          0x080005b7   Thumb Code     0  startup_stm32f10x_hd.o(.text)
    SPI3_IRQHandler                          0x080005b7   Thumb Code     0  startup_stm32f10x_hd.o(.text)
    TAMPER_IRQHandler                        0x080005b7   Thumb Code     0  startup_stm32f10x_hd.o(.text)
    TIM1_BRK_IRQHandler                      0x080005b7   Thumb Code     0  startup_stm32f10x_hd.o(.text)
    TIM1_CC_IRQHandler                       0x080005b7   Thumb Code     0  startup_stm32f10x_hd.o(.text)
    TIM1_TRG_COM_IRQHandler                  0x080005b7   Thumb Code     0  startup_stm32f10x_hd.o(.text)
    TIM1_UP_IRQHandler                       0x080005b7   Thumb Code     0  startup_stm32f10x_hd.o(.text)
    TIM2_IRQHandler                          0x080005b7   Thumb Code     0  startup_stm32f10x_hd.o(.text)
    TIM4_IRQHandler                          0x080005b7   Thumb Code     0  startup_stm32f10x_hd.o(.text)
    TIM6_IRQHandler                          0x080005b7   Thumb Code     0  startup_stm32f10x_hd.o(.text)
    TIM7_IRQHandler                          0x080005b7   Thumb Code     0  startup_stm32f10x_hd.o(.text)
    TIM8_BRK_IRQHandler                      0x080005b7   Thumb Code     0  startup_stm32f10x_hd.o(.text)
    TIM8_CC_IRQHandler                       0x080005b7   Thumb Code     0  startup_stm32f10x_hd.o(.text)
    TIM8_TRG_COM_IRQHandler                  0x080005b7   Thumb Code     0  startup_stm32f10x_hd.o(.text)
    TIM8_UP_IRQHandler                       0x080005b7   Thumb Code     0  startup_stm32f10x_hd.o(.text)
    UART4_IRQHandler                         0x080005b7   Thumb Code     0  startup_stm32f10x_hd.o(.text)
    UART5_IRQHandler                         0x080005b7   Thumb Code     0  startup_stm32f10x_hd.o(.text)
    USART2_IRQHandler                        0x080005b7   Thumb Code     0  startup_stm32f10x_hd.o(.text)
    USART3_IRQHandler                        0x080005b7   Thumb Code     0  startup_stm32f10x_hd.o(.text)
    USBWakeUp_IRQHandler                     0x080005b7   Thumb Code     0  startup_stm32f10x_hd.o(.text)
    USB_HP_CAN1_TX_IRQHandler                0x080005b7   Thumb Code     0  startup_stm32f10x_hd.o(.text)
    USB_LP_CAN1_RX0_IRQHandler               0x080005b7   Thumb Code     0  startup_stm32f10x_hd.o(.text)
    WWDG_IRQHandler                          0x080005b7   Thumb Code     0  startup_stm32f10x_hd.o(.text)
    __user_initial_stackheap                 0x080005b9   Thumb Code     0  startup_stm32f10x_hd.o(.text)
    NVIC_PriorityGroupConfig                 0x080005dd   Thumb Code    10  misc.o(.text)
    NVIC_Init                                0x080005e7   Thumb Code   100  misc.o(.text)
    NVIC_SetVectorTable                      0x0800064b   Thumb Code    14  misc.o(.text)
    NVIC_SystemLPConfig                      0x08000659   Thumb Code    34  misc.o(.text)
    SysTick_CLKSourceConfig                  0x0800067b   Thumb Code    40  misc.o(.text)
    GPIO_DeInit                              0x080006b9   Thumb Code   172  stm32f10x_gpio.o(.text)
    GPIO_AFIODeInit                          0x08000765   Thumb Code    20  stm32f10x_gpio.o(.text)
    GPIO_Init                                0x08000779   Thumb Code   278  stm32f10x_gpio.o(.text)
    GPIO_StructInit                          0x0800088f   Thumb Code    16  stm32f10x_gpio.o(.text)
    GPIO_ReadInputDataBit                    0x0800089f   Thumb Code    18  stm32f10x_gpio.o(.text)
    GPIO_ReadInputData                       0x080008b1   Thumb Code     8  stm32f10x_gpio.o(.text)
    GPIO_ReadOutputDataBit                   0x080008b9   Thumb Code    18  stm32f10x_gpio.o(.text)
    GPIO_ReadOutputData                      0x080008cb   Thumb Code     8  stm32f10x_gpio.o(.text)
    GPIO_SetBits                             0x080008d3   Thumb Code     4  stm32f10x_gpio.o(.text)
    GPIO_ResetBits                           0x080008d7   Thumb Code     4  stm32f10x_gpio.o(.text)
    GPIO_WriteBit                            0x080008db   Thumb Code    10  stm32f10x_gpio.o(.text)
    GPIO_Write                               0x080008e5   Thumb Code     4  stm32f10x_gpio.o(.text)
    GPIO_PinLockConfig                       0x080008e9   Thumb Code    18  stm32f10x_gpio.o(.text)
    GPIO_EventOutputConfig                   0x080008fb   Thumb Code    26  stm32f10x_gpio.o(.text)
    GPIO_EventOutputCmd                      0x08000915   Thumb Code     6  stm32f10x_gpio.o(.text)
    GPIO_PinRemapConfig                      0x0800091b   Thumb Code   138  stm32f10x_gpio.o(.text)
    GPIO_EXTILineConfig                      0x080009a5   Thumb Code    66  stm32f10x_gpio.o(.text)
    GPIO_ETH_MediaInterfaceConfig            0x080009e7   Thumb Code     8  stm32f10x_gpio.o(.text)
    RCC_DeInit                               0x08000a15   Thumb Code    64  stm32f10x_rcc.o(.text)
    RCC_HSEConfig                            0x08000a55   Thumb Code    70  stm32f10x_rcc.o(.text)
    RCC_GetFlagStatus                        0x08000a9b   Thumb Code    56  stm32f10x_rcc.o(.text)
    RCC_WaitForHSEStartUp                    0x08000ad3   Thumb Code    56  stm32f10x_rcc.o(.text)
    RCC_AdjustHSICalibrationValue            0x08000b0b   Thumb Code    20  stm32f10x_rcc.o(.text)
    RCC_HSICmd                               0x08000b1f   Thumb Code     6  stm32f10x_rcc.o(.text)
    RCC_PLLConfig                            0x08000b25   Thumb Code    24  stm32f10x_rcc.o(.text)
    RCC_PLLCmd                               0x08000b3d   Thumb Code     6  stm32f10x_rcc.o(.text)
    RCC_SYSCLKConfig                         0x08000b43   Thumb Code    18  stm32f10x_rcc.o(.text)
    RCC_GetSYSCLKSource                      0x08000b55   Thumb Code    10  stm32f10x_rcc.o(.text)
    RCC_HCLKConfig                           0x08000b5f   Thumb Code    18  stm32f10x_rcc.o(.text)
    RCC_PCLK1Config                          0x08000b71   Thumb Code    18  stm32f10x_rcc.o(.text)
    RCC_PCLK2Config                          0x08000b83   Thumb Code    20  stm32f10x_rcc.o(.text)
    RCC_ITConfig                             0x08000b97   Thumb Code    26  stm32f10x_rcc.o(.text)
    RCC_USBCLKConfig                         0x08000bb1   Thumb Code     8  stm32f10x_rcc.o(.text)
    RCC_ADCCLKConfig                         0x08000bb9   Thumb Code    18  stm32f10x_rcc.o(.text)
    RCC_LSEConfig                            0x08000bcb   Thumb Code    50  stm32f10x_rcc.o(.text)
    RCC_LSICmd                               0x08000bfd   Thumb Code     6  stm32f10x_rcc.o(.text)
    RCC_RTCCLKConfig                         0x08000c03   Thumb Code    12  stm32f10x_rcc.o(.text)
    RCC_RTCCLKCmd                            0x08000c0f   Thumb Code     8  stm32f10x_rcc.o(.text)
    RCC_GetClocksFreq                        0x08000c17   Thumb Code   192  stm32f10x_rcc.o(.text)
    RCC_AHBPeriphClockCmd                    0x08000cd7   Thumb Code    26  stm32f10x_rcc.o(.text)
    RCC_APB2PeriphClockCmd                   0x08000cf1   Thumb Code    26  stm32f10x_rcc.o(.text)
    RCC_APB1PeriphClockCmd                   0x08000d0b   Thumb Code    26  stm32f10x_rcc.o(.text)
    RCC_APB2PeriphResetCmd                   0x08000d25   Thumb Code    26  stm32f10x_rcc.o(.text)
    RCC_APB1PeriphResetCmd                   0x08000d3f   Thumb Code    26  stm32f10x_rcc.o(.text)
    RCC_BackupResetCmd                       0x08000d59   Thumb Code     8  stm32f10x_rcc.o(.text)
    RCC_ClockSecuritySystemCmd               0x08000d61   Thumb Code     6  stm32f10x_rcc.o(.text)
    RCC_MCOConfig                            0x08000d67   Thumb Code     6  stm32f10x_rcc.o(.text)
    RCC_ClearFlag                            0x08000d6d   Thumb Code    14  stm32f10x_rcc.o(.text)
    RCC_GetITStatus                          0x08000d7b   Thumb Code    20  stm32f10x_rcc.o(.text)
    RCC_ClearITPendingBit                    0x08000d8f   Thumb Code     6  stm32f10x_rcc.o(.text)
    USART_DeInit                             0x08000db9   Thumb Code   134  stm32f10x_usart.o(.text)
    USART_Init                               0x08000e3f   Thumb Code   210  stm32f10x_usart.o(.text)
    USART_StructInit                         0x08000f11   Thumb Code    24  stm32f10x_usart.o(.text)
    USART_ClockInit                          0x08000f29   Thumb Code    34  stm32f10x_usart.o(.text)
    USART_ClockStructInit                    0x08000f4b   Thumb Code    12  stm32f10x_usart.o(.text)
    USART_Cmd                                0x08000f57   Thumb Code    24  stm32f10x_usart.o(.text)
    USART_ITConfig                           0x08000f6f   Thumb Code    74  stm32f10x_usart.o(.text)
    USART_DMACmd                             0x08000fb9   Thumb Code    18  stm32f10x_usart.o(.text)
    USART_SetAddress                         0x08000fcb   Thumb Code    18  stm32f10x_usart.o(.text)
    USART_WakeUpConfig                       0x08000fdd   Thumb Code    18  stm32f10x_usart.o(.text)
    USART_ReceiverWakeUpCmd                  0x08000fef   Thumb Code    24  stm32f10x_usart.o(.text)
    USART_LINBreakDetectLengthConfig         0x08001007   Thumb Code    18  stm32f10x_usart.o(.text)
    USART_LINCmd                             0x08001019   Thumb Code    24  stm32f10x_usart.o(.text)
    USART_SendData                           0x08001031   Thumb Code     8  stm32f10x_usart.o(.text)
    USART_ReceiveData                        0x08001039   Thumb Code    10  stm32f10x_usart.o(.text)
    USART_SendBreak                          0x08001043   Thumb Code    10  stm32f10x_usart.o(.text)
    USART_SetGuardTime                       0x0800104d   Thumb Code    16  stm32f10x_usart.o(.text)
    USART_SetPrescaler                       0x0800105d   Thumb Code    16  stm32f10x_usart.o(.text)
    USART_SmartCardCmd                       0x0800106d   Thumb Code    24  stm32f10x_usart.o(.text)
    USART_SmartCardNACKCmd                   0x08001085   Thumb Code    24  stm32f10x_usart.o(.text)
    USART_HalfDuplexCmd                      0x0800109d   Thumb Code    24  stm32f10x_usart.o(.text)
    USART_OverSampling8Cmd                   0x080010b5   Thumb Code    22  stm32f10x_usart.o(.text)
    USART_OneBitMethodCmd                    0x080010cb   Thumb Code    24  stm32f10x_usart.o(.text)
    USART_IrDAConfig                         0x080010e3   Thumb Code    18  stm32f10x_usart.o(.text)
    USART_IrDACmd                            0x080010f5   Thumb Code    24  stm32f10x_usart.o(.text)
    USART_GetFlagStatus                      0x0800110d   Thumb Code    26  stm32f10x_usart.o(.text)
    USART_ClearFlag                          0x08001127   Thumb Code    18  stm32f10x_usart.o(.text)
    USART_GetITStatus                        0x08001139   Thumb Code    84  stm32f10x_usart.o(.text)
    USART_ClearITPendingBit                  0x0800118d   Thumb Code    52  stm32f10x_usart.o(.text)
    TIM_DeInit                               0x080011c1   Thumb Code   424  stm32f10x_tim.o(.text)
    TIM_TimeBaseInit                         0x08001369   Thumb Code   122  stm32f10x_tim.o(.text)
    TIM_OC1Init                              0x080013e3   Thumb Code   132  stm32f10x_tim.o(.text)
    TIM_OC2Init                              0x08001467   Thumb Code   154  stm32f10x_tim.o(.text)
    TIM_OC3Init                              0x08001501   Thumb Code   150  stm32f10x_tim.o(.text)
    TIM_OC4Init                              0x08001597   Thumb Code   182  stm32f10x_tim.o(.text)
    TIM_SetIC4Prescaler                      0x0800164d   Thumb Code    26  stm32f10x_tim.o(.text)
    TIM_SetIC3Prescaler                      0x080016e9   Thumb Code    18  stm32f10x_tim.o(.text)
    TIM_SetIC2Prescaler                      0x08001775   Thumb Code    26  stm32f10x_tim.o(.text)
    TIM_SetIC1Prescaler                      0x08001811   Thumb Code    18  stm32f10x_tim.o(.text)
    TIM_ICInit                               0x0800188f   Thumb Code   150  stm32f10x_tim.o(.text)
    TIM_PWMIConfig                           0x08001925   Thumb Code   124  stm32f10x_tim.o(.text)
    TIM_BDTRConfig                           0x080019a1   Thumb Code    32  stm32f10x_tim.o(.text)
    TIM_TimeBaseStructInit                   0x080019c1   Thumb Code    18  stm32f10x_tim.o(.text)
    TIM_OCStructInit                         0x080019d3   Thumb Code    20  stm32f10x_tim.o(.text)
    TIM_ICStructInit                         0x080019e7   Thumb Code    18  stm32f10x_tim.o(.text)
    TIM_BDTRStructInit                       0x080019f9   Thumb Code    40  stm32f10x_tim.o(.text)
    TIM_Cmd                                  0x08001a21   Thumb Code    24  stm32f10x_tim.o(.text)
    TIM_CtrlPWMOutputs                       0x08001a39   Thumb Code    30  stm32f10x_tim.o(.text)
    TIM_ITConfig                             0x08001a57   Thumb Code    18  stm32f10x_tim.o(.text)
    TIM_GenerateEvent                        0x08001a69   Thumb Code     4  stm32f10x_tim.o(.text)
    TIM_DMAConfig                            0x08001a6d   Thumb Code    10  stm32f10x_tim.o(.text)
    TIM_DMACmd                               0x08001a77   Thumb Code    18  stm32f10x_tim.o(.text)
    TIM_InternalClockConfig                  0x08001a89   Thumb Code    12  stm32f10x_tim.o(.text)
    TIM_SelectInputTrigger                   0x08001a95   Thumb Code    18  stm32f10x_tim.o(.text)
    TIM_ITRxExternalClockConfig              0x08001aa7   Thumb Code    24  stm32f10x_tim.o(.text)
    TIM_TIxExternalClockConfig               0x08001abf   Thumb Code    62  stm32f10x_tim.o(.text)
    TIM_ETRConfig                            0x08001afd   Thumb Code    28  stm32f10x_tim.o(.text)
    TIM_ETRClockMode1Config                  0x08001b19   Thumb Code    54  stm32f10x_tim.o(.text)
    TIM_ETRClockMode2Config                  0x08001b4f   Thumb Code    32  stm32f10x_tim.o(.text)
    TIM_PrescalerConfig                      0x08001b6f   Thumb Code     6  stm32f10x_tim.o(.text)
    TIM_CounterModeConfig                    0x08001b75   Thumb Code    18  stm32f10x_tim.o(.text)
    TIM_EncoderInterfaceConfig               0x08001b87   Thumb Code    66  stm32f10x_tim.o(.text)
    TIM_ForcedOC1Config                      0x08001bc9   Thumb Code    18  stm32f10x_tim.o(.text)
    TIM_ForcedOC2Config                      0x08001bdb   Thumb Code    26  stm32f10x_tim.o(.text)
    TIM_ForcedOC3Config                      0x08001bf5   Thumb Code    18  stm32f10x_tim.o(.text)
    TIM_ForcedOC4Config                      0x08001c07   Thumb Code    26  stm32f10x_tim.o(.text)
    TIM_ARRPreloadConfig                     0x08001c21   Thumb Code    24  stm32f10x_tim.o(.text)
    TIM_SelectCOM                            0x08001c39   Thumb Code    24  stm32f10x_tim.o(.text)
    TIM_SelectCCDMA                          0x08001c51   Thumb Code    24  stm32f10x_tim.o(.text)
    TIM_CCPreloadControl                     0x08001c69   Thumb Code    24  stm32f10x_tim.o(.text)
    TIM_OC1PreloadConfig                     0x08001c81   Thumb Code    18  stm32f10x_tim.o(.text)
    TIM_OC2PreloadConfig                     0x08001c93   Thumb Code    26  stm32f10x_tim.o(.text)
    TIM_OC3PreloadConfig                     0x08001cad   Thumb Code    18  stm32f10x_tim.o(.text)
    TIM_OC4PreloadConfig                     0x08001cbf   Thumb Code    26  stm32f10x_tim.o(.text)
    TIM_OC1FastConfig                        0x08001cd9   Thumb Code    18  stm32f10x_tim.o(.text)
    TIM_OC2FastConfig                        0x08001ceb   Thumb Code    26  stm32f10x_tim.o(.text)
    TIM_OC3FastConfig                        0x08001d05   Thumb Code    18  stm32f10x_tim.o(.text)
    TIM_OC4FastConfig                        0x08001d17   Thumb Code    26  stm32f10x_tim.o(.text)
    TIM_ClearOC1Ref                          0x08001d31   Thumb Code    18  stm32f10x_tim.o(.text)
    TIM_ClearOC2Ref                          0x08001d43   Thumb Code    24  stm32f10x_tim.o(.text)
    TIM_ClearOC3Ref                          0x08001d5b   Thumb Code    18  stm32f10x_tim.o(.text)
    TIM_ClearOC4Ref                          0x08001d6d   Thumb Code    24  stm32f10x_tim.o(.text)
    TIM_OC1PolarityConfig                    0x08001d85   Thumb Code    18  stm32f10x_tim.o(.text)
    TIM_OC1NPolarityConfig                   0x08001d97   Thumb Code    18  stm32f10x_tim.o(.text)
    TIM_OC2PolarityConfig                    0x08001da9   Thumb Code    26  stm32f10x_tim.o(.text)
    TIM_OC2NPolarityConfig                   0x08001dc3   Thumb Code    26  stm32f10x_tim.o(.text)
    TIM_OC3PolarityConfig                    0x08001ddd   Thumb Code    26  stm32f10x_tim.o(.text)
    TIM_OC3NPolarityConfig                   0x08001df7   Thumb Code    26  stm32f10x_tim.o(.text)
    TIM_OC4PolarityConfig                    0x08001e11   Thumb Code    26  stm32f10x_tim.o(.text)
    TIM_CCxCmd                               0x08001e2b   Thumb Code    30  stm32f10x_tim.o(.text)
    TIM_CCxNCmd                              0x08001e49   Thumb Code    30  stm32f10x_tim.o(.text)
    TIM_SelectOCxM                           0x08001e67   Thumb Code    82  stm32f10x_tim.o(.text)
    TIM_UpdateDisableConfig                  0x08001eb9   Thumb Code    24  stm32f10x_tim.o(.text)
    TIM_UpdateRequestConfig                  0x08001ed1   Thumb Code    24  stm32f10x_tim.o(.text)
    TIM_SelectHallSensor                     0x08001ee9   Thumb Code    24  stm32f10x_tim.o(.text)
    TIM_SelectOnePulseMode                   0x08001f01   Thumb Code    18  stm32f10x_tim.o(.text)
    TIM_SelectOutputTrigger                  0x08001f13   Thumb Code    18  stm32f10x_tim.o(.text)
    TIM_SelectSlaveMode                      0x08001f25   Thumb Code    18  stm32f10x_tim.o(.text)
    TIM_SelectMasterSlaveMode                0x08001f37   Thumb Code    18  stm32f10x_tim.o(.text)
    TIM_SetCounter                           0x08001f49   Thumb Code     4  stm32f10x_tim.o(.text)
    TIM_SetAutoreload                        0x08001f4d   Thumb Code     4  stm32f10x_tim.o(.text)
    TIM_SetCompare1                          0x08001f51   Thumb Code     4  stm32f10x_tim.o(.text)
    TIM_SetCompare2                          0x08001f55   Thumb Code     4  stm32f10x_tim.o(.text)
    TIM_SetCompare3                          0x08001f59   Thumb Code     4  stm32f10x_tim.o(.text)
    TIM_SetCompare4                          0x08001f5d   Thumb Code     6  stm32f10x_tim.o(.text)
    TIM_SetClockDivision                     0x08001f63   Thumb Code    18  stm32f10x_tim.o(.text)
    TIM_GetCapture1                          0x08001f75   Thumb Code     6  stm32f10x_tim.o(.text)
    TIM_GetCapture2                          0x08001f7b   Thumb Code     6  stm32f10x_tim.o(.text)
    TIM_GetCapture3                          0x08001f81   Thumb Code     6  stm32f10x_tim.o(.text)
    TIM_GetCapture4                          0x08001f87   Thumb Code     8  stm32f10x_tim.o(.text)
    TIM_GetCounter                           0x08001f8f   Thumb Code     6  stm32f10x_tim.o(.text)
    TIM_GetPrescaler                         0x08001f95   Thumb Code     6  stm32f10x_tim.o(.text)
    TIM_GetFlagStatus                        0x08001f9b   Thumb Code    18  stm32f10x_tim.o(.text)
    TIM_ClearFlag                            0x08001fad   Thumb Code     6  stm32f10x_tim.o(.text)
    TIM_GetITStatus                          0x08001fb3   Thumb Code    34  stm32f10x_tim.o(.text)
    TIM_ClearITPendingBit                    0x08001fd5   Thumb Code     6  stm32f10x_tim.o(.text)
    FSMC_NORSRAMDeInit                       0x08001fdd   Thumb Code    54  stm32f10x_fsmc.o(.text)
    FSMC_NANDDeInit                          0x08002013   Thumb Code    62  stm32f10x_fsmc.o(.text)
    FSMC_PCCARDDeInit                        0x08002051   Thumb Code    36  stm32f10x_fsmc.o(.text)
    FSMC_NORSRAMInit                         0x08002075   Thumb Code   230  stm32f10x_fsmc.o(.text)
    FSMC_NANDInit                            0x0800215b   Thumb Code   132  stm32f10x_fsmc.o(.text)
    FSMC_PCCARDInit                          0x080021df   Thumb Code   130  stm32f10x_fsmc.o(.text)
    FSMC_NORSRAMStructInit                   0x08002261   Thumb Code   114  stm32f10x_fsmc.o(.text)
    FSMC_NANDStructInit                      0x080022d3   Thumb Code    54  stm32f10x_fsmc.o(.text)
    FSMC_PCCARDStructInit                    0x08002309   Thumb Code    60  stm32f10x_fsmc.o(.text)
    FSMC_NORSRAMCmd                          0x08002345   Thumb Code    46  stm32f10x_fsmc.o(.text)
    FSMC_NANDCmd                             0x08002373   Thumb Code    86  stm32f10x_fsmc.o(.text)
    FSMC_PCCARDCmd                           0x080023c9   Thumb Code    44  stm32f10x_fsmc.o(.text)
    FSMC_NANDECCCmd                          0x080023f5   Thumb Code    90  stm32f10x_fsmc.o(.text)
    FSMC_GetECC                              0x0800244f   Thumb Code    24  stm32f10x_fsmc.o(.text)
    FSMC_ITConfig                            0x08002467   Thumb Code   128  stm32f10x_fsmc.o(.text)
    FSMC_GetFlagStatus                       0x080024e7   Thumb Code    54  stm32f10x_fsmc.o(.text)
    FSMC_ClearFlag                           0x0800251d   Thumb Code    62  stm32f10x_fsmc.o(.text)
    FSMC_GetITStatus                         0x0800255b   Thumb Code    64  stm32f10x_fsmc.o(.text)
    FSMC_ClearITPendingBit                   0x0800259b   Thumb Code    68  stm32f10x_fsmc.o(.text)
    BKP_DeInit                               0x080025e9   Thumb Code    16  stm32f10x_bkp.o(.text)
    BKP_TamperPinLevelConfig                 0x080025f9   Thumb Code     6  stm32f10x_bkp.o(.text)
    BKP_TamperPinCmd                         0x080025ff   Thumb Code     8  stm32f10x_bkp.o(.text)
    BKP_ITConfig                             0x08002607   Thumb Code     8  stm32f10x_bkp.o(.text)
    BKP_RTCOutputConfig                      0x0800260f   Thumb Code    22  stm32f10x_bkp.o(.text)
    BKP_SetRTCCalibrationValue               0x08002625   Thumb Code    22  stm32f10x_bkp.o(.text)
    BKP_WriteBackupRegister                  0x0800263b   Thumb Code    24  stm32f10x_bkp.o(.text)
    BKP_ReadBackupRegister                   0x08002653   Thumb Code    26  stm32f10x_bkp.o(.text)
    BKP_GetFlagStatus                        0x0800266d   Thumb Code    10  stm32f10x_bkp.o(.text)
    BKP_ClearFlag                            0x08002677   Thumb Code    18  stm32f10x_bkp.o(.text)
    BKP_GetITStatus                          0x08002689   Thumb Code    10  stm32f10x_bkp.o(.text)
    BKP_ClearITPendingBit                    0x08002693   Thumb Code    18  stm32f10x_bkp.o(.text)
    RTC_ITConfig                             0x080026ad   Thumb Code    26  stm32f10x_rtc.o(.text)
    RTC_EnterConfigMode                      0x080026c7   Thumb Code    18  stm32f10x_rtc.o(.text)
    RTC_ExitConfigMode                       0x080026d9   Thumb Code    20  stm32f10x_rtc.o(.text)
    RTC_GetCounter                           0x080026ed   Thumb Code    18  stm32f10x_rtc.o(.text)
    RTC_SetCounter                           0x080026ff   Thumb Code    26  stm32f10x_rtc.o(.text)
    RTC_SetPrescaler                         0x08002719   Thumb Code    28  stm32f10x_rtc.o(.text)
    RTC_SetAlarm                             0x08002735   Thumb Code    26  stm32f10x_rtc.o(.text)
    RTC_GetDivider                           0x0800274f   Thumb Code    22  stm32f10x_rtc.o(.text)
    RTC_WaitForLastTask                      0x08002765   Thumb Code    18  stm32f10x_rtc.o(.text)
    RTC_WaitForSynchro                       0x08002777   Thumb Code    36  stm32f10x_rtc.o(.text)
    RTC_GetFlagStatus                        0x0800279b   Thumb Code    22  stm32f10x_rtc.o(.text)
    RTC_ClearFlag                            0x080027b1   Thumb Code    16  stm32f10x_rtc.o(.text)
    RTC_GetITStatus                          0x080027c1   Thumb Code    32  stm32f10x_rtc.o(.text)
    RTC_ClearITPendingBit                    0x080027e1   Thumb Code    16  stm32f10x_rtc.o(.text)
    PWR_DeInit                               0x080027f5   Thumb Code    22  stm32f10x_pwr.o(.text)
    PWR_BackupAccessCmd                      0x0800280b   Thumb Code     6  stm32f10x_pwr.o(.text)
    PWR_PVDCmd                               0x08002811   Thumb Code     6  stm32f10x_pwr.o(.text)
    PWR_PVDLevelConfig                       0x08002817   Thumb Code    18  stm32f10x_pwr.o(.text)
    PWR_WakeUpPinCmd                         0x08002829   Thumb Code     8  stm32f10x_pwr.o(.text)
    PWR_EnterSTOPMode                        0x08002831   Thumb Code    54  stm32f10x_pwr.o(.text)
    PWR_EnterSTANDBYMode                     0x08002867   Thumb Code    42  stm32f10x_pwr.o(.text)
    PWR_GetFlagStatus                        0x08002891   Thumb Code    20  stm32f10x_pwr.o(.text)
    PWR_ClearFlag                            0x080028a5   Thumb Code    14  stm32f10x_pwr.o(.text)
    SPI_I2S_DeInit                           0x080028c1   Thumb Code    76  stm32f10x_spi.o(.text)
    SPI_Init                                 0x0800290d   Thumb Code    60  stm32f10x_spi.o(.text)
    I2S_Init                                 0x08002949   Thumb Code   226  stm32f10x_spi.o(.text)
    SPI_StructInit                           0x08002a2b   Thumb Code    24  stm32f10x_spi.o(.text)
    I2S_StructInit                           0x08002a43   Thumb Code    20  stm32f10x_spi.o(.text)
    SPI_Cmd                                  0x08002a57   Thumb Code    24  stm32f10x_spi.o(.text)
    I2S_Cmd                                  0x08002a6f   Thumb Code    24  stm32f10x_spi.o(.text)
    SPI_I2S_ITConfig                         0x08002a87   Thumb Code    32  stm32f10x_spi.o(.text)
    SPI_I2S_DMACmd                           0x08002aa7   Thumb Code    18  stm32f10x_spi.o(.text)
    SPI_I2S_SendData                         0x08002ab9   Thumb Code     4  stm32f10x_spi.o(.text)
    SPI_I2S_ReceiveData                      0x08002abd   Thumb Code     6  stm32f10x_spi.o(.text)
    SPI_NSSInternalSoftwareConfig            0x08002ac3   Thumb Code    30  stm32f10x_spi.o(.text)
    SPI_SSOutputCmd                          0x08002ae1   Thumb Code    24  stm32f10x_spi.o(.text)
    SPI_DataSizeConfig                       0x08002af9   Thumb Code    18  stm32f10x_spi.o(.text)
    SPI_TransmitCRC                          0x08002b0b   Thumb Code    10  stm32f10x_spi.o(.text)
    SPI_CalculateCRC                         0x08002b15   Thumb Code    24  stm32f10x_spi.o(.text)
    SPI_GetCRC                               0x08002b2d   Thumb Code    16  stm32f10x_spi.o(.text)
    SPI_GetCRCPolynomial                     0x08002b3d   Thumb Code     6  stm32f10x_spi.o(.text)
    SPI_BiDirectionalLineConfig              0x08002b43   Thumb Code    28  stm32f10x_spi.o(.text)
    SPI_I2S_GetFlagStatus                    0x08002b5f   Thumb Code    18  stm32f10x_spi.o(.text)
    SPI_I2S_ClearFlag                        0x08002b71   Thumb Code     6  stm32f10x_spi.o(.text)
    SPI_I2S_GetITStatus                      0x08002b77   Thumb Code    52  stm32f10x_spi.o(.text)
    SPI_I2S_ClearITPendingBit                0x08002bab   Thumb Code    20  stm32f10x_spi.o(.text)
    led_init                                 0x08002bcd   Thumb Code    50  led.o(.text)
    led_run                                  0x08002bff   Thumb Code   104  led.o(.text)
    TFT_GPIO_Config                          0x08002c71   Thumb Code    74  lcd_driver.o(.text)
    TFT_FSMC_Config                          0x08002cbb   Thumb Code    86  lcd_driver.o(.text)
    TFT_WriteCmd                             0x08002d11   Thumb Code     6  lcd_driver.o(.text)
    TFT_WriteData                            0x08002d17   Thumb Code     8  lcd_driver.o(.text)
    TFT_Init                                 0x08002d1f   Thumb Code   374  lcd_driver.o(.text)
    TFT_SetWindow                            0x08002e95   Thumb Code    74  lcd_driver.o(.text)
    TFT_ClearScreen                          0x08002edf   Thumb Code    56  lcd_driver.o(.text)
    button_init                              0x08002f29   Thumb Code    60  button.o(.text)
    keyscan                                  0x08002f65   Thumb Code   184  button.o(.text)
    tim3_pwm_init                            0x08003029   Thumb Code   134  tim.o(.text)
    TIM3_Init                                0x080030af   Thumb Code    94  tim.o(.text)
    tim5_input1_init                         0x0800310d   Thumb Code   140  tim.o(.text)
    TIM5_IRQHandler                          0x08003199   Thumb Code   180  tim.o(.text)
    RTC_NVIC_Config                          0x08003265   Thumb Code    32  rtc.o(.text)
    RTC_Get_Week                             0x08003285   Thumb Code   116  rtc.o(.text)
    Is_Leap_Year                             0x080032f9   Thumb Code    58  rtc.o(.text)
    RTC_Get                                  0x08003333   Thumb Code   240  rtc.o(.text)
    RTC_IRQHandler                           0x08003423   Thumb Code    82  rtc.o(.text)
    RTC_Set                                  0x08003475   Thumb Code   184  rtc.o(.text)
    rtc_init                                 0x0800352d   Thumb Code   158  rtc.o(.text)
    RTC_Alarm_Set                            0x080035cb   Thumb Code   184  rtc.o(.text)
    TOUCH_ReadData                           0x080036c5   Thumb Code   188  touch.o(.text)
    TOUCH_ReadXY                             0x08003781   Thumb Code   158  touch.o(.text)
    TOUCH_ReadAdjust                         0x0800381f   Thumb Code    92  touch.o(.text)
    TOUCH_Adjust                             0x0800387b   Thumb Code   358  touch.o(.text)
    TOUCH_Init                               0x080039e1   Thumb Code    84  touch.o(.text)
    TOUCH_Scan                               0x08003a35   Thumb Code   202  touch.o(.text)
    SPI1_Config                              0x08003b05   Thumb Code   130  spi.o(.text)
    SPI2_Config                              0x08003b87   Thumb Code   122  spi.o(.text)
    SPI1_SetSpeed                            0x08003c01   Thumb Code    36  spi.o(.text)
    SPI2_SetSpeed                            0x08003c25   Thumb Code    36  spi.o(.text)
    SPI1_WriteReadData                       0x08003c49   Thumb Code    68  spi.o(.text)
    SPI2_WriteReadData                       0x08003c8d   Thumb Code    68  spi.o(.text)
    GUI_Dot                                  0x08003ce1   Thumb Code    28  gui.o(.text)
    GUI_Line                                 0x08003cfd   Thumb Code   172  gui.o(.text)
    LCD_DrawRectangle                        0x08003da9   Thumb Code    74  gui.o(.text)
    LCD_Draw_Point                           0x08003df3   Thumb Code    20  gui.o(.text)
    Test_Show_CH_Font16                      0x08003e07   Thumb Code   146  gui.o(.text)
    Test_Show_CH_Font24                      0x08003e99   Thumb Code   188  gui.o(.text)
    TEST_FONT                                0x08003f55   Thumb Code    62  gui.o(.text)
    GUI_Box                                  0x08003f93   Thumb Code    92  gui.o(.text)
    GUI_DrowSign                             0x08003fef   Thumb Code   136  gui.o(.text)
    GUI_Show12ASCII                          0x08004077   Thumb Code   142  gui.o(.text)
    FLASH_ReadID                             0x08004111   Thumb Code    90  flash.o(.text)
    FLASH_Init                               0x0800416b   Thumb Code    92  flash.o(.text)
    FLASH_ReadData                           0x0800421b   Thumb Code   110  flash.o(.text)
    FLASH_ChipErase                          0x0800430d   Thumb Code    58  flash.o(.text)
    FLASH_WriteData                          0x080043e5   Thumb Code   188  flash.o(.text)
    array_init                               0x080044ad   Thumb Code    46  array.o(.text)
    array_create                             0x080044db   Thumb Code    48  array.o(.text)
    array_find_index                         0x08004543   Thumb Code    90  array.o(.text)
    array_remove                             0x0800459d   Thumb Code   110  array.o(.text)
    array_remove_all                         0x0800460b   Thumb Code   110  array.o(.text)
    array_find                               0x08004679   Thumb Code    40  array.o(.text)
    array_pop                                0x080046a1   Thumb Code    30  array.o(.text)
    array_push                               0x080046bf   Thumb Code    40  array.o(.text)
    array_deinit                             0x080046e7   Thumb Code    36  array.o(.text)
    array_destroy                            0x0800470b   Thumb Code    32  array.o(.text)
    bitmap_create                            0x0800472b   Thumb Code    26  bitmap.o(.text)
    bitmap_destroy                           0x08004745   Thumb Code    56  bitmap.o(.text)
    bitmap_rgba_to_rgb565                    0x0800477d   Thumb Code    78  bitmap.o(.text)
    bitmap_rgba_to_bgra                      0x080047cb   Thumb Code    52  bitmap.o(.text)
    wbuffer_init                             0x080047ff   Thumb Code    22  buffer.o(.text)
    wbuffer_skip                             0x08004815   Thumb Code    48  buffer.o(.text)
    wbuffer_write_uint8                      0x08004845   Thumb Code    40  buffer.o(.text)
    wbuffer_write_uint16                     0x0800486d   Thumb Code    50  buffer.o(.text)
    wbuffer_write_uint32                     0x0800489f   Thumb Code    44  buffer.o(.text)
    wbuffer_write_binary                     0x080048cb   Thumb Code    58  buffer.o(.text)
    wbuffer_write_string                     0x08004905   Thumb Code    32  buffer.o(.text)
    rbuffer_init                             0x08004925   Thumb Code    22  buffer.o(.text)
    rbuffer_has_more                         0x0800493b   Thumb Code    26  buffer.o(.text)
    rbuffer_skip                             0x08004955   Thumb Code    48  buffer.o(.text)
    rbuffer_read_uint8                       0x08004985   Thumb Code    44  buffer.o(.text)
    rbuffer_read_uint16                      0x080049b1   Thumb Code    48  buffer.o(.text)
    rbuffer_read_uint32                      0x080049e1   Thumb Code    48  buffer.o(.text)
    rbuffer_read_binary                      0x08004a11   Thumb Code    58  buffer.o(.text)
    rbuffer_read_string                      0x08004a4b   Thumb Code    44  buffer.o(.text)
    rbuffer_peek_uint8                       0x08004a77   Thumb Code    40  buffer.o(.text)
    rbuffer_peek_uint16                      0x08004a9f   Thumb Code    42  buffer.o(.text)
    rbuffer_peek_uint32                      0x08004ac9   Thumb Code    42  buffer.o(.text)
    button_set_repeat                        0x08004c41   Thumb Code    16  button_1.o(.text)
    button_create                            0x08004cf1   Thumb Code    60  button_1.o(.text)
    button_cast                              0x08004d2d   Thumb Code    20  button_1.o(.text)
    draw_line                                0x08004d51   Thumb Code  2622  canvas.o(.text)
    canvas_translate                         0x0800578f   Thumb Code    24  canvas.o(.text)
    canvas_untranslate                       0x080057a7   Thumb Code    24  canvas.o(.text)
    canvas_init                              0x080057bf   Thumb Code    34  canvas.o(.text)
    canvas_get_width                         0x080057e1   Thumb Code    14  canvas.o(.text)
    canvas_get_height                        0x080057ef   Thumb Code    14  canvas.o(.text)
    canvas_get_clip_rect                     0x080057fd   Thumb Code    38  canvas.o(.text)
    canvas_set_clip_rect                     0x08005823   Thumb Code   140  canvas.o(.text)
    canvas_set_clip_rect_ex                  0x080058af   Thumb Code    64  canvas.o(.text)
    canvas_set_fill_color                    0x080058ef   Thumb Code    22  canvas.o(.text)
    canvas_set_text_color                    0x08005905   Thumb Code    22  canvas.o(.text)
    canvas_set_stroke_color                  0x0800591b   Thumb Code    22  canvas.o(.text)
    canvas_set_global_alpha                  0x08005931   Thumb Code    24  canvas.o(.text)
    canvas_set_font                          0x08005949   Thumb Code    62  canvas.o(.text)
    canvas_set_text_align                    0x08005987   Thumb Code    24  canvas.o(.text)
    canvas_measure_text                      0x08005a11   Thumb Code    50  canvas.o(.text)
    canvas_begin_frame                       0x08005a43   Thumb Code    58  canvas.o(.text)
    canvas_draw_hline                        0x08005ae3   Thumb Code    38  canvas.o(.text)
    canvas_draw_vline                        0x08005b65   Thumb Code    38  canvas.o(.text)
    canvas_draw_line                         0x08005c27   Thumb Code    50  canvas.o(.text)
    canvas_draw_points                       0x08005d13   Thumb Code   120  canvas.o(.text)
    canvas_fill_rect                         0x08005e13   Thumb Code    46  canvas.o(.text)
    canvas_stroke_rect                       0x08005eb3   Thumb Code    46  canvas.o(.text)
    canvas_draw_char                         0x08005fbf   Thumb Code    38  canvas.o(.text)
    canvas_draw_text                         0x080060a9   Thumb Code    78  canvas.o(.text)
    canvas_draw_image                        0x08006243   Thumb Code    66  canvas.o(.text)
    canvas_draw_image_repeat                 0x08006285   Thumb Code   166  canvas.o(.text)
    canvas_draw_image_repeat_x               0x0800632b   Thumb Code   108  canvas.o(.text)
    canvas_draw_image_repeat_y               0x08006397   Thumb Code   108  canvas.o(.text)
    canvas_draw_image_patch3_y_scale_x       0x08006403   Thumb Code   304  canvas.o(.text)
    canvas_draw_image_patch3_y               0x08006533   Thumb Code   318  canvas.o(.text)
    canvas_draw_image_patch3_x_scale_y       0x08006671   Thumb Code   314  canvas.o(.text)
    canvas_draw_image_patch3_x               0x080067ab   Thumb Code   316  canvas.o(.text)
    canvas_draw_image_patch9                 0x080068e7   Thumb Code   798  canvas.o(.text)
    canvas_end_frame                         0x08006cdb   Thumb Code    24  canvas.o(.text)
    canvas_test_paint                        0x08006cf3   Thumb Code   212  canvas.o(.text)
    canvas_draw_image_scale_w                0x08006dc7   Thumb Code   226  canvas.o(.text)
    canvas_draw_image_scale_h                0x08006ea9   Thumb Code   226  canvas.o(.text)
    canvas_draw_image_scale                  0x08006f8b   Thumb Code   198  canvas.o(.text)
    canvas_draw_image_center                 0x08007051   Thumb Code   218  canvas.o(.text)
    canvas_draw_icon                         0x0800712b   Thumb Code   288  canvas.o(.text)
    canvas_draw_image_ex                     0x0800724b   Thumb Code   358  canvas.o(.text)
    canvas_draw_icon_in_rect                 0x080073b1   Thumb Code    48  canvas.o(.text)
    canvas_draw_image_at                     0x080073e1   Thumb Code   196  canvas.o(.text)
    canvas_set_fps                           0x080074a5   Thumb Code    16  canvas.o(.text)
    canvas_draw_text_in_rect                 0x080074b5   Thumb Code   184  canvas.o(.text)
    check_button_set_value                   0x080075b9   Thumb Code   118  check_button.o(.text)
    check_button_create                      0x0800772f   Thumb Code    68  check_button.o(.text)
    check_button_create_radio                0x08007773   Thumb Code    74  check_button.o(.text)
    check_button_cast                        0x080077bd   Thumb Code    28  check_button.o(.text)
    color_init                               0x080077e9   Thumb Code    28  color.o(.text)
    color_hex_str                            0x08007805   Thumb Code    38  color.o(.text)
    dialog_create                            0x080079f9   Thumb Code   114  dialog.o(.text)
    dialog_create_simple                     0x08007a6b   Thumb Code   130  dialog.o(.text)
    dialog_set_title                         0x08007aed   Thumb Code    26  dialog.o(.text)
    dialog_modal                             0x08007b27   Thumb Code    58  dialog.o(.text)
    dialog_quit                              0x08007b61   Thumb Code    34  dialog.o(.text)
    dialog_cast                              0x08007b83   Thumb Code    20  dialog.o(.text)
    dialog_get_title                         0x08007b97   Thumb Code    14  dialog.o(.text)
    dialog_get_client                        0x08007ba5   Thumb Code    14  dialog.o(.text)
    emitter_init                             0x08007c15   Thumb Code    28  emitter.o(.text)
    emitter_create                           0x08007c31   Thumb Code    20  emitter.o(.text)
    emitter_dispatch                         0x08007ca1   Thumb Code   136  emitter.o(.text)
    emitter_on                               0x08007d29   Thumb Code    68  emitter.o(.text)
    emitter_find                             0x08007d6d   Thumb Code    36  emitter.o(.text)
    emitter_size                             0x08007d91   Thumb Code    32  emitter.o(.text)
    emitter_off                              0x08007db1   Thumb Code    58  emitter.o(.text)
    emitter_off_by_func                      0x08007deb   Thumb Code    78  emitter.o(.text)
    emitter_enable                           0x08007e39   Thumb Code    16  emitter.o(.text)
    emitter_disable                          0x08007e49   Thumb Code    16  emitter.o(.text)
    emitter_deinit                           0x08007e59   Thumb Code    44  emitter.o(.text)
    emitter_destroy                          0x08007e85   Thumb Code    30  emitter.o(.text)
    emitter_set_on_destroy                   0x08007ea3   Thumb Code    38  emitter.o(.text)
    find_item                                0x08007ec9   Thumb Code    60  enums.o(.text)
    find_item_by_value                       0x08007f05   Thumb Code    44  enums.o(.text)
    style_id_find                            0x08007f31   Thumb Code    16  enums.o(.text)
    style_id_find_by_value                   0x08007f41   Thumb Code    16  enums.o(.text)
    widget_state_find                        0x08007f51   Thumb Code    16  enums.o(.text)
    align_v_type_find                        0x08007f61   Thumb Code    16  enums.o(.text)
    align_h_type_find                        0x08007f71   Thumb Code    16  enums.o(.text)
    asset_type_find                          0x08007f81   Thumb Code    16  enums.o(.text)
    asset_type_find_by_value                 0x08007f91   Thumb Code    16  enums.o(.text)
    image_draw_type_find                     0x08007fa1   Thumb Code    16  enums.o(.text)
    image_draw_type_find_by_value            0x08007fb1   Thumb Code    16  enums.o(.text)
    input_type_find                          0x08007fc1   Thumb Code    16  enums.o(.text)
    font_find_glyph                          0x08007fed   Thumb Code    42  font.o(.text)
    font_get_baseline                        0x08008017   Thumb Code    50  font.o(.text)
    font_match                               0x08008049   Thumb Code    30  font.o(.text)
    font_destroy                             0x08008067   Thumb Code    22  font.o(.text)
    font_manager                             0x08008085   Thumb Code     6  font_manager.o(.text)
    font_manager_set                         0x0800808b   Thumb Code    10  font_manager.o(.text)
    font_manager_init                        0x08008095   Thumb Code    22  font_manager.o(.text)
    font_manager_create                      0x080080ab   Thumb Code    20  font_manager.o(.text)
    font_manager_add                         0x080080bf   Thumb Code    24  font_manager.o(.text)
    font_manager_find                        0x080080d7   Thumb Code    76  font_manager.o(.text)
    font_manager_deinit                      0x08008123   Thumb Code    54  font_manager.o(.text)
    font_manager_destroy                     0x08008159   Thumb Code    30  font_manager.o(.text)
    group_box_create                         0x08008199   Thumb Code    58  group_box.o(.text)
    group_box_cast                           0x080081d3   Thumb Code    20  group_box.o(.text)
    image_set_draw_type                      0x080084f1   Thumb Code    18  image.o(.text)
    image_set_image_name                     0x08008531   Thumb Code    48  image.o(.text)
    image_create                             0x08008731   Thumb Code   190  image.o(.text)
    image_set_rotation                       0x080087ef   Thumb Code    26  image.o(.text)
    image_set_scale                          0x08008809   Thumb Code    34  image.o(.text)
    image_set_anchor                         0x0800882b   Thumb Code    34  image.o(.text)
    image_set_selected                       0x0800884d   Thumb Code    28  image.o(.text)
    image_set_selectable                     0x08008869   Thumb Code    28  image.o(.text)
    image_set_clickable                      0x08008885   Thumb Code    28  image.o(.text)
    image_manager                            0x080088a5   Thumb Code     6  image_manager.o(.text)
    image_manager_set                        0x080088ab   Thumb Code    10  image_manager.o(.text)
    image_manager_init                       0x080088b5   Thumb Code    26  image_manager.o(.text)
    image_manager_create                     0x080088cf   Thumb Code    30  image_manager.o(.text)
    image_manager_add                        0x080088ed   Thumb Code    96  image_manager.o(.text)
    image_manager_lookup                     0x0800894d   Thumb Code   106  image_manager.o(.text)
    image_manager_update_specific            0x080089b7   Thumb Code    70  image_manager.o(.text)
    image_manager_load                       0x080089fd   Thumb Code   184  image_manager.o(.text)
    image_manager_unload_unused              0x08008ae7   Thumb Code    42  image_manager.o(.text)
    image_manager_deinit                     0x08008b11   Thumb Code    60  image_manager.o(.text)
    image_manager_destroy                    0x08008b4d   Thumb Code    34  image_manager.o(.text)
    label_create                             0x08008b91   Thumb Code    58  label.o(.text)
    lcd_begin_frame                          0x08008bd1   Thumb Code    92  lcd.o(.text)
    lcd_set_clip_rect                        0x08008c2d   Thumb Code    26  lcd.o(.text)
    lcd_set_global_alpha                     0x08008c47   Thumb Code    32  lcd.o(.text)
    lcd_set_text_color                       0x08008c67   Thumb Code    30  lcd.o(.text)
    lcd_set_stroke_color                     0x08008c85   Thumb Code    30  lcd.o(.text)
    lcd_set_fill_color                       0x08008ca3   Thumb Code    30  lcd.o(.text)
    lcd_set_font_name                        0x08008cc1   Thumb Code    30  lcd.o(.text)
    lcd_set_font_size                        0x08008cdf   Thumb Code    32  lcd.o(.text)
    lcd_draw_vline                           0x08008cff   Thumb Code    40  lcd.o(.text)
    lcd_draw_hline                           0x08008d27   Thumb Code    40  lcd.o(.text)
    lcd_fill_rect                            0x08008d4f   Thumb Code    48  lcd.o(.text)
    lcd_stroke_rect                          0x08008d7f   Thumb Code    48  lcd.o(.text)
    lcd_draw_points                          0x08008daf   Thumb Code    32  lcd.o(.text)
    lcd_get_point_color                      0x08008dcf   Thumb Code    70  lcd.o(.text)
    lcd_draw_image                           0x08008e15   Thumb Code    44  lcd.o(.text)
    lcd_draw_glyph                           0x08008e41   Thumb Code    52  lcd.o(.text)
    lcd_measure_text                         0x08008e75   Thumb Code    32  lcd.o(.text)
    lcd_draw_text                            0x08008e95   Thumb Code    50  lcd.o(.text)
    lcd_end_frame                            0x08008ec7   Thumb Code    40  lcd.o(.text)
    lcd_swap                                 0x08008eef   Thumb Code    26  lcd.o(.text)
    lcd_is_swappable                         0x08008f09   Thumb Code    34  lcd.o(.text)
    lcd_destroy                              0x08008f2b   Thumb Code    22  lcd.o(.text)
    lcd_get_vgcanvas                         0x08008f41   Thumb Code    22  lcd.o(.text)
    lcd_take_snapshot                        0x08008f57   Thumb Code    30  lcd.o(.text)
    lcd_resize                               0x08008f75   Thumb Code    36  lcd.o(.text)
    main_loop_run                            0x08008f99   Thumb Code    26  main_loop.o(.text)
    main_loop_quit                           0x08008fb3   Thumb Code    28  main_loop.o(.text)
    main_loop_wakeup                         0x08008fcf   Thumb Code    24  main_loop.o(.text)
    main_loop_destroy                        0x08008fe7   Thumb Code    26  main_loop.o(.text)
    main_loop                                0x08009001   Thumb Code     6  main_loop.o(.text)
    main_loop_set                            0x08009007   Thumb Code    16  main_loop.o(.text)
    main_loop_queue_event                    0x08009017   Thumb Code    28  main_loop.o(.text)
    main_loop_sleep                          0x08009033   Thumb Code   118  main_loop.o(.text)
    tk_mem_stat                              0x080090ad   Thumb Code    76  mem.o(.text)
    tk_mem_info_dump                         0x080090f9   Thumb Code    32  mem.o(.text)
    tk_alloc                                 0x08009119   Thumb Code   166  mem.o(.text)
    tk_calloc                                0x080091bf   Thumb Code    36  mem.o(.text)
    tk_free                                  0x0800924f   Thumb Code   110  mem.o(.text)
    tk_realloc                               0x080092bd   Thumb Code    86  mem.o(.text)
    tk_mem_init                              0x08009313   Thumb Code    62  mem.o(.text)
    tk_mem_speed_test                        0x08009351   Thumb Code   186  mem.o(.text)
    progress_bar_set_value                   0x080096db   Thumb Code    62  progress_bar.o(.text)
    progress_bar_set_vertical                0x08009719   Thumb Code    18  progress_bar.o(.text)
    progress_bar_set_show_text               0x0800972b   Thumb Code    18  progress_bar.o(.text)
    progress_bar_create                      0x0800986f   Thumb Code    58  progress_bar.o(.text)
    progress_bar_cast                        0x080098a9   Thumb Code    20  progress_bar.o(.text)
    rect_merge                               0x080098e1   Thumb Code   162  rect.o(.text)
    rect_contains                            0x08009983   Thumb Code    50  rect.o(.text)
    rect_init                                0x080099b5   Thumb Code    22  rect.o(.text)
    rect_intersect                           0x080099cb   Thumb Code   214  rect.o(.text)
    rect_fix                                 0x08009aa1   Thumb Code   128  rect.o(.text)
    style_get_int                            0x08009b21   Thumb Code   144  theme.o(.text)
    style_get_color                          0x08009bb1   Thumb Code    22  theme.o(.text)
    style_get_str                            0x08009bc7   Thumb Code   142  theme.o(.text)
    theme_find_style                         0x08009c55   Thumb Code   136  theme.o(.text)
    theme                                    0x08009cdd   Thumb Code     4  theme.o(.text)
    theme_init                               0x08009ce1   Thumb Code    20  theme.o(.text)
    utf8_get_char                            0x08009d01   Thumb Code   184  utf8.o(.text)
    utf8_get_prev_char                       0x08009db9   Thumb Code    60  utf8.o(.text)
    utf8_count_char                          0x08009df5   Thumb Code    42  utf8.o(.text)
    unichar_to_utf8                          0x08009e1f   Thumb Code   102  utf8.o(.text)
    utf16_to_utf8                            0x08009e85   Thumb Code   268  utf8.o(.text)
    utf8_from_utf16                          0x08009f91   Thumb Code    42  utf8.o(.text)
    utf8_to_utf16                            0x08009fbb   Thumb Code    70  utf8.o(.text)
    value_bool                               0x0800a005   Thumb Code   234  value.o(.text)
    value_set_bool                           0x0800a0ef   Thumb Code    18  value.o(.text)
    value_set_int8                           0x0800a101   Thumb Code    18  value.o(.text)
    value_int8                               0x0800a113   Thumb Code    18  value.o(.text)
    value_set_uint8                          0x0800a125   Thumb Code    18  value.o(.text)
    value_uint8                              0x0800a137   Thumb Code    16  value.o(.text)
    value_set_int16                          0x0800a147   Thumb Code    18  value.o(.text)
    value_int16                              0x0800a159   Thumb Code    18  value.o(.text)
    value_set_uint16                         0x0800a16b   Thumb Code    18  value.o(.text)
    value_uint16                             0x0800a17d   Thumb Code    16  value.o(.text)
    value_set_int32                          0x0800a18d   Thumb Code    18  value.o(.text)
    value_int                                0x0800a19f   Thumb Code   112  value.o(.text)
    value_int32                              0x0800a20f   Thumb Code    22  value.o(.text)
    value_set_uint32                         0x0800a225   Thumb Code    18  value.o(.text)
    value_uint32                             0x0800a237   Thumb Code    22  value.o(.text)
    value_set_int64                          0x0800a24d   Thumb Code    20  value.o(.text)
    value_int64                              0x0800a261   Thumb Code    20  value.o(.text)
    value_set_uint64                         0x0800a275   Thumb Code    20  value.o(.text)
    value_uint64                             0x0800a289   Thumb Code    20  value.o(.text)
    value_set_pointer                        0x0800a29d   Thumb Code    18  value.o(.text)
    value_pointer                            0x0800a2af   Thumb Code    16  value.o(.text)
    value_set_float                          0x0800a2bf   Thumb Code    18  value.o(.text)
    value_float                              0x0800a2d1   Thumb Code   150  value.o(.text)
    value_set_double                         0x0800a367   Thumb Code    20  value.o(.text)
    value_double                             0x0800a37b   Thumb Code    20  value.o(.text)
    value_set_str                            0x0800a38f   Thumb Code    18  value.o(.text)
    value_set_wstr                           0x0800a3a1   Thumb Code    18  value.o(.text)
    value_str                                0x0800a3b3   Thumb Code    16  value.o(.text)
    value_wstr                               0x0800a3c3   Thumb Code    16  value.o(.text)
    value_copy                               0x0800a3d3   Thumb Code    26  value.o(.text)
    value_is_null                            0x0800a3ed   Thumb Code    14  value.o(.text)
    value_equal                              0x0800a3fb   Thumb Code   502  value.o(.text)
    value_set_int                            0x0800a5f1   Thumb Code    16  value.o(.text)
    value_create                             0x0800a601   Thumb Code    12  value.o(.text)
    value_destroy                            0x0800a60d   Thumb Code    16  value.o(.text)
    widget_invalidate                        0x0800a671   Thumb Code   102  widget.o(.text)
    widget_dispatch                          0x0800a6d7   Thumb Code    68  widget.o(.text)
    widget_move                              0x0800a71b   Thumb Code    72  widget.o(.text)
    widget_resize                            0x0800a763   Thumb Code    72  widget.o(.text)
    widget_move_resize                       0x0800a7ab   Thumb Code   100  widget.o(.text)
    widget_set_tr_text                       0x0800a80f   Thumb Code    80  widget.o(.text)
    widget_set_name                          0x0800a85f   Thumb Code    40  widget.o(.text)
    widget_get_prop                          0x0800a887   Thumb Code   490  widget.o(.text)
    widget_get_type                          0x0800aa71   Thumb Code    18  widget.o(.text)
    widget_get_window                        0x0800aa83   Thumb Code    72  widget.o(.text)
    widget_get_window_theme                  0x0800aacb   Thumb Code    88  widget.o(.text)
    widget_update_style                      0x0800abbb   Thumb Code    40  widget.o(.text)
    widget_use_style                         0x0800abe3   Thumb Code    44  widget.o(.text)
    widget_set_prop                          0x0800ac0f   Thumb Code   754  widget.o(.text)
    widget_set_value                         0x0800af01   Thumb Code    36  widget.o(.text)
    widget_get_value                         0x0800af25   Thumb Code    36  widget.o(.text)
    widget_add_value                         0x0800af49   Thumb Code    30  widget.o(.text)
    widget_set_text                          0x0800af67   Thumb Code    38  widget.o(.text)
    widget_set_text_utf8                     0x0800af8d   Thumb Code    38  widget.o(.text)
    widget_re_translate_text                 0x0800afb3   Thumb Code   108  widget.o(.text)
    widget_get_text                          0x0800b01f   Thumb Code    38  widget.o(.text)
    widget_set_enable                        0x0800b045   Thumb Code    48  widget.o(.text)
    widget_set_focused                       0x0800b075   Thumb Code    54  widget.o(.text)
    widget_invalidate_force                  0x0800b0ab   Thumb Code    32  widget.o(.text)
    widget_set_state                         0x0800b0cb   Thumb Code    40  widget.o(.text)
    widget_set_opacity                       0x0800b0f3   Thumb Code    28  widget.o(.text)
    widget_destroy_children                  0x0800b1bb   Thumb Code    68  widget.o(.text)
    widget_add_child                         0x0800b1ff   Thumb Code    60  widget.o(.text)
    widget_remove_child                      0x0800b23b   Thumb Code   100  widget.o(.text)
    widget_child                             0x0800b301   Thumb Code    16  widget.o(.text)
    widget_lookup                            0x0800b383   Thumb Code    30  widget.o(.text)
    widget_lookup_by_type                    0x0800b479   Thumb Code    30  widget.o(.text)
    widget_set_visible                       0x0800b513   Thumb Code    30  widget.o(.text)
    widget_find_target                       0x0800b531   Thumb Code    62  widget.o(.text)
    widget_on                                0x0800b56f   Thumb Code    46  widget.o(.text)
    widget_child_on                          0x0800b59d   Thumb Code    42  widget.o(.text)
    widget_off                               0x0800b5c7   Thumb Code    30  widget.o(.text)
    widget_off_by_func                       0x0800b5e5   Thumb Code    44  widget.o(.text)
    widget_prepare_text_style                0x0800b611   Thumb Code   124  widget.o(.text)
    widget_draw_icon_text                    0x0800b68d   Thumb Code   638  widget.o(.text)
    widget_draw_background                   0x0800b90b   Thumb Code   180  widget.o(.text)
    widget_draw_border                       0x0800b9bf   Thumb Code   180  widget.o(.text)
    widget_paint_helper                      0x0800ba73   Thumb Code    34  widget.o(.text)
    widget_on_paint_done                     0x0800ba95   Thumb Code    46  widget.o(.text)
    widget_on_paint_border                   0x0800bac3   Thumb Code    62  widget.o(.text)
    widget_on_paint_children                 0x0800bb01   Thumb Code    58  widget.o(.text)
    widget_on_paint_self                     0x0800bb3b   Thumb Code    68  widget.o(.text)
    widget_on_paint_background               0x0800bb7f   Thumb Code    60  widget.o(.text)
    widget_paint                             0x0800bbbb   Thumb Code   272  widget.o(.text)
    widget_set_prop_str                      0x0800bccb   Thumb Code    30  widget.o(.text)
    widget_dispatch_to_target                0x0800bce9   Thumb Code    52  widget.o(.text)
    widget_dispatch_to_key_target            0x0800bd1d   Thumb Code    52  widget.o(.text)
    widget_on_keydown                        0x0800bd51   Thumb Code    68  widget.o(.text)
    widget_on_keyup                          0x0800bd95   Thumb Code    68  widget.o(.text)
    widget_on_pointer_down                   0x0800be3b   Thumb Code   200  widget.o(.text)
    widget_on_pointer_move                   0x0800bf03   Thumb Code   120  widget.o(.text)
    widget_on_pointer_up                     0x0800bf7b   Thumb Code    82  widget.o(.text)
    widget_layout_children                   0x0800bfcd   Thumb Code    38  widget.o(.text)
    widget_grab                              0x0800bff3   Thumb Code    36  widget.o(.text)
    widget_ungrab                            0x0800c017   Thumb Code    42  widget.o(.text)
    widget_foreach                           0x0800c041   Thumb Code    88  widget.o(.text)
    widget_destroy                           0x0800c099   Thumb Code    34  widget.o(.text)
    widget_update_style_recursive            0x0800c0bb   Thumb Code    68  widget.o(.text)
    widget_init                              0x0800c0ff   Thumb Code   144  widget.o(.text)
    widget_to_screen                         0x0800c18f   Thumb Code    94  widget.o(.text)
    widget_to_local                          0x0800c1ed   Thumb Code    42  widget.o(.text)
    widget_to_global                         0x0800c217   Thumb Code    42  widget.o(.text)
    widget_count_children                    0x0800c241   Thumb Code    22  widget.o(.text)
    widget_get_child                         0x0800c257   Thumb Code    62  widget.o(.text)
    widget_index_of                          0x0800c295   Thumb Code    70  widget.o(.text)
    widget_clone                             0x0800c2db   Thumb Code   260  widget.o(.text)
    widget_equal                             0x0800c3df   Thumb Code   554  widget.o(.text)
    widget_measure_text                      0x0800c609   Thumb Code    56  widget.o(.text)
    widget_cast                              0x0800c641   Thumb Code     2  widget.o(.text)
    widget_invalidate_default                0x0800c645   Thumb Code   126  widget_vtable.o(.text)
    widget_on_event_default                  0x0800c6c3   Thumb Code    14  widget_vtable.o(.text)
    widget_on_paint_self_default             0x0800c6d1   Thumb Code    14  widget_vtable.o(.text)
    widget_on_paint_children_default         0x0800c6df   Thumb Code   168  widget_vtable.o(.text)
    widget_on_keydown_default                0x0800c787   Thumb Code    14  widget_vtable.o(.text)
    widget_on_keyup_default                  0x0800c795   Thumb Code    14  widget_vtable.o(.text)
    widget_on_pointer_down_default           0x0800c7a3   Thumb Code    14  widget_vtable.o(.text)
    widget_on_pointer_move_default           0x0800c7b1   Thumb Code    14  widget_vtable.o(.text)
    widget_on_pointer_up_default             0x0800c7bf   Thumb Code    14  widget_vtable.o(.text)
    widget_get_prop_default                  0x0800c7cd   Thumb Code    16  widget_vtable.o(.text)
    widget_set_prop_default                  0x0800c7dd   Thumb Code    16  widget_vtable.o(.text)
    widget_find_target_default               0x0800c84b   Thumb Code   152  widget_vtable.o(.text)
    widget_destroy_default                   0x0800c8e3   Thumb Code     6  widget_vtable.o(.text)
    widget_on_paint_background_null          0x0800c8e9   Thumb Code     6  widget_vtable.o(.text)
    widget_on_paint_done_null                0x0800c8ef   Thumb Code     6  widget_vtable.o(.text)
    widget_vtable_default                    0x0800c8f5   Thumb Code     4  widget_vtable.o(.text)
    window_create                            0x0800ca3f   Thumb Code    88  window.o(.text)
    window_close                             0x0800ca97   Thumb Code    20  window.o(.text)
    window_cast                              0x0800caab   Thumb Code    20  window.o(.text)
    window_manager_open_window               0x0800cd41   Thumb Code    88  window_manager.o(.text)
    window_manager_close_window              0x0800cda9   Thumb Code   114  window_manager.o(.text)
    window_manager_find_target               0x0800ce1b   Thumb Code   320  window_manager.o(.text)
    window_manager_paint                     0x0800d11b   Thumb Code    72  window_manager.o(.text)
    window_manager                           0x0800d163   Thumb Code     6  window_manager.o(.text)
    window_manager_set                       0x0800d169   Thumb Code    10  window_manager.o(.text)
    window_manager_init                      0x0800d1c1   Thumb Code    52  window_manager.o(.text)
    window_manager_create                    0x0800d1f5   Thumb Code    26  window_manager.o(.text)
    window_manager_find_top_window_index     0x0800d22b   Thumb Code   108  window_manager.o(.text)
    window_manager_get_top_window            0x0800d297   Thumb Code    30  window_manager.o(.text)
    window_manager_on_paint_children         0x0800d2b5   Thumb Code   180  window_manager.o(.text)
    window_manager_resize                    0x0800d3e5   Thumb Code    62  window_manager.o(.text)
    window_manager_dispatch_input_event      0x0800d4db   Thumb Code   590  window_manager.o(.text)
    window_manager_set_animating             0x0800d729   Thumb Code    18  window_manager.o(.text)
    window_manager_set_show_fps              0x0800d73b   Thumb Code    18  window_manager.o(.text)
    window_manager_cast                      0x0800d74d   Thumb Code    20  window_manager.o(.text)
    wcs_chr                                  0x0800d765   Thumb Code    38  wstr.o(.text)
    wcs_cpy                                  0x0800d78b   Thumb Code    40  wstr.o(.text)
    wcs_cmp                                  0x0800d7b3   Thumb Code    64  wstr.o(.text)
    wcs_dup                                  0x0800d7f3   Thumb Code    32  wstr.o(.text)
    wcs_len                                  0x0800d813   Thumb Code    30  wstr.o(.text)
    wstr_init                                0x0800d867   Thumb Code    36  wstr.o(.text)
    wstr_set                                 0x0800d88b   Thumb Code    54  wstr.o(.text)
    wstr_set_utf8                            0x0800d8c1   Thumb Code    62  wstr.o(.text)
    wstr_get_utf8                            0x0800d8ff   Thumb Code    30  wstr.o(.text)
    wstr_remove                              0x0800d91d   Thumb Code    88  wstr.o(.text)
    wstr_insert                              0x0800d975   Thumb Code   180  wstr.o(.text)
    wstr_push                                0x0800da29   Thumb Code    56  wstr.o(.text)
    wstr_pop                                 0x0800da61   Thumb Code    34  wstr.o(.text)
    wstr_equal                               0x0800da83   Thumb Code    52  wstr.o(.text)
    wstr_from_int                            0x0800dab7   Thumb Code    38  wstr.o(.text)
    wstr_from_float                          0x0800dadd   Thumb Code    42  wstr.o(.text)
    wstr_from_value                          0x0800db07   Thumb Code   116  wstr.o(.text)
    wstr_to_int                              0x0800db7b   Thumb Code    52  wstr.o(.text)
    wstr_to_float                            0x0800dbaf   Thumb Code    56  wstr.o(.text)
    wstr_trim_float_zero                     0x0800dcad   Thumb Code    94  wstr.o(.text)
    wstr_to_fix                              0x0800dd0b   Thumb Code    74  wstr.o(.text)
    wstr_add_float                           0x0800dd55   Thumb Code   102  wstr.o(.text)
    wstr_reset                               0x0800ddbb   Thumb Code    28  wstr.o(.text)
    font_bitmap_init                         0x0800decf   Thumb Code    38  font_bitmap.o(.text)
    font_bitmap_create                       0x0800def5   Thumb Code    54  font_bitmap.o(.text)
    tk_skip_to_num                           0x0800df3d   Thumb Code    34  utils.o(.text)
    tk_str2bool                              0x0800df5f   Thumb Code    40  utils.o(.text)
    tk_strtol                                0x0800e04d   Thumb Code    92  utils.o(.text)
    tk_atoi                                  0x0800e0a9   Thumb Code    16  utils.o(.text)
    tk_atof                                  0x0800e0b9   Thumb Code   230  utils.o(.text)
    tk_itoa                                  0x0800e22f   Thumb Code    22  utils.o(.text)
    tk_snprintf                              0x08010689   Thumb Code    40  utils.o(.text)
    tk_ftoa                                  0x080106b1   Thumb Code    32  utils.o(.text)
    tk_strcpy                                0x080106d1   Thumb Code    16  utils.o(.text)
    tk_strncpy                               0x080106e1   Thumb Code    34  utils.o(.text)
    tk_strndup                               0x08010703   Thumb Code    42  utils.o(.text)
    tk_strdup                                0x0801072d   Thumb Code    28  utils.o(.text)
    tk_memset16                              0x08010749   Thumb Code   112  utils.o(.text)
    tk_memset32                              0x080107b9   Thumb Code    30  utils.o(.text)
    tk_memcpy16                              0x080107d7   Thumb Code    40  utils.o(.text)
    tk_memcpy32                              0x080107ff   Thumb Code    36  utils.o(.text)
    tk_pixel_copy                            0x08010823   Thumb Code    56  utils.o(.text)
    tk_sscanf                                0x080108cf   Thumb Code    36  utils.o(.text)
    filename_to_name                         0x080108f3   Thumb Code    92  utils.o(.text)
    xml_file_expand_read                     0x0801094f   Thumb Code    90  utils.o(.text)
    xml_file_expand                          0x080109a9   Thumb Code   244  utils.o(.text)
    wheel_event_cast                         0x08010a9d   Thumb Code    22  events.o(.text)
    prop_change_event_cast                   0x08010ab3   Thumb Code    28  events.o(.text)
    pointer_event_cast                       0x08010acf   Thumb Code    26  events.o(.text)
    key_event_cast                           0x08010ae9   Thumb Code    28  events.o(.text)
    paint_event_cast                         0x08010b05   Thumb Code    34  events.o(.text)
    event_init                               0x08010b27   Thumb Code    28  events.o(.text)
    pointer_event_rotate                     0x08010b43   Thumb Code    42  events.o(.text)
    event_cast                               0x08010b6d   Thumb Code     2  events.o(.text)
    timer_manager                            0x08010b8b   Thumb Code     6  timer.o(.text)
    timer_manager_set                        0x08010b91   Thumb Code    10  timer.o(.text)
    timer_manager_init                       0x08010b9b   Thumb Code    40  timer.o(.text)
    timer_manager_create                     0x08010bc3   Thumb Code    38  timer.o(.text)
    timer_manager_deinit                     0x08010be9   Thumb Code    72  timer.o(.text)
    timer_manager_destroy                    0x08010c31   Thumb Code    30  timer.o(.text)
    timer_manager_add                        0x08010c4f   Thumb Code    92  timer.o(.text)
    timer_manager_remove                     0x08010cc5   Thumb Code    76  timer.o(.text)
    timer_manager_find                       0x08010d11   Thumb Code    72  timer.o(.text)
    timer_manager_dispatch                   0x08010d59   Thumb Code   130  timer.o(.text)
    timer_manager_count                      0x08010ddb   Thumb Code    32  timer.o(.text)
    timer_manager_next_time                  0x08010dfb   Thumb Code    72  timer.o(.text)
    timer_init                               0x08010e43   Thumb Code    34  timer.o(.text)
    timer_add                                0x08010e65   Thumb Code    30  timer.o(.text)
    timer_remove                             0x08010e83   Thumb Code    18  timer.o(.text)
    timer_find                               0x08010e95   Thumb Code    18  timer.o(.text)
    timer_dispatch                           0x08010ea7   Thumb Code    14  timer.o(.text)
    timer_count                              0x08010eb5   Thumb Code    20  timer.o(.text)
    timer_next_time                          0x08010ec9   Thumb Code    14  timer.o(.text)
    timer_now                                0x08010ed7   Thumb Code    12  timer.o(.text)
    timer_queue                              0x08010ee3   Thumb Code    38  timer.o(.text)
    timer_set_on_destroy                     0x08010f09   Thumb Code    34  timer.o(.text)
    widget_layout_parse                      0x08010f39   Thumb Code   340  layout.o(.text)
    widget_layout_calc                       0x0801108d   Thumb Code   220  layout.o(.text)
    widget_set_self_layout                   0x08011169   Thumb Code    56  layout.o(.text)
    widget_set_self_layout_params            0x080111a1   Thumb Code    66  layout.o(.text)
    children_layout_parser                   0x080111e3   Thumb Code   216  layout.o(.text)
    widget_set_children_layout               0x080112bb   Thumb Code    64  layout.o(.text)
    widget_set_children_layout_params        0x080112fb   Thumb Code    34  layout.o(.text)
    widget_layout_self_with_wh               0x0801131d   Thumb Code    64  layout.o(.text)
    widget_layout_self                       0x0801135d   Thumb Code   106  layout.o(.text)
    widget_layout                            0x080113c7   Thumb Code    24  layout.o(.text)
    widget_layout_children_default           0x080113df   Thumb Code  1210  layout.o(.text)
    event_queue_create                       0x08011899   Thumb Code    58  event_queue.o(.text)
    event_queue_recv                         0x080118d3   Thumb Code    80  event_queue.o(.text)
    event_queue_send                         0x08011923   Thumb Code    90  event_queue.o(.text)
    event_queue_replace_last                 0x0801197d   Thumb Code    78  event_queue.o(.text)
    event_queue_destroy                      0x080119cb   Thumb Code    24  event_queue.o(.text)
    slider_set_value                         0x08011f9d   Thumb Code    20  slider.o(.text)
    slider_set_min                           0x08011fb1   Thumb Code    18  slider.o(.text)
    slider_set_max                           0x08011fc3   Thumb Code    18  slider.o(.text)
    slider_set_step                          0x08011fd5   Thumb Code    22  slider.o(.text)
    slider_set_vertical                      0x08011feb   Thumb Code    18  slider.o(.text)
    slider_create                            0x080121d7   Thumb Code    76  slider.o(.text)
    slider_cast                              0x08012223   Thumb Code    20  slider.o(.text)
    window_animator_update                   0x08012261   Thumb Code   164  window_animator.o(.text)
    window_animator_destroy                  0x08012305   Thumb Code    22  window_animator.o(.text)
    window_animator_begin_frame              0x0801231b   Thumb Code    54  window_animator.o(.text)
    window_animator_begin_frame_overlap      0x08012351   Thumb Code    72  window_animator.o(.text)
    window_animator_create_for_open          0x08012399   Thumb Code     8  window_animator_null.o(.text)
    window_animator_create_for_close         0x080123a1   Thumb Code     8  window_animator_null.o(.text)
    idle_manager                             0x080123c3   Thumb Code     6  idle.o(.text)
    idle_manager_set                         0x080123c9   Thumb Code    10  idle.o(.text)
    idle_manager_init                        0x080123d3   Thumb Code    36  idle.o(.text)
    idle_manager_create                      0x080123f7   Thumb Code    20  idle.o(.text)
    idle_manager_remove_all                  0x0801240b   Thumb Code    66  idle.o(.text)
    idle_manager_deinit                      0x0801244d   Thumb Code    30  idle.o(.text)
    idle_manager_destroy                     0x0801246b   Thumb Code    30  idle.o(.text)
    idle_manager_add                         0x08012489   Thumb Code    78  idle.o(.text)
    idle_manager_remove                      0x080124f1   Thumb Code    76  idle.o(.text)
    idle_manager_find                        0x0801253d   Thumb Code    72  idle.o(.text)
    idle_manager_dispatch                    0x08012585   Thumb Code    98  idle.o(.text)
    idle_add                                 0x080125e7   Thumb Code    22  idle.o(.text)
    idle_remove                              0x080125fd   Thumb Code    18  idle.o(.text)
    idle_find                                0x0801260f   Thumb Code    18  idle.o(.text)
    idle_dispatch                            0x08012621   Thumb Code    14  idle.o(.text)
    idle_count                               0x0801262f   Thumb Code    46  idle.o(.text)
    idle_queue                               0x0801265d   Thumb Code    34  idle.o(.text)
    idle_set_on_destroy                      0x0801267f   Thumb Code    34  idle.o(.text)
    time_now_ms                              0x080126ad   Thumb Code     8  time.o(.text)
    time_now_s                               0x080126b5   Thumb Code    16  time.o(.text)
    system_info                              0x080126c5   Thumb Code     4  system_info.o(.text)
    system_info_init                         0x080126c9   Thumb Code    48  system_info.o(.text)
    image_loader_load                        0x08012711   Thumb Code    44  image_loader.o(.text)
    str_init                                 0x0801276d   Thumb Code    38  str.o(.text)
    str_set_with_len                         0x08012793   Thumb Code    66  str.o(.text)
    str_set                                  0x080127d5   Thumb Code    20  str.o(.text)
    str_append_with_len                      0x080127e9   Thumb Code    66  str.o(.text)
    str_append                               0x0801282b   Thumb Code    34  str.o(.text)
    str_append_char                          0x0801284d   Thumb Code    50  str.o(.text)
    str_decode_xml_entity_with_len           0x0801287f   Thumb Code   186  str.o(.text)
    str_decode_xml_entity                    0x08012939   Thumb Code    34  str.o(.text)
    str_eq                                   0x0801295b   Thumb Code    66  str.o(.text)
    str_from_int                             0x0801299d   Thumb Code    38  str.o(.text)
    str_from_float                           0x080129c3   Thumb Code    52  str.o(.text)
    str_from_wstr                            0x080129f7   Thumb Code    76  str.o(.text)
    str_from_value                           0x08012a43   Thumb Code   136  str.o(.text)
    str_to_int                               0x08012acb   Thumb Code    26  str.o(.text)
    str_to_float                             0x08012ae5   Thumb Code    36  str.o(.text)
    str_reset                                0x08012b09   Thumb Code    36  str.o(.text)
    str_end_with                             0x08012b2d   Thumb Code    64  str.o(.text)
    str_start_with                           0x08012b6d   Thumb Code    46  str.o(.text)
    str_trim_left                            0x08012b9b   Thumb Code   110  str.o(.text)
    str_trim_right                           0x08012c09   Thumb Code    82  str.o(.text)
    str_trim                                 0x08012c5b   Thumb Code    32  str.o(.text)
    str_replace                              0x08012ce1   Thumb Code   246  str.o(.text)
    str_to_lower                             0x08012dd7   Thumb Code    46  str.o(.text)
    str_to_upper                             0x08012e05   Thumb Code    46  str.o(.text)
    str_insert_with_len                      0x08012e33   Thumb Code   100  str.o(.text)
    str_insert                               0x08012e97   Thumb Code    48  str.o(.text)
    str_remove                               0x08012ec7   Thumb Code    74  str.o(.text)
    main_loop_post_pointer_event             0x08012f5b   Thumb Code   172  main_loop_simple.o(.text)
    main_loop_post_key_event                 0x08013007   Thumb Code    98  main_loop_simple.o(.text)
    main_loop_simple_init                    0x0801312f   Thumb Code    92  main_loop_simple.o(.text)
    main_loop_simple_reset                   0x0801318b   Thumb Code    34  main_loop_simple.o(.text)
    pages_set_active                         0x080131b9   Thumb Code    34  pages.o(.text)
    pages_set_active_by_name                 0x080131db   Thumb Code   100  pages.o(.text)
    pages_create                             0x0801333f   Thumb Code    58  pages.o(.text)
    pages_cast                               0x08013379   Thumb Code    20  pages.o(.text)
    edit_on_paint_self                       0x08013563   Thumb Code   194  edit.o(.text)
    edit_is_valid_value                      0x0801385d   Thumb Code   286  edit.o(.text)
    edit_inc                                 0x08013ba5   Thumb Code   134  edit.o(.text)
    edit_dec                                 0x08013c2b   Thumb Code   138  edit.o(.text)
    edit_on_event                            0x08013cb5   Thumb Code   298  edit.o(.text)
    edit_set_text_limit                      0x08013ddf   Thumb Code    32  edit.o(.text)
    edit_set_int_limit                       0x08013dff   Thumb Code    36  edit.o(.text)
    edit_set_float_limit                     0x08013e23   Thumb Code    46  edit.o(.text)
    edit_set_readonly                        0x08013e51   Thumb Code    18  edit.o(.text)
    edit_set_auto_fix                        0x08013e63   Thumb Code    18  edit.o(.text)
    edit_set_input_type                      0x08013e75   Thumb Code    56  edit.o(.text)
    edit_set_input_tips                      0x08013ead   Thumb Code    42  edit.o(.text)
    edit_get_prop                            0x08013ed7   Thumb Code   788  edit.o(.text)
    edit_set_password_visible                0x080141eb   Thumb Code    18  edit.o(.text)
    edit_set_prop                            0x080141fd   Thumb Code   896  edit.o(.text)
    edit_get_int                             0x0801457d   Thumb Code    26  edit.o(.text)
    edit_get_double                          0x08014597   Thumb Code    34  edit.o(.text)
    edit_set_int                             0x080145b9   Thumb Code    26  edit.o(.text)
    edit_set_double                          0x080145d3   Thumb Code    30  edit.o(.text)
    edit_clear                               0x080145f1   Thumb Code    18  edit.o(.text)
    edit_init                                0x080146ff   Thumb Code   108  edit.o(.text)
    edit_create_ex                           0x0801476b   Thumb Code    52  edit.o(.text)
    edit_create                              0x0801479f   Thumb Code    38  edit.o(.text)
    edit_cast                                0x080147c5   Thumb Code    20  edit.o(.text)
    view_create                              0x08014801   Thumb Code    58  view.o(.text)
    view_cast                                0x0801483b   Thumb Code    20  view.o(.text)
    widget_factory                           0x0801488d   Thumb Code     6  widget_factory.o(.text)
    widget_factory_init                      0x08014893   Thumb Code    22  widget_factory.o(.text)
    widget_factory_create                    0x080148a9   Thumb Code    26  widget_factory.o(.text)
    widget_factory_register                  0x080148c3   Thumb Code    64  widget_factory.o(.text)
    widget_factory_create_widget             0x08014903   Thumb Code   146  widget_factory.o(.text)
    widget_factory_set                       0x08014995   Thumb Code    10  widget_factory.o(.text)
    widget_factory_deinit                    0x0801499f   Thumb Code    68  widget_factory.o(.text)
    widget_factory_destroy                   0x080149e3   Thumb Code    30  widget_factory.o(.text)
    tokenizer_init                           0x08014a09   Thumb Code    70  tokenizer.o(.text)
    tokenizer_has_more                       0x08014abb   Thumb Code    24  tokenizer.o(.text)
    tokenizer_next                           0x08014ad3   Thumb Code    72  tokenizer.o(.text)
    tokenizer_next_int                       0x08014b1b   Thumb Code    38  tokenizer.o(.text)
    tokenizer_next_float                     0x08014b41   Thumb Code    48  tokenizer.o(.text)
    tokenizer_deinit                         0x08014b71   Thumb Code    30  tokenizer.o(.text)
    input_method_dispatch                    0x08014b91   Thumb Code    26  input_method.o(.text)
    input_method_dispatch_to_widget          0x08014bab   Thumb Code    32  input_method.o(.text)
    input_method_on                          0x08014bcb   Thumb Code    38  input_method.o(.text)
    input_method_off                         0x08014bf1   Thumb Code    24  input_method.o(.text)
    input_method_request                     0x08014c09   Thumb Code    36  input_method.o(.text)
    input_method                             0x08014c2d   Thumb Code     6  input_method.o(.text)
    input_method_set                         0x08014c33   Thumb Code    10  input_method.o(.text)
    input_method_update_action_button_info   0x08014c3d   Thumb Code    74  input_method.o(.text)
    input_method_dispatch_candidates         0x08014c87   Thumb Code    44  input_method.o(.text)
    input_method_commit_text                 0x08014cb3   Thumb Code    72  input_method.o(.text)
    input_method_dispatch_action             0x08014cfb   Thumb Code    72  input_method.o(.text)
    input_method_dispatch_key                0x08014d43   Thumb Code    88  input_method.o(.text)
    input_method_destroy                     0x08014d9b   Thumb Code    24  input_method.o(.text)
    input_engine_reset_input                 0x08014dbd   Thumb Code    44  input_engine.o(.text)
    input_engine_input                       0x08014de9   Thumb Code    82  input_engine.o(.text)
    spin_box_create_self                     0x08014e3d   Thumb Code    56  spin_box.o(.text)
    spin_box_create                          0x08014e75   Thumb Code   198  spin_box.o(.text)
    spin_box_cast                            0x08014f3b   Thumb Code    20  spin_box.o(.text)
    dragger_set_range                        0x08015115   Thumb Code    36  dragger.o(.text)
    dragger_create                           0x080152a1   Thumb Code    58  dragger.o(.text)
    dragger_cast                             0x080152db   Thumb Code    20  dragger.o(.text)
    dialog_client_create                     0x08015329   Thumb Code    76  dialog_client.o(.text)
    dialog_client_cast                       0x08015375   Thumb Code    20  dialog_client.o(.text)
    dialog_title_create                      0x080153a9   Thumb Code    68  dialog_title.o(.text)
    dialog_title_cast                        0x080153ed   Thumb Code    20  dialog_title.o(.text)
    custom_props_create                      0x0801540d   Thumb Code    42  custom_props.o(.text)
    custom_props_get                         0x08015437   Thumb Code   100  custom_props.o(.text)
    custom_props_set                         0x08015551   Thumb Code   156  custom_props.o(.text)
    custom_props_destroy                     0x080155ed   Thumb Code    80  custom_props.o(.text)
    tk_init_assets                           0x0801566b   Thumb Code    90  awtk.o(.text)
    tk_init_internal                         0x080156c5   Thumb Code   166  awtk.o(.text)
    tk_init                                  0x0801576b   Thumb Code    56  awtk.o(.text)
    tk_deinit_internal                       0x080157a3   Thumb Code   134  awtk.o(.text)
    tk_run                                   0x0801583b   Thumb Code    18  awtk.o(.text)
    tk_quit                                  0x0801585d   Thumb Code    16  awtk.o(.text)
    tk_set_lcd_orientation                   0x0801586d   Thumb Code   102  awtk.o(.text)
    input_method_null_create                 0x0801590b   Thumb Code    38  input_method_creator.o(.text)
    input_method_create                      0x08015931   Thumb Code    14  input_method_creator.o(.text)
    button_group_create                      0x0801595d   Thumb Code    58  button_group.o(.text)
    button_group_cast                        0x08015997   Thumb Code    20  button_group.o(.text)
    color_parse                              0x08015ae1   Thumb Code   186  color_parser.o(.text)
    color_parse_simple                       0x08015b9b   Thumb Code    60  color_parser.o(.text)
    combo_box_reset_options                  0x08015c3d   Thumb Code    88  combo_box.o(.text)
    combo_box_append_option                  0x08015d53   Thumb Code   112  combo_box.o(.text)
    combo_box_parse_options                  0x08015dc3   Thumb Code   142  combo_box.o(.text)
    combo_box_set_options                    0x08015e51   Thumb Code    16  combo_box.o(.text)
    combo_box_get_option                     0x08015e61   Thumb Code    44  combo_box.o(.text)
    combo_box_set_selected_index             0x08015e8d   Thumb Code    60  combo_box.o(.text)
    combo_box_set_open_window                0x08015ec9   Thumb Code    48  combo_box.o(.text)
    combo_box_create_self                    0x08015f9b   Thumb Code    80  combo_box.o(.text)
    combo_box_count_options                  0x08016155   Thumb Code    32  combo_box.o(.text)
    combo_box_create                         0x0801628b   Thumb Code   134  combo_box.o(.text)
    combo_box_get_value                      0x08016311   Thumb Code    16  combo_box.o(.text)
    combo_box_get_text                       0x08016321   Thumb Code    42  combo_box.o(.text)
    combo_box_cast                           0x0801634b   Thumb Code    20  combo_box.o(.text)
    combo_box_item_set_selected              0x08016405   Thumb Code    98  combo_box_item.o(.text)
    combo_box_item_set_value                 0x0801650b   Thumb Code    16  combo_box_item.o(.text)
    combo_box_item_create                    0x08016629   Thumb Code    58  combo_box_item.o(.text)
    combo_box_item_cast                      0x08016663   Thumb Code    20  combo_box_item.o(.text)
    fs_file_read                             0x080166a9   Thumb Code    34  fs.o(.text)
    fs_file_write                            0x080166cb   Thumb Code    34  fs.o(.text)
    fs_file_seek                             0x080166ed   Thumb Code    26  fs.o(.text)
    fs_file_truncate                         0x08016707   Thumb Code    26  fs.o(.text)
    fs_file_close                            0x08016721   Thumb Code    22  fs.o(.text)
    fs_dir_rewind                            0x08016737   Thumb Code    22  fs.o(.text)
    fs_dir_read                              0x0801674d   Thumb Code    28  fs.o(.text)
    fs_dir_close                             0x08016769   Thumb Code    22  fs.o(.text)
    fs_open_file                             0x0801677f   Thumb Code    30  fs.o(.text)
    fs_remove_file                           0x0801679d   Thumb Code    28  fs.o(.text)
    fs_file_exist                            0x080167b9   Thumb Code    28  fs.o(.text)
    fs_file_rename                           0x080167d5   Thumb Code    34  fs.o(.text)
    fs_open_dir                              0x080167f7   Thumb Code    28  fs.o(.text)
    fs_remove_dir                            0x08016813   Thumb Code    28  fs.o(.text)
    fs_dir_exist                             0x0801682f   Thumb Code    28  fs.o(.text)
    fs_dir_rename                            0x0801684b   Thumb Code    34  fs.o(.text)
    fs_get_file_size                         0x0801686d   Thumb Code    30  fs.o(.text)
    fs_get_disk_info                         0x0801688b   Thumb Code    30  fs.o(.text)
    fs_get_exe                               0x080168a9   Thumb Code    28  fs.o(.text)
    fs_get_cwd                               0x080168c5   Thumb Code    28  fs.o(.text)
    file_get_size                            0x080168e1   Thumb Code    18  fs.o(.text)
    file_read_part                           0x080168f3   Thumb Code    80  fs.o(.text)
    file_read                                0x08016943   Thumb Code    92  fs.o(.text)
    file_write                               0x0801699f   Thumb Code    76  fs.o(.text)
    file_remove                              0x080169eb   Thumb Code    24  fs.o(.text)
    file_exist                               0x08016a03   Thumb Code    24  fs.o(.text)
    popup_create                             0x08016c81   Thumb Code    88  popup.o(.text)
    popup_cast                               0x08016cd9   Thumb Code    20  popup.o(.text)
    tab_button_set_value                     0x08016da7   Thumb Code   138  tab_button.o(.text)
    tab_button_set_active_icon               0x08016fdd   Thumb Code    40  tab_button.o(.text)
    tab_button_set_icon                      0x08017005   Thumb Code    40  tab_button.o(.text)
    tab_button_create                        0x080170cb   Thumb Code    68  tab_button.o(.text)
    tab_button_cast                          0x0801710f   Thumb Code    20  tab_button.o(.text)
    tab_button_group_create                  0x080174cb   Thumb Code    58  tab_button_group.o(.text)
    tab_button_group_cast                    0x08017505   Thumb Code    20  tab_button_group.o(.text)
    tab_control_create                       0x08017551   Thumb Code    58  tab_control.o(.text)
    tab_control_cast                         0x0801758b   Thumb Code    20  tab_control.o(.text)
    ui_builder_on_widget_start               0x080175a5   Thumb Code    28  ui_builder.o(.text)
    ui_builder_on_widget_prop                0x080175c1   Thumb Code    38  ui_builder.o(.text)
    ui_builder_on_widget_prop_end            0x080175e7   Thumb Code    22  ui_builder.o(.text)
    ui_builder_on_widget_end                 0x080175fd   Thumb Code    22  ui_builder.o(.text)
    ui_builder_on_start                      0x08017613   Thumb Code    26  ui_builder.o(.text)
    ui_builder_on_end                        0x0801762d   Thumb Code    26  ui_builder.o(.text)
    ui_builder_default                       0x08017769   Thumb Code    40  ui_builder_default.o(.text)
    ui_loader_load                           0x080177b1   Thumb Code    48  ui_loader.o(.text)
    ui_loader_load_default                   0x080177e1   Thumb Code   262  ui_loader_default.o(.text)
    default_ui_loader                        0x080178e7   Thumb Code     4  ui_loader_default.o(.text)
    window_open_and_close                    0x0801795f   Thumb Code    18  window_open.o(.text)
    window_open                              0x08017971   Thumb Code    16  window_open.o(.text)
    dialog_open                              0x08017981   Thumb Code    12  window_open.o(.text)
    color_tile_set_border_color              0x08017a39   Thumb Code    46  color_tile.o(.text)
    color_tile_set_bg_color                  0x08017a67   Thumb Code    46  color_tile.o(.text)
    color_tile_create                        0x08017b07   Thumb Code    76  color_tile.o(.text)
    color_tile_cast                          0x08017b53   Thumb Code    20  color_tile.o(.text)
    color_tile_set_value                     0x08017b67   Thumb Code    38  color_tile.o(.text)
    assets_manager_load                      0x08017bbd   Thumb Code     6  assets_manager.o(.text)
    assets_manager                           0x08017bc3   Thumb Code     6  assets_manager.o(.text)
    assets_manager_set                       0x08017c29   Thumb Code    10  assets_manager.o(.text)
    assets_manager_init                      0x08017c33   Thumb Code    24  assets_manager.o(.text)
    assets_manager_create                    0x08017c4b   Thumb Code    24  assets_manager.o(.text)
    assets_manager_add                       0x08017c63   Thumb Code    32  assets_manager.o(.text)
    assets_manager_find_in_cache             0x08017c83   Thumb Code    72  assets_manager.o(.text)
    assets_manager_ref                       0x08017ccb   Thumb Code    50  assets_manager.o(.text)
    assets_manager_unref                     0x08017cfd   Thumb Code    62  assets_manager.o(.text)
    assets_manager_clear_cache               0x08017d55   Thumb Code    42  assets_manager.o(.text)
    assets_manager_deinit                    0x08017d7f   Thumb Code    54  assets_manager.o(.text)
    assets_manager_destroy                   0x08017db5   Thumb Code    44  assets_manager.o(.text)
    locale_info                              0x08017ded   Thumb Code     6  locale_info.o(.text)
    locale_info_set                          0x08017df3   Thumb Code    10  locale_info.o(.text)
    locale_info_change                       0x08017dfd   Thumb Code   174  locale_info.o(.text)
    locale_info_init                         0x08017eab   Thumb Code    34  locale_info.o(.text)
    locale_info_create                       0x08017ecd   Thumb Code    28  locale_info.o(.text)
    str_table_lookup                         0x08017ee9   Thumb Code   116  locale_info.o(.text)
    locale_info_tr                           0x08017f5d   Thumb Code    56  locale_info.o(.text)
    locale_info_on                           0x08017f95   Thumb Code    38  locale_info.o(.text)
    locale_info_off                          0x08017fbb   Thumb Code    22  locale_info.o(.text)
    locale_info_deinit                       0x08017fd1   Thumb Code    46  locale_info.o(.text)
    locale_info_destroy                      0x08017fff   Thumb Code    30  locale_info.o(.text)
    path_basename                            0x08018031   Thumb Code    92  path.o(.text)
    path_extname                             0x0801808d   Thumb Code    78  path.o(.text)
    path_dirname                             0x080180db   Thumb Code    88  path.o(.text)
    path_exist                               0x08018133   Thumb Code    18  path.o(.text)
    path_cwd                                 0x08018145   Thumb Code    18  path.o(.text)
    path_exe                                 0x08018157   Thumb Code    18  path.o(.text)
    path_normalize                           0x08018169   Thumb Code   192  path.o(.text)
    path_app_root                            0x08018229   Thumb Code    86  path.o(.text)
    path_build                               0x0801827f   Thumb Code   112  path.o(.text)
    path_abs                                 0x080182ef   Thumb Code    42  path.o(.text)
    path_replace_basename                    0x08018319   Thumb Code    66  path.o(.text)
    path_create                              0x0801835b   Thumb Code     6  path.o(.text)
    path_remove                              0x08018361   Thumb Code     6  path.o(.text)
    lcd_reg_create                           0x08018813   Thumb Code   110  lcd_stm32_raw.o(.text)
    platform_disaptch_input                  0x080188a5   Thumb Code     6  main_loop_stm32_raw.o(.text)
    TIM3_IRQHandler                          0x080188bb   Thumb Code    70  main_loop_stm32_raw.o(.text)
    main_loop_init                           0x08018949   Thumb Code    36  main_loop_stm32_raw.o(.text)
    systick_init                             0x0801897d   Thumb Code    72  platform.o(.text)
    platform_prepare                         0x080189c5   Thumb Code    16  platform.o(.text)
    tk_mutex_create                          0x080189e1   Thumb Code     4  mutex_null.o(.text)
    tk_mutex_lock                            0x080189e5   Thumb Code     6  mutex_null.o(.text)
    tk_mutex_unlock                          0x080189eb   Thumb Code     6  mutex_null.o(.text)
    tk_mutex_destroy                         0x080189f1   Thumb Code     6  mutex_null.o(.text)
    SysTick_Handler                          0x080189fd   Thumb Code    12  sys_tick.o(.text)
    get_time_ms                              0x08018a09   Thumb Code     6  sys_tick.o(.text)
    sleep_ms                                 0x08018a0f   Thumb Code    28  sys_tick.o(.text)
    delay_ms                                 0x08018a2b   Thumb Code    12  sys_tick.o(.text)
    delay_us                                 0x08018a37   Thumb Code    12  sys_tick.o(.text)
    os_fs                                    0x08018a49   Thumb Code     4  fs_os.o(.text)
    gui_app_start                            0x08018a4d   Thumb Code    38  demo_main.o(.text)
    application_init                         0x08018bd3   Thumb Code   738  demo1_app.o(.text)
    assets_init                              0x08018fad   Thumb Code   280  assets-mini.o(.text)
    __use_no_semihosting                     0x08019149   Thumb Code     2  use_no_semi_2.o(.text)
    __rt_ctype_table                         0x0801914d   Thumb Code    16  rt_ctype_table.o(.text)
    __aeabi_uldivmod                         0x0801915d   Thumb Code     0  lludivv7m.o(.text)
    _ll_udiv                                 0x0801915d   Thumb Code   238  lludivv7m.o(.text)
    __aeabi_llsr                             0x0801924b   Thumb Code     0  llushr.o(.text)
    _ll_ushift_r                             0x0801924b   Thumb Code    38  llushr.o(.text)
    __aeabi_ldivmod                          0x08019271   Thumb Code     0  llsdiv.o(.text)
    _ll_sdiv                                 0x08019271   Thumb Code    72  llsdiv.o(.text)
    tolower                                  0x080192b9   Thumb Code    26  tolower.o(.text)
    toupper                                  0x080192d3   Thumb Code    30  toupper.o(.text)
    __2printf                                0x080192f1   Thumb Code    20  noretval__2printf.o(.text)
    __printf                                 0x08019309   Thumb Code   104  __printf.o(.text)
    _printf_int_dec                          0x08019371   Thumb Code   104  _printf_dec.o(.text)
    vsscanf                                  0x080193e9   Thumb Code    44  vsscanf.o(.text)
    bsearch                                  0x0801941d   Thumb Code    80  bsearchnoex.o(.text)
    strchr                                   0x0801946d   Thumb Code    20  strchr.o(.text)
    strstr                                   0x08019481   Thumb Code    36  strstr.o(.text)
    memcmp                                   0x080194a5   Thumb Code    88  memcmp.o(.text)
    strcpy                                   0x080194fd   Thumb Code    72  strcpy.o(.text)
    strrchr                                  0x08019545   Thumb Code    22  strrchr.o(.text)
    strlen                                   0x0801955b   Thumb Code    62  strlen.o(.text)
    wcscpy                                   0x08019599   Thumb Code    18  wcscpy.o(.text)
    wcscmp                                   0x080195ab   Thumb Code    24  wcscmp.o(.text)
    wcschr                                   0x080195c3   Thumb Code    22  wcschr.o(.text)
    wcslen                                   0x080195d9   Thumb Code    18  wcslen.o(.text)
    strncmp                                  0x080195eb   Thumb Code   150  strncmp.o(.text)
    __aeabi_memcpy                           0x08019681   Thumb Code     0  rt_memcpy_v6.o(.text)
    __rt_memcpy                              0x08019681   Thumb Code   138  rt_memcpy_v6.o(.text)
    _memcpy_lastbytes                        0x080196e7   Thumb Code     0  rt_memcpy_v6.o(.text)
    __aeabi_memmove                          0x0801970b   Thumb Code     0  rt_memmove_v6.o(.text)
    __rt_memmove                             0x0801970b   Thumb Code   132  rt_memmove_v6.o(.text)
    __memmove_lastfew                        0x0801976b   Thumb Code     0  rt_memmove_v6.o(.text)
    __aeabi_memcpy4                          0x0801978f   Thumb Code     0  rt_memcpy_w.o(.text)
    __aeabi_memcpy8                          0x0801978f   Thumb Code     0  rt_memcpy_w.o(.text)
    __rt_memcpy_w                            0x0801978f   Thumb Code   100  rt_memcpy_w.o(.text)
    _memcpy_lastbytes_aligned                0x080197d7   Thumb Code     0  rt_memcpy_w.o(.text)
    __aeabi_memclr                           0x080197f3   Thumb Code     0  rt_memclr.o(.text)
    __rt_memclr                              0x080197f3   Thumb Code    68  rt_memclr.o(.text)
    _memset                                  0x080197f7   Thumb Code     0  rt_memclr.o(.text)
    __aeabi_memclr4                          0x08019837   Thumb Code     0  rt_memclr_w.o(.text)
    __aeabi_memclr8                          0x08019837   Thumb Code     0  rt_memclr_w.o(.text)
    __rt_memclr_w                            0x08019837   Thumb Code    78  rt_memclr_w.o(.text)
    _memset_w                                0x0801983b   Thumb Code     0  rt_memclr_w.o(.text)
    strncpy                                  0x08019885   Thumb Code    86  strncpy.o(.text)
    strcmp                                   0x080198dd   Thumb Code   128  strcmpv7m.o(.text)
    __use_two_region_memory                  0x0801995d   Thumb Code     2  heapauxi.o(.text)
    __rt_heap_escrow$2region                 0x0801995f   Thumb Code     2  heapauxi.o(.text)
    __rt_heap_expand$2region                 0x08019961   Thumb Code     2  heapauxi.o(.text)
    __I$use$semihosting                      0x08019963   Thumb Code     0  use_no_semi.o(.text)
    __use_no_semihosting_swi                 0x08019963   Thumb Code     2  use_no_semi.o(.text)
    __rt_locale                              0x08019965   Thumb Code     8  rt_locale_intlibspace.o(.text)
    __read_errno                             0x0801996d   Thumb Code    10  _rserrno.o(.text)
    __set_errno                              0x08019977   Thumb Code    12  _rserrno.o(.text)
    _printf_int_common                       0x08019983   Thumb Code   178  _printf_intcommon.o(.text)
    _printf_char_file                        0x08019a35   Thumb Code    32  _printf_char_file.o(.text)
    _scanf_longlong                          0x08019a59   Thumb Code   342  _scanf_longlong.o(.text)
    _scanf_int                               0x08019baf   Thumb Code   332  _scanf_int.o(.text)
    _scanf_string                            0x08019cfb   Thumb Code   224  _scanf_str.o(.text)
    __vfscanf_char                           0x08019de9   Thumb Code    24  scanf_char.o(.text)
    _sgetc                                   0x08019e09   Thumb Code    30  _sgetc.o(.text)
    _sbackspace                              0x08019e27   Thumb Code    34  _sgetc.o(.text)
    _scanf_mbtowc                            0x08019e49   Thumb Code   276  _scanf_mbtowc.o(.text)
    _scanf_wctomb                            0x08019f5d   Thumb Code   232  _scanf_wctomb.o(.text)
    _scanf_wstring                           0x0801a045   Thumb Code   208  _scanf_wstr.o(.text)
    __aeabi_memmove4                         0x0801a115   Thumb Code     0  rt_memmove_w.o(.text)
    __aeabi_memmove8                         0x0801a115   Thumb Code     0  rt_memmove_w.o(.text)
    __rt_memmove_w                           0x0801a115   Thumb Code   122  rt_memmove_w.o(.text)
    __memmove_aligned                        0x0801a13b   Thumb Code     0  rt_memmove_w.o(.text)
    __memmove_lastfew_aligned                0x0801a173   Thumb Code     0  rt_memmove_w.o(.text)
    __user_libspace                          0x0801a191   Thumb Code     8  libspace.o(.text)
    __user_perproc_libspace                  0x0801a191   Thumb Code     0  libspace.o(.text)
    __user_perthread_libspace                0x0801a191   Thumb Code     0  libspace.o(.text)
    __aeabi_errno_addr                       0x0801a199   Thumb Code     8  rt_errno_addr_intlibspace.o(.text)
    __errno$intlibspace                      0x0801a199   Thumb Code     0  rt_errno_addr_intlibspace.o(.text)
    __rt_errno_addr$intlibspace              0x0801a199   Thumb Code     0  rt_errno_addr_intlibspace.o(.text)
    isspace                                  0x0801a1a1   Thumb Code    18  isspace.o(.text)
    _printf_char_common                      0x0801a1bf   Thumb Code    32  _printf_char_common.o(.text)
    _chval                                   0x0801a1e5   Thumb Code    28  _chval.o(.text)
    __vfscanf                                0x0801a201   Thumb Code   878  _scanf.o(.text)
    _scanf_really_real                       0x0801a7c1   Thumb Code   684  scanf_fp.o(.text)
    _scanf_wcharmap                          0x0801aa6d   Thumb Code    30  _scanf_wcharmap.o(.text)
    ferror                                   0x0801aa8b   Thumb Code     8  ferror.o(.text)
    _mbrtowc                                 0x0801aa93   Thumb Code    60  _mbrtowc.o(.text)
    _wcrtomb                                 0x0801aacf   Thumb Code    64  _wcrtomb.o(.text)
    __user_setup_stackheap                   0x0801ab0f   Thumb Code    74  sys_stackheap_outer.o(.text)
    _btod_etento                             0x0801ab59   Thumb Code   224  bigflt0.o(.text)
    exit                                     0x0801ac3d   Thumb Code    18  exit.o(.text)
    _scanf_really_hex_real                   0x0801ac51   Thumb Code   786  scanf_hexfp.o(.text)
    _scanf_really_infnan                     0x0801af71   Thumb Code   292  scanf_infnan.o(.text)
    __aeabi_llsl                             0x0801b0a5   Thumb Code     0  llshl.o(.text)
    _ll_shift_l                              0x0801b0a5   Thumb Code    38  llshl.o(.text)
    __btod_div_common                        0x0801b0cb   Thumb Code   696  btod.o(CL$$btod_div_common)
    _e2d                                     0x0801b405   Thumb Code   122  btod.o(CL$$btod_e2d)
    _e2e                                     0x0801b489   Thumb Code   220  btod.o(CL$$btod_e2e)
    _btod_ediv                               0x0801b565   Thumb Code    42  btod.o(CL$$btod_ediv)
    _btod_edivd                              0x0801b58f   Thumb Code    42  btod.o(CL$$btod_edivd)
    _btod_emul                               0x0801b5b9   Thumb Code    42  btod.o(CL$$btod_emul)
    _btod_emuld                              0x0801b5e3   Thumb Code    42  btod.o(CL$$btod_emuld)
    __btod_mult_common                       0x0801b60d   Thumb Code   580  btod.o(CL$$btod_mult_common)
    __mathlib_dbl_overflow                   0x0801b851   Thumb Code    14  dunder.o(i.__mathlib_dbl_overflow)
    __mathlib_dbl_underflow                  0x0801b861   Thumb Code    10  dunder.o(i.__mathlib_dbl_underflow)
    __mathlib_narrow                         0x0801b871   Thumb Code    16  narrow.o(i.__mathlib_narrow)
    __mathlib_tofloat                        0x0801b881   Thumb Code   184  narrow.o(i.__mathlib_tofloat)
    __support_ldexp                          0x0801b93d   Thumb Code    22  ldexp.o(i.__support_ldexp)
    _is_digit                                0x0801b953   Thumb Code    14  __printf_wp.o(i._is_digit)
    floor                                    0x0801b961   Thumb Code   204  floor.o(i.floor)
    frexp                                    0x0801ba3d   Thumb Code    80  frexp.o(i.frexp)
    ldexp                                    0x0801ba95   Thumb Code   116  ldexp.o(i.ldexp)
    _get_lc_ctype                            0x0801bb09   Thumb Code    44  lc_ctype_c.o(locale$$code)
    _get_lc_numeric                          0x0801bb35   Thumb Code    44  lc_numeric_c.o(locale$$code)
    __aeabi_d2f                              0x0801bb61   Thumb Code     0  d2f.o(x$fpl$d2f)
    _d2f                                     0x0801bb61   Thumb Code    98  d2f.o(x$fpl$d2f)
    __aeabi_dadd                             0x0801bbc5   Thumb Code     0  daddsub_clz.o(x$fpl$dadd)
    _dadd                                    0x0801bbc5   Thumb Code   332  daddsub_clz.o(x$fpl$dadd)
    __fpl_dcheck_NaN1                        0x0801bd15   Thumb Code    10  dcheck1.o(x$fpl$dcheck1)
    __fpl_dcmp_Inf                           0x0801bd25   Thumb Code    24  dcmpi.o(x$fpl$dcmpinf)
    __aeabi_ddiv                             0x0801bd3d   Thumb Code     0  ddiv.o(x$fpl$ddiv)
    _ddiv                                    0x0801bd3d   Thumb Code   552  ddiv.o(x$fpl$ddiv)
    __aeabi_cdcmpeq                          0x0801bfed   Thumb Code     0  deqf.o(x$fpl$deqf)
    _dcmpeq                                  0x0801bfed   Thumb Code   120  deqf.o(x$fpl$deqf)
    __aeabi_d2iz                             0x0801c065   Thumb Code     0  dfix.o(x$fpl$dfix)
    _dfix                                    0x0801c065   Thumb Code    94  dfix.o(x$fpl$dfix)
    __aeabi_d2uiz                            0x0801c0c5   Thumb Code     0  dfixu.o(x$fpl$dfixu)
    _dfixu                                   0x0801c0c5   Thumb Code    90  dfixu.o(x$fpl$dfixu)
    __aeabi_i2d                              0x0801c11f   Thumb Code     0  dflt_clz.o(x$fpl$dflt)
    _dflt                                    0x0801c11f   Thumb Code    46  dflt_clz.o(x$fpl$dflt)
    __aeabi_l2d                              0x0801c14d   Thumb Code     0  dfltll_clz.o(x$fpl$dfltll)
    _ll_sto_d                                0x0801c14d   Thumb Code   162  dfltll_clz.o(x$fpl$dfltll)
    __aeabi_ui2d                             0x0801c1ef   Thumb Code     0  dflt_clz.o(x$fpl$dfltu)
    _dfltu                                   0x0801c1ef   Thumb Code    38  dflt_clz.o(x$fpl$dfltu)
    __aeabi_cdcmple                          0x0801c215   Thumb Code     0  dleqf.o(x$fpl$dleqf)
    _dcmple                                  0x0801c215   Thumb Code   120  dleqf.o(x$fpl$dleqf)
    __fpl_dcmple_InfNaN                      0x0801c277   Thumb Code     0  dleqf.o(x$fpl$dleqf)
    __aeabi_dmul                             0x0801c28d   Thumb Code     0  dmul.o(x$fpl$dmul)
    _dmul                                    0x0801c28d   Thumb Code   332  dmul.o(x$fpl$dmul)
    __fpl_dnaninf                            0x0801c3e1   Thumb Code   156  dnaninf.o(x$fpl$dnaninf)
    __fpl_dretinf                            0x0801c47d   Thumb Code    12  dretinf.o(x$fpl$dretinf)
    __aeabi_cdrcmple                         0x0801c489   Thumb Code     0  drleqf.o(x$fpl$drleqf)
    _drcmple                                 0x0801c489   Thumb Code   108  drleqf.o(x$fpl$drleqf)
    __aeabi_drsub                            0x0801c4f5   Thumb Code     0  daddsub_clz.o(x$fpl$drsb)
    _drsb                                    0x0801c4f5   Thumb Code    22  daddsub_clz.o(x$fpl$drsb)
    __aeabi_dsub                             0x0801c50d   Thumb Code     0  daddsub_clz.o(x$fpl$dsub)
    _dsub                                    0x0801c50d   Thumb Code   464  daddsub_clz.o(x$fpl$dsub)
    __aeabi_f2d                              0x0801c6e1   Thumb Code     0  f2d.o(x$fpl$f2d)
    _f2d                                     0x0801c6e1   Thumb Code    86  f2d.o(x$fpl$f2d)
    __aeabi_fadd                             0x0801c739   Thumb Code     0  faddsub_clz.o(x$fpl$fadd)
    _fadd                                    0x0801c739   Thumb Code   196  faddsub_clz.o(x$fpl$fadd)
    __fpl_fcmp_Inf                           0x0801c7fd   Thumb Code    24  fcmpi.o(x$fpl$fcmpinf)
    __aeabi_fdiv                             0x0801c815   Thumb Code     0  fdiv.o(x$fpl$fdiv)
    _fdiv                                    0x0801c815   Thumb Code   384  fdiv.o(x$fpl$fdiv)
    __aeabi_cfcmpeq                          0x0801c999   Thumb Code     0  feqf.o(x$fpl$feqf)
    _fcmpeq                                  0x0801c999   Thumb Code   104  feqf.o(x$fpl$feqf)
    __aeabi_f2iz                             0x0801ca01   Thumb Code     0  ffix.o(x$fpl$ffix)
    _ffix                                    0x0801ca01   Thumb Code    54  ffix.o(x$fpl$ffix)
    __aeabi_f2uiz                            0x0801ca39   Thumb Code     0  ffixu.o(x$fpl$ffixu)
    _ffixu                                   0x0801ca39   Thumb Code    62  ffixu.o(x$fpl$ffixu)
    __aeabi_i2f                              0x0801ca79   Thumb Code     0  fflt_clz.o(x$fpl$fflt)
    _fflt                                    0x0801ca79   Thumb Code    48  fflt_clz.o(x$fpl$fflt)
    __aeabi_ul2f                             0x0801caa9   Thumb Code     0  ffltll_clz.o(x$fpl$ffltll)
    _ll_uto_f                                0x0801caa9   Thumb Code     6  ffltll_clz.o(x$fpl$ffltll)
    __aeabi_l2f                              0x0801caaf   Thumb Code     0  ffltll_clz.o(x$fpl$ffltll)
    _ll_sto_f                                0x0801caaf   Thumb Code    90  ffltll_clz.o(x$fpl$ffltll)
    __aeabi_ui2f                             0x0801cb09   Thumb Code     0  fflt_clz.o(x$fpl$ffltu)
    _ffltu                                   0x0801cb09   Thumb Code    38  fflt_clz.o(x$fpl$ffltu)
    __aeabi_cfcmple                          0x0801cb31   Thumb Code     0  fleqf.o(x$fpl$fleqf)
    _fcmple                                  0x0801cb31   Thumb Code   104  fleqf.o(x$fpl$fleqf)
    __fpl_fcmple_InfNaN                      0x0801cb83   Thumb Code     0  fleqf.o(x$fpl$fleqf)
    __aeabi_fmul                             0x0801cb99   Thumb Code     0  fmul.o(x$fpl$fmul)
    _fmul                                    0x0801cb99   Thumb Code   258  fmul.o(x$fpl$fmul)
    __fpl_fnaninf                            0x0801cc9b   Thumb Code   140  fnaninf.o(x$fpl$fnaninf)
    __fpl_fretinf                            0x0801cd27   Thumb Code    10  fretinf.o(x$fpl$fretinf)
    __aeabi_cfrcmple                         0x0801cd31   Thumb Code     0  frleqf.o(x$fpl$frleqf)
    _frcmple                                 0x0801cd31   Thumb Code    98  frleqf.o(x$fpl$frleqf)
    __aeabi_frsub                            0x0801cd93   Thumb Code     0  faddsub_clz.o(x$fpl$frsb)
    _frsb                                    0x0801cd93   Thumb Code    20  faddsub_clz.o(x$fpl$frsb)
    __aeabi_fsub                             0x0801cda9   Thumb Code     0  faddsub_clz.o(x$fpl$fsub)
    _fsub                                    0x0801cda9   Thumb Code   234  faddsub_clz.o(x$fpl$fsub)
    __ieee_status                            0x0801ce93   Thumb Code     6  istatus.o(x$fpl$ieeestatus)
    __aeabi_d2lz                             0x0801ce99   Thumb Code     0  dfixll.o(x$fpl$llsfromd)
    _ll_sfrom_d                              0x0801ce99   Thumb Code   194  dfixll.o(x$fpl$llsfromd)
    __fpl_return_NaN                         0x0801cf5b   Thumb Code   100  retnan.o(x$fpl$retnan)
    __ARM_scalbn                             0x0801cfbf   Thumb Code    92  scalbn.o(x$fpl$scalbn)
    _scanf_real                              0x0801d01b   Thumb Code     4  scanf1.o(x$fpl$scanf1)
    _scanf_hex_real                          0x0801d01f   Thumb Code     4  scanf2.o(x$fpl$scanf2)
    _scanf_infnan                            0x0801d023   Thumb Code     4  scanf2.o(x$fpl$scanf2)
    __fpl_cmpreturn                          0x0801d027   Thumb Code    48  trapv.o(x$fpl$trapveneer)
    __I$use$fp                               0x0801d056   Number         0  usenofp.o(x$fpl$usenofp)
    table_week                               0x0801d056   Data          12  rtc.o(.constdata)
    mon_table                                0x0801d062   Data          12  rtc.o(.constdata)
    ASCII8x16                                0x0801d06e   Data        1536  gui.o(.constdata)
    tfont16                                  0x0801d66e   Data         480  gui.o(.constdata)
    tfont24                                  0x0801d84e   Data         360  gui.o(.constdata)
    g_utf8_skip                              0x0801e0c4   Data           4  utf8.o(.constdata)
    font_default                             0x0801eff0   Data       12590  assets-mini.o(.constdata)
    image_bricks                             0x0802211e   Data        7260  assets-mini.o(.constdata)
    image_checked                            0x08023d7a   Data        2364  assets-mini.o(.constdata)
    image_dialog_title                       0x080246b6   Data        7260  assets-mini.o(.constdata)
    image_earth                              0x08026312   Data        2364  assets-mini.o(.constdata)
    image_green_btn_n                        0x08026c4e   Data        3660  assets-mini.o(.constdata)
    image_green_btn_o                        0x08027a9a   Data        3660  assets-mini.o(.constdata)
    image_green_btn_p                        0x080288e6   Data        3660  assets-mini.o(.constdata)
    image_info                               0x08029732   Data        2364  assets-mini.o(.constdata)
    image_left_off                           0x0802a06e   Data        2364  assets-mini.o(.constdata)
    image_left_on                            0x0802a9aa   Data        2364  assets-mini.o(.constdata)
    image_middle_off                         0x0802b2e6   Data        2364  assets-mini.o(.constdata)
    image_middle_on                          0x0802bc22   Data        2364  assets-mini.o(.constdata)
    image_muted                              0x0802c55e   Data        2364  assets-mini.o(.constdata)
    image_question                           0x0802ce9a   Data        2364  assets-mini.o(.constdata)
    image_radio_checked                      0x0802d7d6   Data        2364  assets-mini.o(.constdata)
    image_radio_unchecked                    0x0802e112   Data        2364  assets-mini.o(.constdata)
    image_red_btn_n                          0x0802ea4e   Data        3660  assets-mini.o(.constdata)
    image_red_btn_o                          0x0802f89a   Data        3660  assets-mini.o(.constdata)
    image_red_btn_p                          0x080306e6   Data        3660  assets-mini.o(.constdata)
    image_right_off                          0x08031532   Data        2364  assets-mini.o(.constdata)
    image_right_on                           0x08031e6e   Data        2364  assets-mini.o(.constdata)
    image_slider_bg                          0x080327aa   Data        1020  assets-mini.o(.constdata)
    image_slider_drag                        0x08032ba6   Data        3196  assets-mini.o(.constdata)
    image_slider_drag_o                      0x08033822   Data        3196  assets-mini.o(.constdata)
    image_slider_drag_p                      0x0803449e   Data        3196  assets-mini.o(.constdata)
    image_slider_fg                          0x0803511a   Data        1020  assets-mini.o(.constdata)
    image_slider_v_bg                        0x08035516   Data        1020  assets-mini.o(.constdata)
    image_slider_v_fg                        0x08035912   Data        1020  assets-mini.o(.constdata)
    image_unchecked                          0x08035d0e   Data        2364  assets-mini.o(.constdata)
    image_unmuted                            0x0803664a   Data        2364  assets-mini.o(.constdata)
    image_warn                               0x08036f86   Data        2364  assets-mini.o(.constdata)
    style_default                            0x080378c2   Data       16114  assets-mini.o(.constdata)
    Region$$Table$$Base                      0x0803c7c4   Number         0  anon$$obj.o(Region$$Table)
    Region$$Table$$Limit                     0x0803c7e4   Number         0  anon$$obj.o(Region$$Table)
    __aeabi_HUGE_VAL                         0x0803c7e4   Data           0  fpconst.o(c$$dinf)
    __aeabi_HUGE_VALL                        0x0803c7e4   Data           0  fpconst.o(c$$dinf)
    __aeabi_INFINITY                         0x0803c7e4   Data           0  fpconst.o(c$$dinf)
    __dInf                                   0x0803c7e4   Data           0  fpconst.o(c$$dinf)
    __huge_val                               0x0803c7e4   Data           0  fpconst.o(c$$dinf)
    __dbl_max                                0x0803c7ec   Data           0  fpconst.o(c$$dmax)
    __ctype                                  0x0803c801   Data           0  lc_ctype_c.o(locale$$data)
    SystemCoreClock                          0x20000000   Data           4  system_stm32f10x.o(.data)
    AHBPrescTable                            0x20000004   Data          16  system_stm32f10x.o(.data)
    __stdout                                 0x20000014   Data           4  usart.o(.data)
    USART_RX_STA                             0x20000018   Data           2  usart.o(.data)
    TIM5CH1_CAPTURE_STA                      0x20000030   Data           1  tim.o(.data)
    TIM5CH1_CAPTURE_VAL                      0x20000032   Data           2  tim.o(.data)
    rtc_data                                 0x20000034   Data           7  rtc.o(.data)
    rtc_bit                                  0x2000003b   Data           1  rtc.o(.data)
    TouchData                                0x2000003e   Data           8  touch.o(.data)
    s_edit_properties                        0x200001d0   Data          56  edit.o(.data)
    s_combo_box_properties                   0x20000684   Data          60  combo_box.o(.data)
    USART_RX_BUF                             0x200006fc   Data         200  usart.o(.bss)
    calendar                                 0x200007c4   Data          10  rtc.o(.bss)
    __libspace_start                         0x200038b8   Data          96  libspace.o(.bss)
    __temporary_stack_top$libspace           0x20003918   Data           0  libspace.o(.bss)



==============================================================================

Memory Map of the image

  Image Entry point : 0x08000131

  Load Region LR_IROM1 (Base: 0x08000000, Size: 0x0003d01c, Max: 0x00080000, ABSOLUTE, COMPRESSED[0x0003cdec])

    Execution Region ER_IROM1 (Exec base: 0x08000000, Load base: 0x08000000, Size: 0x0003c920, Max: 0x00080000, ABSOLUTE)

    Exec Addr    Load Addr    Size         Type   Attr      Idx    E Section Name        Object

    0x08000000   0x08000000   0x00000130   Data   RO          252    RESET               startup_stm32f10x_hd.o
    0x08000130   0x08000130   0x00000008   Code   RO         2750  * !!!main             c_w.l(__main.o)
    0x08000138   0x08000138   0x00000034   Code   RO         3219    !!!scatter          c_w.l(__scatter.o)
    0x0800016c   0x0800016c   0x00000064   Code   RO         3217    !!dclz77c           c_w.l(__dclz77c.o)
    0x080001d0   0x080001d0   0x0000001c   Code   RO         3221    !!handler_zi        c_w.l(__scatter_zi.o)
    0x080001ec   0x080001ec   0x00000000   Code   RO         2707    .ARM.Collect$$_printf_percent$$00000000  c_w.l(_printf_percent.o)
    0x080001ec   0x080001ec   0x00000006   Code   RO         2706    .ARM.Collect$$_printf_percent$$00000009  c_w.l(_printf_d.o)
    0x080001f2   0x080001f2   0x00000004   Code   RO         2886    .ARM.Collect$$_printf_percent$$00000017  c_w.l(_printf_percent_end.o)
    0x080001f6   0x080001f6   0x00000002   Code   RO         3097    .ARM.Collect$$libinit$$00000000  c_w.l(libinit.o)
    0x080001f8   0x080001f8   0x00000000   Code   RO         3006    .ARM.Collect$$libinit$$00000002  c_w.l(libinit2.o)
    0x080001f8   0x080001f8   0x00000000   Code   RO         3008    .ARM.Collect$$libinit$$00000004  c_w.l(libinit2.o)
    0x080001f8   0x080001f8   0x00000000   Code   RO         3011    .ARM.Collect$$libinit$$0000000A  c_w.l(libinit2.o)
    0x080001f8   0x080001f8   0x00000000   Code   RO         3013    .ARM.Collect$$libinit$$0000000C  c_w.l(libinit2.o)
    0x080001f8   0x080001f8   0x00000000   Code   RO         3015    .ARM.Collect$$libinit$$0000000E  c_w.l(libinit2.o)
    0x080001f8   0x080001f8   0x00000006   Code   RO         3016    .ARM.Collect$$libinit$$0000000F  c_w.l(libinit2.o)
    0x080001fe   0x080001fe   0x00000000   Code   RO         3018    .ARM.Collect$$libinit$$00000011  c_w.l(libinit2.o)
    0x080001fe   0x080001fe   0x0000000c   Code   RO         3019    .ARM.Collect$$libinit$$00000012  c_w.l(libinit2.o)
    0x0800020a   0x0800020a   0x00000000   Code   RO         3020    .ARM.Collect$$libinit$$00000013  c_w.l(libinit2.o)
    0x0800020a   0x0800020a   0x00000000   Code   RO         3022    .ARM.Collect$$libinit$$00000015  c_w.l(libinit2.o)
    0x0800020a   0x0800020a   0x0000000a   Code   RO         3023    .ARM.Collect$$libinit$$00000016  c_w.l(libinit2.o)
    0x08000214   0x08000214   0x00000000   Code   RO         3024    .ARM.Collect$$libinit$$00000017  c_w.l(libinit2.o)
    0x08000214   0x08000214   0x00000000   Code   RO         3026    .ARM.Collect$$libinit$$00000019  c_w.l(libinit2.o)
    0x08000214   0x08000214   0x00000000   Code   RO         3028    .ARM.Collect$$libinit$$0000001B  c_w.l(libinit2.o)
    0x08000214   0x08000214   0x00000000   Code   RO         3030    .ARM.Collect$$libinit$$0000001D  c_w.l(libinit2.o)
    0x08000214   0x08000214   0x00000000   Code   RO         3032    .ARM.Collect$$libinit$$0000001F  c_w.l(libinit2.o)
    0x08000214   0x08000214   0x00000000   Code   RO         3034    .ARM.Collect$$libinit$$00000021  c_w.l(libinit2.o)
    0x08000214   0x08000214   0x00000000   Code   RO         3036    .ARM.Collect$$libinit$$00000023  c_w.l(libinit2.o)
    0x08000214   0x08000214   0x00000000   Code   RO         3038    .ARM.Collect$$libinit$$00000025  c_w.l(libinit2.o)
    0x08000214   0x08000214   0x00000000   Code   RO         3042    .ARM.Collect$$libinit$$0000002C  c_w.l(libinit2.o)
    0x08000214   0x08000214   0x00000000   Code   RO         3044    .ARM.Collect$$libinit$$0000002E  c_w.l(libinit2.o)
    0x08000214   0x08000214   0x00000000   Code   RO         3046    .ARM.Collect$$libinit$$00000030  c_w.l(libinit2.o)
    0x08000214   0x08000214   0x00000000   Code   RO         3048    .ARM.Collect$$libinit$$00000032  c_w.l(libinit2.o)
    0x08000214   0x08000214   0x00000002   Code   RO         3049    .ARM.Collect$$libinit$$00000033  c_w.l(libinit2.o)
    0x08000216   0x08000216   0x00000002   Code   RO         3184    .ARM.Collect$$libshutdown$$00000000  c_w.l(libshutdown.o)
    0x08000218   0x08000218   0x00000000   Code   RO         3200    .ARM.Collect$$libshutdown$$00000002  c_w.l(libshutdown2.o)
    0x08000218   0x08000218   0x00000000   Code   RO         3202    .ARM.Collect$$libshutdown$$00000004  c_w.l(libshutdown2.o)
    0x08000218   0x08000218   0x00000000   Code   RO         3205    .ARM.Collect$$libshutdown$$00000007  c_w.l(libshutdown2.o)
    0x08000218   0x08000218   0x00000000   Code   RO         3208    .ARM.Collect$$libshutdown$$0000000A  c_w.l(libshutdown2.o)
    0x08000218   0x08000218   0x00000000   Code   RO         3210    .ARM.Collect$$libshutdown$$0000000C  c_w.l(libshutdown2.o)
    0x08000218   0x08000218   0x00000000   Code   RO         3213    .ARM.Collect$$libshutdown$$0000000F  c_w.l(libshutdown2.o)
    0x08000218   0x08000218   0x00000002   Code   RO         3214    .ARM.Collect$$libshutdown$$00000010  c_w.l(libshutdown2.o)
    0x0800021a   0x0800021a   0x00000000   Code   RO         2870    .ARM.Collect$$rtentry$$00000000  c_w.l(__rtentry.o)
    0x0800021a   0x0800021a   0x00000000   Code   RO         2964    .ARM.Collect$$rtentry$$00000002  c_w.l(__rtentry2.o)
    0x0800021a   0x0800021a   0x00000006   Code   RO         2976    .ARM.Collect$$rtentry$$00000004  c_w.l(__rtentry4.o)
    0x08000220   0x08000220   0x00000000   Code   RO         2966    .ARM.Collect$$rtentry$$00000009  c_w.l(__rtentry2.o)
    0x08000220   0x08000220   0x00000004   Code   RO         2967    .ARM.Collect$$rtentry$$0000000A  c_w.l(__rtentry2.o)
    0x08000224   0x08000224   0x00000000   Code   RO         2969    .ARM.Collect$$rtentry$$0000000C  c_w.l(__rtentry2.o)
    0x08000224   0x08000224   0x00000008   Code   RO         2970    .ARM.Collect$$rtentry$$0000000D  c_w.l(__rtentry2.o)
    0x0800022c   0x0800022c   0x00000002   Code   RO         3120    .ARM.Collect$$rtexit$$00000000  c_w.l(rtexit.o)
    0x0800022e   0x0800022e   0x00000000   Code   RO         3145    .ARM.Collect$$rtexit$$00000002  c_w.l(rtexit2.o)
    0x0800022e   0x0800022e   0x00000004   Code   RO         3146    .ARM.Collect$$rtexit$$00000003  c_w.l(rtexit2.o)
    0x08000232   0x08000232   0x00000006   Code   RO         3147    .ARM.Collect$$rtexit$$00000004  c_w.l(rtexit2.o)
    0x08000238   0x08000238   0x00000018   Code   RO            1    .text               stm32f10x_it.o
    0x08000250   0x08000250   0x000001e0   Code   RO          104    .text               system_stm32f10x.o
    0x08000430   0x08000430   0x00000044   Code   RO          122    .text               main.o
    0x08000474   0x08000474   0x00000128   Code   RO          216    .text               usart.o
    0x0800059c   0x0800059c   0x00000040   Code   RO          253    .text               startup_stm32f10x_hd.o
    0x080005dc   0x080005dc   0x000000dc   Code   RO          257    .text               misc.o
    0x080006b8   0x080006b8   0x0000035c   Code   RO          269    .text               stm32f10x_gpio.o
    0x08000a14   0x08000a14   0x000003a4   Code   RO          281    .text               stm32f10x_rcc.o
    0x08000db8   0x08000db8   0x00000408   Code   RO          295    .text               stm32f10x_usart.o
    0x080011c0   0x080011c0   0x00000e1a   Code   RO          343    .text               stm32f10x_tim.o
    0x08001fda   0x08001fda   0x00000002   PAD
    0x08001fdc   0x08001fdc   0x0000060c   Code   RO          355    .text               stm32f10x_fsmc.o
    0x080025e8   0x080025e8   0x000000c4   Code   RO          367    .text               stm32f10x_bkp.o
    0x080026ac   0x080026ac   0x00000148   Code   RO          379    .text               stm32f10x_rtc.o
    0x080027f4   0x080027f4   0x000000cc   Code   RO          391    .text               stm32f10x_pwr.o
    0x080028c0   0x080028c0   0x0000030c   Code   RO          415    .text               stm32f10x_spi.o
    0x08002bcc   0x08002bcc   0x000000a4   Code   RO          451    .text               led.o
    0x08002c70   0x08002c70   0x000002b8   Code   RO          464    .text               lcd_driver.o
    0x08002f28   0x08002f28   0x00000100   Code   RO          479    .text               button.o
    0x08003028   0x08003028   0x0000023c   Code   RO          492    .text               tim.o
    0x08003264   0x08003264   0x00000460   Code   RO          511    .text               rtc.o
    0x080036c4   0x080036c4   0x00000440   Code   RO          535    .text               touch.o
    0x08003b04   0x08003b04   0x000001dc   Code   RO          557    .text               spi.o
    0x08003ce0   0x08003ce0   0x00000430   Code   RO          569    .text               gui.o
    0x08004110   0x08004110   0x0000039c   Code   RO          590    .text               flash.o
    0x080044ac   0x080044ac   0x0000027e   Code   RO          604    .text               array.o
    0x0800472a   0x0800472a   0x000000d4   Code   RO          644    .text               bitmap.o
    0x080047fe   0x080047fe   0x000002f4   Code   RO          665    .text               buffer.o
    0x08004af2   0x08004af2   0x00000002   PAD
    0x08004af4   0x08004af4   0x0000025c   Code   RO          680    .text               button_1.o
    0x08004d50   0x08004d50   0x0000281c   Code   RO          756    .text               canvas.o
    0x0800756c   0x0800756c   0x0000027c   Code   RO          780    .text               check_button.o
    0x080077e8   0x080077e8   0x00000054   Code   RO          808    .text               color.o
    0x0800783c   0x0800783c   0x000003d8   Code   RO          820    .text               dialog.o
    0x08007c14   0x08007c14   0x000002b4   Code   RO          872    .text               emitter.o
    0x08007ec8   0x08007ec8   0x00000124   Code   RO          890    .text               enums.o
    0x08007fec   0x08007fec   0x00000098   Code   RO          920    .text               font.o
    0x08008084   0x08008084   0x00000100   Code   RO          932    .text               font_manager.o
    0x08008184   0x08008184   0x00000068   Code   RO          946    .text               group_box.o
    0x080081ec   0x080081ec   0x000006b8   Code   RO          964    .text               image.o
    0x080088a4   0x080088a4   0x000002d8   Code   RO          983    .text               image_manager.o
    0x08008b7c   0x08008b7c   0x00000054   Code   RO          997    .text               label.o
    0x08008bd0   0x08008bd0   0x000003c8   Code   RO         1012    .text               lcd.o
    0x08008f98   0x08008f98   0x00000114   Code   RO         1024    .text               main_loop.o
    0x080090ac   0x080090ac   0x00000364   Code   RO         1041    .text               mem.o
    0x08009410   0x08009410   0x000004d0   Code   RO         1055    .text               progress_bar.o
    0x080098e0   0x080098e0   0x00000240   Code   RO         1074    .text               rect.o
    0x08009b20   0x08009b20   0x000001e0   Code   RO         1086    .text               theme.o
    0x08009d00   0x08009d00   0x00000304   Code   RO         1100    .text               utf8.o
    0x0800a004   0x0800a004   0x00000620   Code   RO         1115    .text               value.o
    0x0800a624   0x0800a624   0x0000201e   Code   RO         1130    .text               widget.o
    0x0800c642   0x0800c642   0x00000002   PAD
    0x0800c644   0x0800c644   0x000002c8   Code   RO         1145    .text               widget_vtable.o
    0x0800c90c   0x0800c90c   0x000001cc   Code   RO         1183    .text               window.o
    0x0800cad8   0x0800cad8   0x00000c8c   Code   RO         1201    .text               window_manager.o
    0x0800d764   0x0800d764   0x00000684   Code   RO         1229    .text               wstr.o
    0x0800dde8   0x0800dde8   0x00000154   Code   RO         1241    .text               font_bitmap.o
    0x0800df3c   0x0800df3c   0x00002b60   Code   RO         1256    .text               utils.o
    0x08010a9c   0x08010a9c   0x000000d2   Code   RO         1289    .text               events.o
    0x08010b6e   0x08010b6e   0x00000002   PAD
    0x08010b70   0x08010b70   0x000003c8   Code   RO         1301    .text               timer.o
    0x08010f38   0x08010f38   0x00000960   Code   RO         1315    .text               layout.o
    0x08011898   0x08011898   0x0000014a   Code   RO         1330    .text               event_queue.o
    0x080119e2   0x080119e2   0x00000002   PAD
    0x080119e4   0x080119e4   0x0000087c   Code   RO         1345    .text               slider.o
    0x08012260   0x08012260   0x00000138   Code   RO         1364    .text               window_animator.o
    0x08012398   0x08012398   0x00000010   Code   RO         1376    .text               window_animator_null.o
    0x080123a8   0x080123a8   0x00000304   Code   RO         1388    .text               idle.o
    0x080126ac   0x080126ac   0x00000018   Code   RO         1402    .text               time.o
    0x080126c4   0x080126c4   0x0000004c   Code   RO         1414    .text               system_info.o
    0x08012710   0x08012710   0x0000002c   Code   RO         1428    .text               image_loader.o
    0x0801273c   0x0801273c   0x000007d4   Code   RO         1440    .text               str.o
    0x08012f10   0x08012f10   0x000002a8   Code   RO         1452    .text               main_loop_simple.o
    0x080131b8   0x080131b8   0x000001e8   Code   RO         1471    .text               pages.o
    0x080133a0   0x080133a0   0x00001460   Code   RO         1490    .text               edit.o
    0x08014800   0x08014800   0x00000054   Code   RO         1507    .text               view.o
    0x08014854   0x08014854   0x000001b4   Code   RO         1540    .text               widget_factory.o
    0x08014a08   0x08014a08   0x00000186   Code   RO         1654    .text               tokenizer.o
    0x08014b8e   0x08014b8e   0x00000002   PAD
    0x08014b90   0x08014b90   0x0000022c   Code   RO         1666    .text               input_method.o
    0x08014dbc   0x08014dbc   0x0000007e   Code   RO         1692    .text               input_engine.o
    0x08014e3a   0x08014e3a   0x00000002   PAD
    0x08014e3c   0x08014e3c   0x00000158   Code   RO         1704    .text               spin_box.o
    0x08014f94   0x08014f94   0x00000380   Code   RO         1723    .text               dragger.o
    0x08015314   0x08015314   0x00000080   Code   RO         1742    .text               dialog_client.o
    0x08015394   0x08015394   0x00000078   Code   RO         1757    .text               dialog_title.o
    0x0801540c   0x0801540c   0x00000230   Code   RO         1772    .text               custom_props.o
    0x0801563c   0x0801563c   0x000002a8   Code   RO         1790    .text               awtk.o
    0x080158e4   0x080158e4   0x00000064   Code   RO         1805    .text               input_method_creator.o
    0x08015948   0x08015948   0x00000068   Code   RO         1820    .text               button_group.o
    0x080159b0   0x080159b0   0x0000028c   Code   RO         1838    .text               color_parser.o
    0x08015c3c   0x08015c3c   0x0000077c   Code   RO         1856    .text               combo_box.o
    0x080163b8   0x080163b8   0x000002f0   Code   RO         1882    .text               combo_box_item.o
    0x080166a8   0x080166a8   0x0000037c   Code   RO         1911    .text               fs.o
    0x08016a24   0x08016a24   0x00000310   Code   RO         1971    .text               popup.o
    0x08016d34   0x08016d34   0x00000438   Code   RO         2014    .text               tab_button.o
    0x0801716c   0x0801716c   0x000003d0   Code   RO         2033    .text               tab_button_group.o
    0x0801753c   0x0801753c   0x00000068   Code   RO         2051    .text               tab_control.o
    0x080175a4   0x080175a4   0x000000a2   Code   RO         2069    .text               ui_builder.o
    0x08017646   0x08017646   0x00000002   PAD
    0x08017648   0x08017648   0x00000168   Code   RO         2225    .text               ui_builder_default.o
    0x080177b0   0x080177b0   0x00000030   Code   RO         2245    .text               ui_loader.o
    0x080177e0   0x080177e0   0x00000114   Code   RO         2257    .text               ui_loader_default.o
    0x080178f4   0x080178f4   0x0000009c   Code   RO         2324    .text               window_open.o
    0x08017990   0x08017990   0x0000022c   Code   RO         2363    .text               color_tile.o
    0x08017bbc   0x08017bbc   0x00000230   Code   RO         2385    .text               assets_manager.o
    0x08017dec   0x08017dec   0x00000244   Code   RO         2399    .text               locale_info.o
    0x08018030   0x08018030   0x0000033c   Code   RO         2422    .text               path.o
    0x0801836c   0x0801836c   0x00000538   Code   RO         2434    .text               lcd_stm32_raw.o
    0x080188a4   0x080188a4   0x000000d8   Code   RO         2458    .text               main_loop_stm32_raw.o
    0x0801897c   0x0801897c   0x00000064   Code   RO         2524    .text               platform.o
    0x080189e0   0x080189e0   0x0000001c   Code   RO         2538    .text               mutex_null.o
    0x080189fc   0x080189fc   0x0000004c   Code   RO         2555    .text               sys_tick.o
    0x08018a48   0x08018a48   0x00000004   Code   RO         2569    .text               fs_os.o
    0x08018a4c   0x08018a4c   0x00000026   Code   RO         2581    .text               demo_main.o
    0x08018a72   0x08018a72   0x00000002   PAD
    0x08018a74   0x08018a74   0x00000538   Code   RO         2596    .text               demo1_app.o
    0x08018fac   0x08018fac   0x0000019c   Code   RO         2614    .text               assets-mini.o
    0x08019148   0x08019148   0x00000002   Code   RO         2664    .text               c_w.l(use_no_semi_2.o)
    0x0801914a   0x0801914a   0x00000002   PAD
    0x0801914c   0x0801914c   0x00000010   Code   RO         2666    .text               c_w.l(rt_ctype_table.o)
    0x0801915c   0x0801915c   0x000000ee   Code   RO         2668    .text               c_w.l(lludivv7m.o)
    0x0801924a   0x0801924a   0x00000026   Code   RO         2670    .text               c_w.l(llushr.o)
    0x08019270   0x08019270   0x00000048   Code   RO         2672    .text               c_w.l(llsdiv.o)
    0x080192b8   0x080192b8   0x0000001a   Code   RO         2674    .text               c_w.l(tolower.o)
    0x080192d2   0x080192d2   0x0000001e   Code   RO         2676    .text               c_w.l(toupper.o)
    0x080192f0   0x080192f0   0x00000018   Code   RO         2680    .text               c_w.l(noretval__2printf.o)
    0x08019308   0x08019308   0x00000068   Code   RO         2682    .text               c_w.l(__printf.o)
    0x08019370   0x08019370   0x00000078   Code   RO         2684    .text               c_w.l(_printf_dec.o)
    0x080193e8   0x080193e8   0x00000034   Code   RO         2708    .text               c_w.l(vsscanf.o)
    0x0801941c   0x0801941c   0x00000050   Code   RO         2710    .text               c_w.l(bsearchnoex.o)
    0x0801946c   0x0801946c   0x00000014   Code   RO         2712    .text               c_w.l(strchr.o)
    0x08019480   0x08019480   0x00000024   Code   RO         2714    .text               c_w.l(strstr.o)
    0x080194a4   0x080194a4   0x00000058   Code   RO         2716    .text               c_w.l(memcmp.o)
    0x080194fc   0x080194fc   0x00000048   Code   RO         2718    .text               c_w.l(strcpy.o)
    0x08019544   0x08019544   0x00000016   Code   RO         2720    .text               c_w.l(strrchr.o)
    0x0801955a   0x0801955a   0x0000003e   Code   RO         2722    .text               c_w.l(strlen.o)
    0x08019598   0x08019598   0x00000012   Code   RO         2724    .text               c_w.l(wcscpy.o)
    0x080195aa   0x080195aa   0x00000018   Code   RO         2726    .text               c_w.l(wcscmp.o)
    0x080195c2   0x080195c2   0x00000016   Code   RO         2728    .text               c_w.l(wcschr.o)
    0x080195d8   0x080195d8   0x00000012   Code   RO         2730    .text               c_w.l(wcslen.o)
    0x080195ea   0x080195ea   0x00000096   Code   RO         2732    .text               c_w.l(strncmp.o)
    0x08019680   0x08019680   0x0000008a   Code   RO         2734    .text               c_w.l(rt_memcpy_v6.o)
    0x0801970a   0x0801970a   0x00000084   Code   RO         2736    .text               c_w.l(rt_memmove_v6.o)
    0x0801978e   0x0801978e   0x00000064   Code   RO         2738    .text               c_w.l(rt_memcpy_w.o)
    0x080197f2   0x080197f2   0x00000044   Code   RO         2740    .text               c_w.l(rt_memclr.o)
    0x08019836   0x08019836   0x0000004e   Code   RO         2742    .text               c_w.l(rt_memclr_w.o)
    0x08019884   0x08019884   0x00000056   Code   RO         2744    .text               c_w.l(strncpy.o)
    0x080198da   0x080198da   0x00000002   PAD
    0x080198dc   0x080198dc   0x00000080   Code   RO         2746    .text               c_w.l(strcmpv7m.o)
    0x0801995c   0x0801995c   0x00000006   Code   RO         2748    .text               c_w.l(heapauxi.o)
    0x08019962   0x08019962   0x00000002   Code   RO         2868    .text               c_w.l(use_no_semi.o)
    0x08019964   0x08019964   0x00000008   Code   RO         2878    .text               c_w.l(rt_locale_intlibspace.o)
    0x0801996c   0x0801996c   0x00000016   Code   RO         2880    .text               c_w.l(_rserrno.o)
    0x08019982   0x08019982   0x000000b2   Code   RO         2882    .text               c_w.l(_printf_intcommon.o)
    0x08019a34   0x08019a34   0x00000024   Code   RO         2884    .text               c_w.l(_printf_char_file.o)
    0x08019a58   0x08019a58   0x00000156   Code   RO         2887    .text               c_w.l(_scanf_longlong.o)
    0x08019bae   0x08019bae   0x0000014c   Code   RO         2889    .text               c_w.l(_scanf_int.o)
    0x08019cfa   0x08019cfa   0x000000e0   Code   RO         2891    .text               c_w.l(_scanf_str.o)
    0x08019dda   0x08019dda   0x00000002   PAD
    0x08019ddc   0x08019ddc   0x0000002c   Code   RO         2893    .text               c_w.l(scanf_char.o)
    0x08019e08   0x08019e08   0x00000040   Code   RO         2895    .text               c_w.l(_sgetc.o)
    0x08019e48   0x08019e48   0x00000114   Code   RO         2897    .text               c_w.l(_scanf_mbtowc.o)
    0x08019f5c   0x08019f5c   0x000000e8   Code   RO         2899    .text               c_w.l(_scanf_wctomb.o)
    0x0801a044   0x0801a044   0x000000d0   Code   RO         2901    .text               c_w.l(_scanf_wstr.o)
    0x0801a114   0x0801a114   0x0000007a   Code   RO         2906    .text               c_w.l(rt_memmove_w.o)
    0x0801a18e   0x0801a18e   0x00000002   PAD
    0x0801a190   0x0801a190   0x00000008   Code   RO         2960    .text               c_w.l(libspace.o)
    0x0801a198   0x0801a198   0x00000008   Code   RO         2983    .text               c_w.l(rt_errno_addr_intlibspace.o)
    0x0801a1a0   0x0801a1a0   0x00000012   Code   RO         2985    .text               c_w.l(isspace.o)
    0x0801a1b2   0x0801a1b2   0x00000002   PAD
    0x0801a1b4   0x0801a1b4   0x00000030   Code   RO         2987    .text               c_w.l(_printf_char_common.o)
    0x0801a1e4   0x0801a1e4   0x0000001c   Code   RO         2989    .text               c_w.l(_chval.o)
    0x0801a200   0x0801a200   0x00000374   Code   RO         2991    .text               c_w.l(_scanf.o)
    0x0801a574   0x0801a574   0x000004f8   Code   RO         2993    .text               c_w.l(scanf_fp.o)
    0x0801aa6c   0x0801aa6c   0x0000001e   Code   RO         2995    .text               c_w.l(_scanf_wcharmap.o)
    0x0801aa8a   0x0801aa8a   0x00000008   Code   RO         2997    .text               c_w.l(ferror.o)
    0x0801aa92   0x0801aa92   0x0000003c   Code   RO         3001    .text               c_w.l(_mbrtowc.o)
    0x0801aace   0x0801aace   0x00000040   Code   RO         3003    .text               c_w.l(_wcrtomb.o)
    0x0801ab0e   0x0801ab0e   0x0000004a   Code   RO         3052    .text               c_w.l(sys_stackheap_outer.o)
    0x0801ab58   0x0801ab58   0x000000e4   Code   RO         3056    .text               c_w.l(bigflt0.o)
    0x0801ac3c   0x0801ac3c   0x00000012   Code   RO         3084    .text               c_w.l(exit.o)
    0x0801ac4e   0x0801ac4e   0x00000002   PAD
    0x0801ac50   0x0801ac50   0x00000320   Code   RO         3124    .text               c_w.l(scanf_hexfp.o)
    0x0801af70   0x0801af70   0x00000134   Code   RO         3126    .text               c_w.l(scanf_infnan.o)
    0x0801b0a4   0x0801b0a4   0x00000026   Code   RO         3153    .text               c_w.l(llshl.o)
    0x0801b0ca   0x0801b0ca   0x00000338   Code   RO         3069    CL$$btod_div_common  c_w.l(btod.o)
    0x0801b402   0x0801b402   0x00000002   PAD
    0x0801b404   0x0801b404   0x00000084   Code   RO         3067    CL$$btod_e2d        c_w.l(btod.o)
    0x0801b488   0x0801b488   0x000000dc   Code   RO         3066    CL$$btod_e2e        c_w.l(btod.o)
    0x0801b564   0x0801b564   0x0000002a   Code   RO         3063    CL$$btod_ediv       c_w.l(btod.o)
    0x0801b58e   0x0801b58e   0x0000002a   Code   RO         3065    CL$$btod_edivd      c_w.l(btod.o)
    0x0801b5b8   0x0801b5b8   0x0000002a   Code   RO         3062    CL$$btod_emul       c_w.l(btod.o)
    0x0801b5e2   0x0801b5e2   0x0000002a   Code   RO         3064    CL$$btod_emuld      c_w.l(btod.o)
    0x0801b60c   0x0801b60c   0x00000244   Code   RO         3068    CL$$btod_mult_common  c_w.l(btod.o)
    0x0801b850   0x0801b850   0x0000000e   Code   RO         2934    i.__mathlib_dbl_overflow  m_ws.l(dunder.o)
    0x0801b85e   0x0801b85e   0x00000002   PAD
    0x0801b860   0x0801b860   0x00000010   Code   RO         2936    i.__mathlib_dbl_underflow  m_ws.l(dunder.o)
    0x0801b870   0x0801b870   0x00000010   Code   RO         3114    i.__mathlib_narrow  m_ws.l(narrow.o)
    0x0801b880   0x0801b880   0x000000bc   Code   RO         3115    i.__mathlib_tofloat  m_ws.l(narrow.o)
    0x0801b93c   0x0801b93c   0x00000016   Code   RO         3164    i.__support_ldexp   m_ws.l(ldexp.o)
    0x0801b952   0x0801b952   0x0000000e   Code   RO         2696    i._is_digit         c_w.l(__printf_wp.o)
    0x0801b960   0x0801b960   0x000000dc   Code   RO         2839    i.floor             m_ws.l(floor.o)
    0x0801ba3c   0x0801ba3c   0x00000058   Code   RO         3139    i.frexp             m_ws.l(frexp.o)
    0x0801ba94   0x0801ba94   0x00000074   Code   RO         3165    i.ldexp             m_ws.l(ldexp.o)
    0x0801bb08   0x0801bb08   0x0000002c   Code   RO         2904    locale$$code        c_w.l(lc_ctype_c.o)
    0x0801bb34   0x0801bb34   0x0000002c   Code   RO         3082    locale$$code        c_w.l(lc_numeric_c.o)
    0x0801bb60   0x0801bb60   0x00000062   Code   RO         2752    x$fpl$d2f           fz_ws.l(d2f.o)
    0x0801bbc2   0x0801bbc2   0x00000002   PAD
    0x0801bbc4   0x0801bbc4   0x00000150   Code   RO         2754    x$fpl$dadd          fz_ws.l(daddsub_clz.o)
    0x0801bd14   0x0801bd14   0x00000010   Code   RO         3050    x$fpl$dcheck1       fz_ws.l(dcheck1.o)
    0x0801bd24   0x0801bd24   0x00000018   Code   RO         2908    x$fpl$dcmpinf       fz_ws.l(dcmpi.o)
    0x0801bd3c   0x0801bd3c   0x000002b0   Code   RO         2761    x$fpl$ddiv          fz_ws.l(ddiv.o)
    0x0801bfec   0x0801bfec   0x00000078   Code   RO         2764    x$fpl$deqf          fz_ws.l(deqf.o)
    0x0801c064   0x0801c064   0x0000005e   Code   RO         2766    x$fpl$dfix          fz_ws.l(dfix.o)
    0x0801c0c2   0x0801c0c2   0x00000002   PAD
    0x0801c0c4   0x0801c0c4   0x0000005a   Code   RO         2774    x$fpl$dfixu         fz_ws.l(dfixu.o)
    0x0801c11e   0x0801c11e   0x0000002e   Code   RO         2779    x$fpl$dflt          fz_ws.l(dflt_clz.o)
    0x0801c14c   0x0801c14c   0x000000a2   Code   RO         2784    x$fpl$dfltll        fz_ws.l(dfltll_clz.o)
    0x0801c1ee   0x0801c1ee   0x00000026   Code   RO         2778    x$fpl$dfltu         fz_ws.l(dflt_clz.o)
    0x0801c214   0x0801c214   0x00000078   Code   RO         2788    x$fpl$dleqf         fz_ws.l(dleqf.o)
    0x0801c28c   0x0801c28c   0x00000154   Code   RO         2790    x$fpl$dmul          fz_ws.l(dmul.o)
    0x0801c3e0   0x0801c3e0   0x0000009c   Code   RO         2910    x$fpl$dnaninf       fz_ws.l(dnaninf.o)
    0x0801c47c   0x0801c47c   0x0000000c   Code   RO         2912    x$fpl$dretinf       fz_ws.l(dretinf.o)
    0x0801c488   0x0801c488   0x0000006c   Code   RO         2792    x$fpl$drleqf        fz_ws.l(drleqf.o)
    0x0801c4f4   0x0801c4f4   0x00000016   Code   RO         2755    x$fpl$drsb          fz_ws.l(daddsub_clz.o)
    0x0801c50a   0x0801c50a   0x00000002   PAD
    0x0801c50c   0x0801c50c   0x000001d4   Code   RO         2756    x$fpl$dsub          fz_ws.l(daddsub_clz.o)
    0x0801c6e0   0x0801c6e0   0x00000056   Code   RO         2794    x$fpl$f2d           fz_ws.l(f2d.o)
    0x0801c736   0x0801c736   0x00000002   PAD
    0x0801c738   0x0801c738   0x000000c4   Code   RO         2796    x$fpl$fadd          fz_ws.l(faddsub_clz.o)
    0x0801c7fc   0x0801c7fc   0x00000018   Code   RO         2916    x$fpl$fcmpinf       fz_ws.l(fcmpi.o)
    0x0801c814   0x0801c814   0x00000184   Code   RO         2803    x$fpl$fdiv          fz_ws.l(fdiv.o)
    0x0801c998   0x0801c998   0x00000068   Code   RO         2806    x$fpl$feqf          fz_ws.l(feqf.o)
    0x0801ca00   0x0801ca00   0x00000036   Code   RO         2808    x$fpl$ffix          fz_ws.l(ffix.o)
    0x0801ca36   0x0801ca36   0x00000002   PAD
    0x0801ca38   0x0801ca38   0x0000003e   Code   RO         2812    x$fpl$ffixu         fz_ws.l(ffixu.o)
    0x0801ca76   0x0801ca76   0x00000002   PAD
    0x0801ca78   0x0801ca78   0x00000030   Code   RO         2817    x$fpl$fflt          fz_ws.l(fflt_clz.o)
    0x0801caa8   0x0801caa8   0x00000060   Code   RO         2822    x$fpl$ffltll        fz_ws.l(ffltll_clz.o)
    0x0801cb08   0x0801cb08   0x00000026   Code   RO         2816    x$fpl$ffltu         fz_ws.l(fflt_clz.o)
    0x0801cb2e   0x0801cb2e   0x00000002   PAD
    0x0801cb30   0x0801cb30   0x00000068   Code   RO         2824    x$fpl$fleqf         fz_ws.l(fleqf.o)
    0x0801cb98   0x0801cb98   0x00000102   Code   RO         2826    x$fpl$fmul          fz_ws.l(fmul.o)
    0x0801cc9a   0x0801cc9a   0x0000008c   Code   RO         2918    x$fpl$fnaninf       fz_ws.l(fnaninf.o)
    0x0801cd26   0x0801cd26   0x0000000a   Code   RO         2920    x$fpl$fretinf       fz_ws.l(fretinf.o)
    0x0801cd30   0x0801cd30   0x00000062   Code   RO         2828    x$fpl$frleqf        fz_ws.l(frleqf.o)
    0x0801cd92   0x0801cd92   0x00000014   Code   RO         2797    x$fpl$frsb          fz_ws.l(faddsub_clz.o)
    0x0801cda6   0x0801cda6   0x00000002   PAD
    0x0801cda8   0x0801cda8   0x000000ea   Code   RO         2798    x$fpl$fsub          fz_ws.l(faddsub_clz.o)
    0x0801ce92   0x0801ce92   0x00000006   Code   RO         3104    x$fpl$ieeestatus    fz_ws.l(istatus.o)
    0x0801ce98   0x0801ce98   0x000000c2   Code   RO         2770    x$fpl$llsfromd      fz_ws.l(dfixll.o)
    0x0801cf5a   0x0801cf5a   0x00000064   Code   RO         3106    x$fpl$retnan        fz_ws.l(retnan.o)
    0x0801cfbe   0x0801cfbe   0x0000005c   Code   RO         2922    x$fpl$scalbn        fz_ws.l(scalbn.o)
    0x0801d01a   0x0801d01a   0x00000004   Code   RO         2924    x$fpl$scanf1        fz_ws.l(scanf1.o)
    0x0801d01e   0x0801d01e   0x00000008   Code   RO         3108    x$fpl$scanf2        fz_ws.l(scanf2.o)
    0x0801d026   0x0801d026   0x00000030   Code   RO         3136    x$fpl$trapveneer    fz_ws.l(trapv.o)
    0x0801d056   0x0801d056   0x00000000   Code   RO         2926    x$fpl$usenofp       fz_ws.l(usenofp.o)
    0x0801d056   0x0801d056   0x00000018   Data   RO          513    .constdata          rtc.o
    0x0801d06e   0x0801d06e   0x00000948   Data   RO          570    .constdata          gui.o
    0x0801d9b6   0x0801d9b6   0x00000002   PAD
    0x0801d9b8   0x0801d9b8   0x00000060   Data   RO          681    .constdata          button_1.o
    0x0801da18   0x0801da18   0x000000c0   Data   RO          781    .constdata          check_button.o
    0x0801dad8   0x0801dad8   0x00000060   Data   RO          821    .constdata          dialog.o
    0x0801db38   0x0801db38   0x0000030c   Data   RO          891    .constdata          enums.o
    0x0801de44   0x0801de44   0x00000060   Data   RO          947    .constdata          group_box.o
    0x0801dea4   0x0801dea4   0x00000060   Data   RO          965    .constdata          image.o
    0x0801df04   0x0801df04   0x00000060   Data   RO          998    .constdata          label.o
    0x0801df64   0x0801df64   0x00000060   Data   RO         1056    .constdata          progress_bar.o
    0x0801dfc4   0x0801dfc4   0x00000104   Data   RO         1101    .constdata          utf8.o
    0x0801e0c8   0x0801e0c8   0x00000060   Data   RO         1146    .constdata          widget_vtable.o
    0x0801e128   0x0801e128   0x00000060   Data   RO         1184    .constdata          window.o
    0x0801e188   0x0801e188   0x00000086   Data   RO         1202    .constdata          window_manager.o
    0x0801e20e   0x0801e20e   0x00000002   PAD
    0x0801e210   0x0801e210   0x00000458   Data   RO         1257    .constdata          utils.o
    0x0801e668   0x0801e668   0x00000060   Data   RO         1346    .constdata          slider.o
    0x0801e6c8   0x0801e6c8   0x00000060   Data   RO         1472    .constdata          pages.o
    0x0801e728   0x0801e728   0x00000060   Data   RO         1491    .constdata          edit.o
    0x0801e788   0x0801e788   0x00000060   Data   RO         1508    .constdata          view.o
    0x0801e7e8   0x0801e7e8   0x00000384   Data   RO         1541    .constdata          widget_factory.o
    0x0801eb6c   0x0801eb6c   0x00000060   Data   RO         1705    .constdata          spin_box.o
    0x0801ebcc   0x0801ebcc   0x00000060   Data   RO         1724    .constdata          dragger.o
    0x0801ec2c   0x0801ec2c   0x00000060   Data   RO         1743    .constdata          dialog_client.o
    0x0801ec8c   0x0801ec8c   0x00000060   Data   RO         1758    .constdata          dialog_title.o
    0x0801ecec   0x0801ecec   0x00000060   Data   RO         1821    .constdata          button_group.o
    0x0801ed4c   0x0801ed4c   0x00000060   Data   RO         1857    .constdata          combo_box.o
    0x0801edac   0x0801edac   0x00000060   Data   RO         1883    .constdata          combo_box_item.o
    0x0801ee0c   0x0801ee0c   0x00000060   Data   RO         1972    .constdata          popup.o
    0x0801ee6c   0x0801ee6c   0x00000060   Data   RO         2015    .constdata          tab_button.o
    0x0801eecc   0x0801eecc   0x00000060   Data   RO         2034    .constdata          tab_button_group.o
    0x0801ef2c   0x0801ef2c   0x00000060   Data   RO         2052    .constdata          tab_control.o
    0x0801ef8c   0x0801ef8c   0x00000004   Data   RO         2258    .constdata          ui_loader_default.o
    0x0801ef90   0x0801ef90   0x00000060   Data   RO         2364    .constdata          color_tile.o
    0x0801eff0   0x0801eff0   0x0001c7c4   Data   RO         2615    .constdata          assets-mini.o
    0x0803b7b4   0x0803b7b4   0x00000094   Data   RO         3057    .constdata          c_w.l(bigflt0.o)
    0x0803b848   0x0803b848   0x0000000f   Data   RO          682    .conststring        button_1.o
    0x0803b857   0x0803b857   0x00000001   PAD
    0x0803b858   0x0803b858   0x00000025   Data   RO          782    .conststring        check_button.o
    0x0803b87d   0x0803b87d   0x00000003   PAD
    0x0803b880   0x0803b880   0x00000023   Data   RO          822    .conststring        dialog.o
    0x0803b8a3   0x0803b8a3   0x00000001   PAD
    0x0803b8a4   0x0803b8a4   0x0000026a   Data   RO          892    .conststring        enums.o
    0x0803bb0e   0x0803bb0e   0x00000002   PAD
    0x0803bb10   0x0803bb10   0x0000000a   Data   RO          948    .conststring        group_box.o
    0x0803bb1a   0x0803bb1a   0x00000002   PAD
    0x0803bb1c   0x0803bb1c   0x00000055   Data   RO          966    .conststring        image.o
    0x0803bb71   0x0803bb71   0x00000003   PAD
    0x0803bb74   0x0803bb74   0x00000006   Data   RO          999    .conststring        label.o
    0x0803bb7a   0x0803bb7a   0x00000002   PAD
    0x0803bb7c   0x0803bb7c   0x00000026   Data   RO         1057    .conststring        progress_bar.o
    0x0803bba2   0x0803bba2   0x00000002   PAD
    0x0803bba4   0x0803bba4   0x00000007   Data   RO         1185    .conststring        window.o
    0x0803bbab   0x0803bbab   0x00000001   PAD
    0x0803bbac   0x0803bbac   0x0000000f   Data   RO         1203    .conststring        window_manager.o
    0x0803bbbb   0x0803bbbb   0x00000001   PAD
    0x0803bbbc   0x0803bbbc   0x00000018   Data   RO         1347    .conststring        slider.o
    0x0803bbd4   0x0803bbd4   0x00000006   Data   RO         1473    .conststring        pages.o
    0x0803bbda   0x0803bbda   0x00000002   PAD
    0x0803bbdc   0x0803bbdc   0x0000007d   Data   RO         1492    .conststring        edit.o
    0x0803bc59   0x0803bc59   0x00000003   PAD
    0x0803bc5c   0x0803bc5c   0x00000005   Data   RO         1509    .conststring        view.o
    0x0803bc61   0x0803bc61   0x00000003   PAD
    0x0803bc64   0x0803bc64   0x00000009   Data   RO         1706    .conststring        spin_box.o
    0x0803bc6d   0x0803bc6d   0x00000003   PAD
    0x0803bc70   0x0803bc70   0x00000026   Data   RO         1725    .conststring        dragger.o
    0x0803bc96   0x0803bc96   0x00000002   PAD
    0x0803bc98   0x0803bc98   0x0000000e   Data   RO         1744    .conststring        dialog_client.o
    0x0803bca6   0x0803bca6   0x00000002   PAD
    0x0803bca8   0x0803bca8   0x0000000d   Data   RO         1759    .conststring        dialog_title.o
    0x0803bcb5   0x0803bcb5   0x00000003   PAD
    0x0803bcb8   0x0803bcb8   0x00000a61   Data   RO         1839    .conststring        color_parser.o
    0x0803c719   0x0803c719   0x00000003   PAD
    0x0803c71c   0x0803c71c   0x00000026   Data   RO         1858    .conststring        combo_box.o
    0x0803c742   0x0803c742   0x00000002   PAD
    0x0803c744   0x0803c744   0x0000000f   Data   RO         1884    .conststring        combo_box_item.o
    0x0803c753   0x0803c753   0x00000001   PAD
    0x0803c754   0x0803c754   0x00000036   Data   RO         1973    .conststring        popup.o
    0x0803c78a   0x0803c78a   0x00000002   PAD
    0x0803c78c   0x0803c78c   0x0000000b   Data   RO         2016    .conststring        tab_button.o
    0x0803c797   0x0803c797   0x00000001   PAD
    0x0803c798   0x0803c798   0x00000011   Data   RO         2035    .conststring        tab_button_group.o
    0x0803c7a9   0x0803c7a9   0x00000003   PAD
    0x0803c7ac   0x0803c7ac   0x0000000c   Data   RO         2053    .conststring        tab_control.o
    0x0803c7b8   0x0803c7b8   0x0000000b   Data   RO         2365    .conststring        color_tile.o
    0x0803c7c3   0x0803c7c3   0x00000001   PAD
    0x0803c7c4   0x0803c7c4   0x00000020   Data   RO         3215    Region$$Table       anon$$obj.o
    0x0803c7e4   0x0803c7e4   0x00000008   Data   RO         3098    c$$dinf             fz_ws.l(fpconst.o)
    0x0803c7ec   0x0803c7ec   0x00000008   Data   RO         3101    c$$dmax             fz_ws.l(fpconst.o)
    0x0803c7f4   0x0803c7f4   0x00000110   Data   RO         2903    locale$$data        c_w.l(lc_ctype_c.o)
    0x0803c904   0x0803c904   0x0000001c   Data   RO         3081    locale$$data        c_w.l(lc_numeric_c.o)


    Execution Region RW_IRAM1 (Exec base: 0x20000000, Load base: 0x0803c920, Size: 0x00003f18, Max: 0x00010000, ABSOLUTE, COMPRESSED[0x000004cc])

    Exec Addr    Load Addr    Size         Type   Attr      Idx    E Section Name        Object

    0x20000000   COMPRESSED   0x00000014   Data   RW          105    .data               system_stm32f10x.o
    0x20000014   COMPRESSED   0x00000006   Data   RW          218    .data               usart.o
    0x2000001a   COMPRESSED   0x00000014   Data   RW          282    .data               stm32f10x_rcc.o
    0x2000002e   COMPRESSED   0x00000001   Data   RW          452    .data               led.o
    0x2000002f   COMPRESSED   0x00000001   Data   RW          480    .data               button.o
    0x20000030   COMPRESSED   0x00000004   Data   RW          493    .data               tim.o
    0x20000034   COMPRESSED   0x0000000a   Data   RW          514    .data               rtc.o
    0x2000003e   COMPRESSED   0x00000008   Data   RW          537    .data               touch.o
    0x20000046   COMPRESSED   0x00000002   PAD
    0x20000048   COMPRESSED   0x00000008   Data   RW          683    .data               button_1.o
    0x20000050   COMPRESSED   0x00000008   Data   RW          783    .data               check_button.o
    0x20000058   COMPRESSED   0x00000010   Data   RW          823    .data               dialog.o
    0x20000068   COMPRESSED   0x00000004   Data   RW          933    .data               font_manager.o
    0x2000006c   COMPRESSED   0x00000028   Data   RW          967    .data               image.o
    0x20000094   COMPRESSED   0x00000004   Data   RW          984    .data               image_manager.o
    0x20000098   COMPRESSED   0x00000004   Data   RW         1025    .data               main_loop.o
    0x2000009c   COMPRESSED   0x00000010   Data   RW         1058    .data               progress_bar.o
    0x200000ac   COMPRESSED   0x00000004   Data   RW         1087    .data               theme.o
    0x200000b0   COMPRESSED   0x00000004   Data   RW         1204    .data               window_manager.o
    0x200000b4   COMPRESSED   0x000000f1   Data   RW         1258    .data               utils.o
    0x200001a5   COMPRESSED   0x00000003   PAD
    0x200001a8   COMPRESSED   0x00000004   Data   RW         1302    .data               timer.o
    0x200001ac   COMPRESSED   0x00000018   Data   RW         1348    .data               slider.o
    0x200001c4   COMPRESSED   0x00000004   Data   RW         1389    .data               idle.o
    0x200001c8   COMPRESSED   0x00000008   Data   RW         1474    .data               pages.o
    0x200001d0   COMPRESSED   0x00000038   Data   RW         1493    .data               edit.o
    0x20000208   COMPRESSED   0x00000004   Data   RW         1542    .data               widget_factory.o
    0x2000020c   COMPRESSED   0x00000004   Data   RW         1667    .data               input_method.o
    0x20000210   COMPRESSED   0x00000014   Data   RW         1726    .data               dragger.o
    0x20000224   COMPRESSED   0x00000460   Data   RW         1840    .data               color_parser.o
    0x20000684   COMPRESSED   0x0000003c   Data   RW         1859    .data               combo_box.o
    0x200006c0   COMPRESSED   0x00000018   Data   RW         1974    .data               popup.o
    0x200006d8   COMPRESSED   0x00000008   Data   RW         2017    .data               tab_button.o
    0x200006e0   COMPRESSED   0x0000000c   Data   RW         2366    .data               color_tile.o
    0x200006ec   COMPRESSED   0x00000004   Data   RW         2386    .data               assets_manager.o
    0x200006f0   COMPRESSED   0x00000004   Data   RW         2400    .data               locale_info.o
    0x200006f4   COMPRESSED   0x00000004   Data   RW         2539    .data               mutex_null.o
    0x200006f8   COMPRESSED   0x00000004   Data   RW         2556    .data               sys_tick.o
    0x200006fc        -       0x000000c8   Zero   RW          217    .bss                usart.o
    0x200007c4        -       0x0000000a   Zero   RW          512    .bss                rtc.o
    0x200007ce   COMPRESSED   0x00000002   PAD
    0x200007d0        -       0x0000000c   Zero   RW          536    .bss                touch.o
    0x200007dc        -       0x00001000   Zero   RW          591    .bss                flash.o
    0x200017dc        -       0x00000010   Zero   RW         1042    .bss                mem.o
    0x200017ec        -       0x0000001c   Zero   RW         1415    .bss                system_info.o
    0x20001808        -       0x0000008c   Zero   RW         1453    .bss                main_loop_simple.o
    0x20001894        -       0x00000024   Zero   RW         2226    .bss                ui_builder_default.o
    0x200018b8        -       0x00002000   Zero   RW         2525    .bss                platform.o
    0x200038b8        -       0x00000060   Zero   RW         2961    .bss                c_w.l(libspace.o)
    0x20003918        -       0x00000200   Zero   RW          251    HEAP                startup_stm32f10x_hd.o
    0x20003b18        -       0x00000400   Zero   RW          250    STACK               startup_stm32f10x_hd.o


==============================================================================

Image component sizes


      Code (inc. data)   RO Data    RW Data    ZI Data      Debug   Object Name

       638          0          0          0          0      13667   array.o
       412        132     116676          0          0      12083   assets-mini.o
       560         12          0          4          0       5718   assets_manager.o
       680         18          0          0          0       3479   awtk.o
       212          0          0          0          0       3821   bitmap.o
       756          0          0          0          0       6633   buffer.o
       256         12          0          1          0        850   button.o
       604         26        111          8          0      30018   button_1.o
       104          6         96          0          0       2364   button_group.o
     10268         82          0          0          0      32054   canvas.o
       636         16        229          8          0       6185   check_button.o
        84         18          0          0          0        899   color.o
       652        102       2657       1120          0       3637   color_parser.o
       556         48        107         12          0       4373   color_tile.o
      1916        156        134         60          0      11434   combo_box.o
       752         60        111          0          0       4501   combo_box_item.o
         0          0          0          0          0         32   core_cm3.o
       560          0          0          0          0       4757   custom_props.o
      1336        248          0          0          0       3491   demo1_app.o
        38          0          0          0          0        600   demo_main.o
       984         98        131         16          0      13466   dialog.o
       128         12        110          0          0       1978   dialog_client.o
       120         12        109          0          0       2016   dialog_title.o
       896         48        134         20          0       4888   dragger.o
      5216        208        221         56          0      18183   edit.o
       692          0          0          0          0       8241   emitter.o
       292         28       1398          0          0       8770   enums.o
       330          0          0          0          0       2992   event_queue.o
       210          0          0          0          0       2700   events.o
       924         12          0          0       4096       3305   flash.o
       152          8          0          0          0       1544   font.o
       340         18          0          0          0       3974   font_bitmap.o
       256         14          0          4          0       3238   font_manager.o
       892         10          0          0          0       8123   fs.o
         4          0          0          0          0        464   fs_os.o
       104          6        106          0          0       2254   group_box.o
      1072         12       2376          0          0       5635   gui.o
       772         12          0          4          0       6739   idle.o
      1720        108        181         40          0       7532   image.o
        44          0          0          0          0       1060   image_loader.o
       728         14          0          4          0       5669   image_manager.o
       126          0          0          0          0       1038   input_engine.o
       556         10          0          4          0       4717   input_method.o
       100         10          0          0          0       1255   input_method_creator.o
        84          6        102          0          0       1591   label.o
      2400         42          0          0          0       7749   layout.o
       968          0          0          0          0       8479   lcd.o
       696         18          0          0          0       2092   lcd_driver.o
      1336         36          0          0          0       6505   lcd_stm32_raw.o
       164         10          0          1          0        739   led.o
       580         20          0          4          0       7935   locale_info.o
        68          0          0          0          0     205271   main.o
       276          4          0          4          0       3124   main_loop.o
       680         12          0          0        140       4965   main_loop_simple.o
       216         16          0          0          0      17445   main_loop_stm32_raw.o
       868          6          0          0         16       4959   mem.o
       220         22          0          0          0       1825   misc.o
        28          6          0          4          0       1993   mutex_null.o
       488         20        102          8          0       4408   pages.o
       828          6          0          0          0       4906   path.o
       100         12          0          0       8192       1236   platform.o
       784         72        150         24          0       3766   popup.o
      1232         36        134         16          0       5412   progress_bar.o
       576          0          0          0          0       3005   rect.o
      1120         66         24         10         10       4387   rtc.o
      2172         52        120         24          0       7495   slider.o
       476         16          0          0          0       1828   spi.o
       344         70        105          0          0       2313   spin_box.o
        64         26        304          0       1536        812   startup_stm32f10x_hd.o
       196          8          0          0          0       3520   stm32f10x_bkp.o
      1548         18          0          0          0       5399   stm32f10x_fsmc.o
       860         38          0          0          0       5757   stm32f10x_gpio.o
        24          0          0          0          0      64030   stm32f10x_it.o
       204         14          0          0          0       1967   stm32f10x_pwr.o
       932         36          0         20          0       8944   stm32f10x_rcc.o
       328          4          0          0          0       2734   stm32f10x_rtc.o
       780         14          0          0          0       6638   stm32f10x_spi.o
      3610         88          0          0          0      22864   stm32f10x_tim.o
      1032         22          0          0          0       8480   stm32f10x_usart.o
      2004         54          0          0          0      11004   str.o
        76          6          0          4          0       1761   sys_tick.o
        76         24          0          0         28       1427   system_info.o
       480         38          0         20          0       1775   system_stm32f10x.o
      1080         74        107          8          0       6036   tab_button.o
       976         36        113          0          0       6280   tab_button_group.o
       104          6        108          0          0       2294   tab_control.o
       480         12          0          4          0       3288   theme.o
       572         24          0          4          0       1965   tim.o
        24          0          0          0          0        617   time.o
       968         14          0          4          0       8145   timer.o
       390          0          0          0          0       3276   tokenizer.o
      1088         38          0          8         12       4326   touch.o
       162          0          0          0          0       2952   ui_builder.o
       360         32          0          0         36       3293   ui_builder_default.o
        48          0          0          0          0       1177   ui_loader.o
       276         10          4          0          0       1939   ui_loader_default.o
       296         16          0          6        200       3210   usart.o
       772          4        260          0          0       5513   utf8.o
     11104        222       1112        241          0      29507   utils.o
      1568         72          0          0          0       9804   value.o
        84          6        101          0          0       1932   view.o
      8222        176          0          0          0      34874   widget.o
       436          8        900          4          0      12452   widget_factory.o
       712         20         96          0          0      20581   widget_vtable.o
       460         26        103          0          0       3685   window.o
       312          0          0          0          0       1961   window_animator.o
        16          0          0          0          0       1475   window_animator_null.o
      3212        100        149          4          0      17056   window_manager.o
       156          4          0          0          0       2156   window_open.o
      1668         18          0          0          0       9254   wstr.o

    ----------------------------------------------------------------------
    102160       3432     129066       1788      14268     929965   Object Totals
         0          0         32          0          0          0   (incl. Generated)
        18          0         53          5          2          0   (incl. Padding)

    ----------------------------------------------------------------------

      Code (inc. data)   RO Data    RW Data    ZI Data      Debug   Library Member Name

       100          0          0          0          0          0   __dclz77c.o
         8          0          0          0          0         68   __main.o
       104          0          0          0          0         84   __printf.o
        14          0          0          0          0         68   __printf_wp.o
         0          0          0          0          0          0   __rtentry.o
        12          0          0          0          0          0   __rtentry2.o
         6          0          0          0          0          0   __rtentry4.o
        52          8          0          0          0          0   __scatter.o
        28          0          0          0          0          0   __scatter_zi.o
        28          0          0          0          0         68   _chval.o
        60          0          0          0          0         92   _mbrtowc.o
        48          6          0          0          0         96   _printf_char_common.o
        36          4          0          0          0         80   _printf_char_file.o
         6          0          0          0          0          0   _printf_d.o
       120         16          0          0          0         92   _printf_dec.o
       178          0          0          0          0         88   _printf_intcommon.o
         0          0          0          0          0          0   _printf_percent.o
         4          0          0          0          0          0   _printf_percent_end.o
        22          0          0          0          0        100   _rserrno.o
       884          6          0          0          0        100   _scanf.o
       332          0          0          0          0         96   _scanf_int.o
       342          0          0          0          0        100   _scanf_longlong.o
       276          0          0          0          0        100   _scanf_mbtowc.o
       224          0          0          0          0         96   _scanf_str.o
        30          0          0          0          0         76   _scanf_wcharmap.o
       232          0          0          0          0        100   _scanf_wctomb.o
       208          0          0          0          0         96   _scanf_wstr.o
        64          0          0          0          0         84   _sgetc.o
        64          0          0          0          0         92   _wcrtomb.o
       228          4        148          0          0         96   bigflt0.o
        80          0          0          0          0         88   bsearchnoex.o
      1924        136          0          0          0        756   btod.o
        18          0          0          0          0         80   exit.o
         8          0          0          0          0         68   ferror.o
         6          0          0          0          0        152   heapauxi.o
        18          0          0          0          0         76   isspace.o
        44         10        272          0          0         76   lc_ctype_c.o
        44         10         28          0          0         76   lc_numeric_c.o
         2          0          0          0          0          0   libinit.o
        30          0          0          0          0          0   libinit2.o
         2          0          0          0          0          0   libshutdown.o
         2          0          0          0          0          0   libshutdown2.o
         8          4          0          0         96         68   libspace.o
        72          0          0          0          0         76   llsdiv.o
        38          0          0          0          0         68   llshl.o
       238          0          0          0          0        100   lludivv7m.o
        38          0          0          0          0         68   llushr.o
        88          0          0          0          0         76   memcmp.o
        24          4          0          0          0         84   noretval__2printf.o
        16          4          0          0          0         76   rt_ctype_table.o
         8          4          0          0          0         68   rt_errno_addr_intlibspace.o
         8          4          0          0          0         68   rt_locale_intlibspace.o
        68          0          0          0          0         68   rt_memclr.o
        78          0          0          0          0         80   rt_memclr_w.o
       138          0          0          0          0         68   rt_memcpy_v6.o
       100          0          0          0          0         80   rt_memcpy_w.o
       132          0          0          0          0         68   rt_memmove_v6.o
       122          0          0          0          0         80   rt_memmove_w.o
         2          0          0          0          0          0   rtexit.o
        10          0          0          0          0          0   rtexit2.o
        44          8          0          0          0         84   scanf_char.o
      1272         16          0          0          0        168   scanf_fp.o
       800         14          0          0          0        100   scanf_hexfp.o
       308         16          0          0          0        100   scanf_infnan.o
        20          0          0          0          0         68   strchr.o
       128          0          0          0          0         68   strcmpv7m.o
        72          0          0          0          0         80   strcpy.o
        62          0          0          0          0         76   strlen.o
       150          0          0          0          0         80   strncmp.o
        86          0          0          0          0         76   strncpy.o
        22          0          0          0          0         68   strrchr.o
        36          0          0          0          0         80   strstr.o
        74          0          0          0          0         80   sys_stackheap_outer.o
        26          0          0          0          0         76   tolower.o
        30          0          0          0          0         76   toupper.o
         2          0          0          0          0         68   use_no_semi.o
         2          0          0          0          0         68   use_no_semi_2.o
        52          8          0          0          0         80   vsscanf.o
        22          0          0          0          0         68   wcschr.o
        24          0          0          0          0         68   wcscmp.o
        18          0          0          0          0         68   wcscpy.o
        18          0          0          0          0         68   wcslen.o
        98          4          0          0          0         92   d2f.o
       826         16          0          0          0        348   daddsub_clz.o
        16          4          0          0          0         68   dcheck1.o
        24          0          0          0          0         68   dcmpi.o
       688        140          0          0          0        208   ddiv.o
       120          4          0          0          0         92   deqf.o
        94          4          0          0          0         92   dfix.o
       194          4          0          0          0        116   dfixll.o
        90          4          0          0          0         92   dfixu.o
        84          0          0          0          0        136   dflt_clz.o
       162          0          0          0          0         84   dfltll_clz.o
       120          4          0          0          0         92   dleqf.o
       340         12          0          0          0        104   dmul.o
       156          4          0          0          0         92   dnaninf.o
        12          0          0          0          0         68   dretinf.o
       108          0          0          0          0         80   drleqf.o
        86          4          0          0          0         84   f2d.o
       450          8          0          0          0        236   faddsub_clz.o
        24          0          0          0          0         68   fcmpi.o
       388         76          0          0          0         96   fdiv.o
       104          4          0          0          0         84   feqf.o
        54          4          0          0          0         84   ffix.o
        62          4          0          0          0         84   ffixu.o
        86          0          0          0          0        136   fflt_clz.o
        96          0          0          0          0         84   ffltll_clz.o
       104          4          0          0          0         84   fleqf.o
       258          4          0          0          0         84   fmul.o
       140          4          0          0          0         84   fnaninf.o
         0          0         16          0          0          0   fpconst.o
        10          0          0          0          0         68   fretinf.o
        98          0          0          0          0         68   frleqf.o
         6          0          0          0          0         68   istatus.o
       100          0          0          0          0         68   retnan.o
        92          0          0          0          0         68   scalbn.o
         4          0          0          0          0         68   scanf1.o
         8          0          0          0          0         84   scanf2.o
        48          0          0          0          0         68   trapv.o
         0          0          0          0          0          0   usenofp.o
        30          6          0          0          0        136   dunder.o
       220         16          0          0          0         84   floor.o
        88          8          0          0          0         76   frexp.o
       138          0          0          0          0        160   ldexp.o
       204          4          0          0          0        168   narrow.o

    ----------------------------------------------------------------------
     16406        630        464          0         96      10432   Library Totals
        32          2          0          0          0          0   (incl. Padding)

    ----------------------------------------------------------------------

      Code (inc. data)   RO Data    RW Data    ZI Data      Debug   Library Name

     10344        282        448          0         96       6208   c_w.l
      5350        312         16          0          0       3600   fz_ws.l
       680         34          0          0          0        624   m_ws.l

    ----------------------------------------------------------------------
     16406        630        464          0         96      10432   Library Totals

    ----------------------------------------------------------------------

==============================================================================


      Code (inc. data)   RO Data    RW Data    ZI Data      Debug   

    118566       4062     129530       1788      14364     923805   Grand Totals
    118566       4062     129530       1228      14364     923805   ELF Image Totals (compressed)
    118566       4062     129530       1228          0          0   ROM Totals

==============================================================================

    Total RO  Size (Code + RO Data)               248096 ( 242.28kB)
    Total RW  Size (RW Data + ZI Data)             16152 (  15.77kB)
    Total ROM Size (Code + RO Data + RW Data)     249324 ( 243.48kB)

==============================================================================

